(dp0
cnumpy.core.multiarray
scalar
p1
(cnumpy
dtype
p2
(S'S3'
p3
I0
I1
tp4
Rp5
(I3
S'|'
p6
NNNI3
I1
I0
tp7
bS'SIR'
p8
tp9
Rp10
g1
(g2
(S'i8'
p11
I0
I1
tp12
Rp13
(I3
S'<'
p14
NNNI-1
I-1
I0
tp15
bS'\t\x00\x00\x00\x00\x00\x00\x00'
p16
tp17
Rp18
sg1
(g2
(S'S3'
p19
I0
I1
tp20
Rp21
(I3
S'|'
p22
NNNI3
I1
I0
tp23
bS'CPJ'
p24
tp25
Rp26
g1
(g13
S'\x06\x00\x00\x00\x00\x00\x00\x00'
p27
tp28
Rp29
sg1
(g2
(S'S3'
p30
I0
I1
tp31
Rp32
(I3
S'|'
p33
NNNI3
I1
I0
tp34
bS'CPK'
p35
tp36
Rp37
g1
(g13
S'\t\x00\x00\x00\x00\x00\x00\x00'
p38
tp39
Rp40
sg1
(g2
(S'S3'
p41
I0
I1
tp42
Rp43
(I3
S'|'
p44
NNNI3
I1
I0
tp45
bS'SRT'
p46
tp47
Rp48
g1
(g13
S'\x04\x00\x00\x00\x00\x00\x00\x00'
p49
tp50
Rp51
sg1
(g2
(S'S3'
p52
I0
I1
tp53
Rp54
(I3
S'|'
p55
NNNI3
I1
I0
tp56
bS'JWP'
p57
tp58
Rp59
g1
(g13
S'\x05\x00\x00\x00\x00\x00\x00\x00'
p60
tp61
Rp62
sg1
(g2
(S'S3'
p63
I0
I1
tp64
Rp65
(I3
S'|'
p66
NNNI3
I1
I0
tp67
bS'CPA'
p68
tp69
Rp70
g1
(g13
S'\x05\x00\x00\x00\x00\x00\x00\x00'
p71
tp72
Rp73
sg1
(g2
(S'S3'
p74
I0
I1
tp75
Rp76
(I3
S'|'
p77
NNNI3
I1
I0
tp78
bS'AGC'
p79
tp80
Rp81
g1
(g13
S'\x14\x00\x00\x00\x00\x00\x00\x00'
p82
tp83
Rp84
sg1
(g2
(S'S3'
p85
I0
I1
tp86
Rp87
(I3
S'|'
p88
NNNI3
I1
I0
tp89
bS'OYR'
p90
tp91
Rp92
g1
(g13
S'\x02\x00\x00\x00\x00\x00\x00\x00'
p93
tp94
Rp95
sg1
(g2
(S'S3'
p96
I0
I1
tp97
Rp98
(I3
S'|'
p99
NNNI3
I1
I0
tp100
bS'NYN'
p101
tp102
Rp103
g1
(g13
S'\r\x00\x00\x00\x00\x00\x00\x00'
p104
tp105
Rp106
sg1
(g2
(S'S3'
p107
I0
I1
tp108
Rp109
(I3
S'|'
p110
NNNI3
I1
I0
tp111
bS'JMT'
p112
tp113
Rp114
g1
(g13
S'\x04\x00\x00\x00\x00\x00\x00\x00'
p115
tp116
Rp117
sg1
(g2
(S'S3'
p118
I0
I1
tp119
Rp120
(I3
S'|'
p121
NNNI3
I1
I0
tp122
bS'CPR'
p123
tp124
Rp125
g1
(g13
S'\r\x00\x00\x00\x00\x00\x00\x00'
p126
tp127
Rp128
sg1
(g2
(S'S4'
p129
I0
I1
tp130
Rp131
(I3
S'|'
p132
NNNI4
I1
I0
tp133
bS'KOTA'
p134
tp135
Rp136
g1
(g13
S'\x1b\x00\x00\x00\x00\x00\x00\x00'
p137
tp138
Rp139
sg1
(g2
(S'S3'
p140
I0
I1
tp141
Rp142
(I3
S'|'
p143
NNNI3
I1
I0
tp144
bS'BWR'
p145
tp146
Rp147
g1
(g13
S'\x02\x00\x00\x00\x00\x00\x00\x00'
p148
tp149
Rp150
sg1
(g2
(S'S3'
p151
I0
I1
tp152
Rp153
(I3
S'|'
p154
NNNI3
I1
I0
tp155
bS'BWT'
p156
tp157
Rp158
g1
(g13
S'\x0e\x00\x00\x00\x00\x00\x00\x00'
p159
tp160
Rp161
sg1
(g2
(S'S3'
p162
I0
I1
tp163
Rp164
(I3
S'|'
p165
NNNI3
I1
I0
tp166
bS'KYN'
p167
tp168
Rp169
g1
(g13
S'\x14\x00\x00\x00\x00\x00\x00\x00'
p170
tp171
Rp172
sg1
(g2
(S'S3'
p173
I0
I1
tp174
Rp175
(I3
S'|'
p176
NNNI3
I1
I0
tp177
bS'KYF'
p178
tp179
Rp180
g1
(g13
S'\x02\x00\x00\x00\x00\x00\x00\x00'
p181
tp182
Rp183
sg1
(g2
(S'S3'
p184
I0
I1
tp185
Rp186
(I3
S'|'
p187
NNNI3
I1
I0
tp188
bS'KYE'
p189
tp190
Rp191
g1
(g13
S'\x07\x00\x00\x00\x00\x00\x00\x00'
p192
tp193
Rp194
sg1
(g2
(S'S3'
p195
I0
I1
tp196
Rp197
(I3
S'|'
p198
NNNI3
I1
I0
tp199
bS'SPJ'
p200
tp201
Rp202
g1
(g13
S'\x10\x00\x00\x00\x00\x00\x00\x00'
p203
tp204
Rp205
sg1
(g2
(S'S4'
p206
I0
I1
tp207
Rp208
(I3
S'|'
p209
NNNI4
I1
I0
tp210
bS'NTSK'
p211
tp212
Rp213
g1
(g13
S'\n\x00\x00\x00\x00\x00\x00\x00'
p214
tp215
Rp216
sg1
(g2
(S'S3'
p217
I0
I1
tp218
Rp219
(I3
S'|'
p220
NNNI3
I1
I0
tp221
bS'SPN'
p222
tp223
Rp224
g1
(g13
S'\x12\x00\x00\x00\x00\x00\x00\x00'
p225
tp226
Rp227
sg1
(g2
(S'S3'
p228
I0
I1
tp229
Rp230
(I3
S'|'
p231
NNNI3
I1
I0
tp232
bS'BWH'
p233
tp234
Rp235
g1
(g13
S'\x05\x00\x00\x00\x00\x00\x00\x00'
p236
tp237
Rp238
sg1
(g2
(S'S3'
p239
I0
I1
tp240
Rp241
(I3
S'|'
p242
NNNI3
I1
I0
tp243
bS'BWI'
p244
tp245
Rp246
g1
(g13
S'\x02\x00\x00\x00\x00\x00\x00\x00'
p247
tp248
Rp249
sg1
(g2
(S'S3'
p250
I0
I1
tp251
Rp252
(I3
S'|'
p253
NNNI3
I1
I0
tp254
bS'KYQ'
p255
tp256
Rp257
g1
(g13
S'\x08\x00\x00\x00\x00\x00\x00\x00'
p258
tp259
Rp260
sg1
(g2
(S'S3'
p261
I0
I1
tp262
Rp263
(I3
S'|'
p264
NNNI3
I1
I0
tp265
bS'KRE'
p266
tp267
Rp268
g1
(g13
S'\x05\x00\x00\x00\x00\x00\x00\x00'
p269
tp270
Rp271
sg1
(g2
(S'S3'
p272
I0
I1
tp273
Rp274
(I3
S'|'
p275
NNNI3
I1
I0
tp276
bS'BWM'
p277
tp278
Rp279
g1
(g13
S'\t\x00\x00\x00\x00\x00\x00\x00'
p280
tp281
Rp282
sg1
(g2
(S'S3'
p283
I0
I1
tp284
Rp285
(I3
S'|'
p286
NNNI3
I1
I0
tp287
bS'BWN'
p288
tp289
Rp290
g1
(g13
S'\x1d\x00\x00\x00\x00\x00\x00\x00'
p291
tp292
Rp293
sg1
(g2
(S'S3'
p294
I0
I1
tp295
Rp296
(I3
S'|'
p297
NNNI3
I1
I0
tp298
bS'KYT'
p299
tp300
Rp301
g1
(g13
S'\x04\x00\x00\x00\x00\x00\x00\x00'
p302
tp303
Rp304
sg1
(g2
(S'S4'
p305
I0
I1
tp306
Rp307
(I3
S'|'
p308
NNNI4
I1
I0
tp309
bS'BGTA'
p310
tp311
Rp312
g1
(g13
S'\x04\x00\x00\x00\x00\x00\x00\x00'
p313
tp314
Rp315
sg1
(g2
(S'S3'
p316
I0
I1
tp317
Rp318
(I3
S'|'
p319
NNNI3
I1
I0
tp320
bS'HZD'
p321
tp322
Rp323
g1
(g13
S'\x05\x00\x00\x00\x00\x00\x00\x00'
p324
tp325
Rp326
sg1
(g2
(S'S3'
p327
I0
I1
tp328
Rp329
(I3
S'|'
p330
NNNI3
I1
I0
tp331
bS'JID'
p332
tp333
Rp334
g1
(g13
S'\x08\x00\x00\x00\x00\x00\x00\x00'
p335
tp336
Rp337
sg1
(g2
(S'S3'
p338
I0
I1
tp339
Rp340
(I3
S'|'
p341
NNNI3
I1
I0
tp342
bS'MJG'
p343
tp344
Rp345
g1
(g13
S'\x02\x00\x00\x00\x00\x00\x00\x00'
p346
tp347
Rp348
sg1
(g2
(S'S3'
p349
I0
I1
tp350
Rp351
(I3
S'|'
p352
NNNI3
I1
I0
tp353
bS'MJA'
p354
tp355
Rp356
g1
(g13
S'\x07\x00\x00\x00\x00\x00\x00\x00'
p357
tp358
Rp359
sg1
(g2
(S'S3'
p360
I0
I1
tp361
Rp362
(I3
S'|'
p363
NNNI3
I1
I0
tp364
bS'JIA'
p365
tp366
Rp367
g1
(g13
S'\x02\x00\x00\x00\x00\x00\x00\x00'
p368
tp369
Rp370
sg1
(g2
(S'S3'
p371
I0
I1
tp372
Rp373
(I3
S'|'
p374
NNNI3
I1
I0
tp375
bS'VAA'
p376
tp377
Rp378
g1
(g13
S'\x02\x00\x00\x00\x00\x00\x00\x00'
p379
tp380
Rp381
sg1
(g2
(S'S3'
p382
I0
I1
tp383
Rp384
(I3
S'|'
p385
NNNI3
I1
I0
tp386
bS'BYN'
p387
tp388
Rp389
g1
(g13
S'\x02\x00\x00\x00\x00\x00\x00\x00'
p390
tp391
Rp392
sg1
(g2
(S'S2'
p393
I0
I1
tp394
Rp395
(I3
S'|'
p396
NNNI2
I1
I0
tp397
bS'GD'
p398
tp399
Rp400
g1
(g13
S'\x11\x00\x00\x00\x00\x00\x00\x00'
p401
tp402
Rp403
sg1
(g2
(S'S4'
p404
I0
I1
tp405
Rp406
(I3
S'|'
p407
NNNI4
I1
I0
tp408
bS'KNHP'
p409
tp410
Rp411
g1
(g13
S'\x03\x00\x00\x00\x00\x00\x00\x00'
p412
tp413
Rp414
sg1
(g2
(S'S2'
p415
I0
I1
tp416
Rp417
(I3
S'|'
p418
NNNI2
I1
I0
tp419
bS'JL'
p420
tp421
Rp422
g1
(g13
S'\x10\x00\x00\x00\x00\x00\x00\x00'
p423
tp424
Rp425
sg1
(g2
(S'S3'
p426
I0
I1
tp427
Rp428
(I3
S'|'
p429
NNNI3
I1
I0
tp430
bS'MAS'
p431
tp432
Rp433
g1
(g13
S'\x0e\x00\x00\x00\x00\x00\x00\x00'
p434
tp435
Rp436
sg1
(g2
(S'S3'
p437
I0
I1
tp438
Rp439
(I3
S'|'
p440
NNNI3
I1
I0
tp441
bS'AHA'
p442
tp443
Rp444
g1
(g13
S'\x05\x00\x00\x00\x00\x00\x00\x00'
p445
tp446
Rp447
sg1
(g2
(S'S3'
p448
I0
I1
tp449
Rp450
(I3
S'|'
p451
NNNI3
I1
I0
tp452
bS'MAU'
p453
tp454
Rp455
g1
(g13
S'\x0f\x00\x00\x00\x00\x00\x00\x00'
p456
tp457
Rp458
sg1
(g2
(S'S3'
p459
I0
I1
tp460
Rp461
(I3
S'|'
p462
NNNI3
I1
I0
tp463
bS'JNU'
p464
tp465
Rp466
g1
(g13
S'\x0b\x00\x00\x00\x00\x00\x00\x00'
p467
tp468
Rp469
sg1
(g2
(S'S3'
p470
I0
I1
tp471
Rp472
(I3
S'|'
p473
NNNI3
I1
I0
tp474
bS'ROU'
p475
tp476
Rp477
g1
(g13
S'\x11\x00\x00\x00\x00\x00\x00\x00'
p478
tp479
Rp480
sg1
(g2
(S'S3'
p481
I0
I1
tp482
Rp483
(I3
S'|'
p484
NNNI3
I1
I0
tp485
bS'JNA'
p486
tp487
Rp488
g1
(g13
S'\x03\x00\x00\x00\x00\x00\x00\x00'
p489
tp490
Rp491
sg1
(g2
(S'S4'
p492
I0
I1
tp493
Rp494
(I3
S'|'
p495
NNNI4
I1
I0
tp496
bS'JJKR'
p497
tp498
Rp499
g1
(g13
S'\n\x00\x00\x00\x00\x00\x00\x00'
p500
tp501
Rp502
sg1
(g2
(S'S3'
p503
I0
I1
tp504
Rp505
(I3
S'|'
p506
NNNI3
I1
I0
tp507
bS'SNS'
p508
tp509
Rp510
g1
(g13
S'\x02\x00\x00\x00\x00\x00\x00\x00'
p511
tp512
Rp513
sg1
(g2
(S'S3'
p514
I0
I1
tp515
Rp516
(I3
S'|'
p517
NNNI3
I1
I0
tp518
bS'SNP'
p519
tp520
Rp521
g1
(g13
S'\t\x00\x00\x00\x00\x00\x00\x00'
p522
tp523
Rp524
sg1
(g2
(S'S3'
p525
I0
I1
tp526
Rp527
(I3
S'|'
p528
NNNI3
I1
I0
tp529
bS'LAV'
p530
tp531
Rp532
g1
(g13
S'\x04\x00\x00\x00\x00\x00\x00\x00'
p533
tp534
Rp535
sg1
(g2
(S'S3'
p536
I0
I1
tp537
Rp538
(I3
S'|'
p539
NNNI3
I1
I0
tp540
bS'JNH'
p541
tp542
Rp543
g1
(g13
S'\x10\x00\x00\x00\x00\x00\x00\x00'
p544
tp545
Rp546
sg1
(g2
(S'S3'
p547
I0
I1
tp548
Rp549
(I3
S'|'
p550
NNNI3
I1
I0
tp551
bS'LAR'
p552
tp553
Rp554
g1
(g13
S'\x0e\x00\x00\x00\x00\x00\x00\x00'
p555
tp556
Rp557
sg1
(g2
(S'S4'
p558
I0
I1
tp559
Rp560
(I3
S'|'
p561
NNNI4
I1
I0
tp562
bS'SGUJ'
p563
tp564
Rp565
g1
(g13
S'\x07\x00\x00\x00\x00\x00\x00\x00'
p566
tp567
Rp568
sg1
(g2
(S'S3'
p569
I0
I1
tp570
Rp571
(I3
S'|'
p572
NNNI3
I1
I0
tp573
bS'DTO'
p574
tp575
Rp576
g1
(g13
S'\t\x00\x00\x00\x00\x00\x00\x00'
p577
tp578
Rp579
sg1
(g2
(S'S4'
p580
I0
I1
tp581
Rp582
(I3
S'|'
p583
NNNI4
I1
I0
tp584
bS'SVRP'
p585
tp586
Rp587
g1
(g13
S'\x03\x00\x00\x00\x00\x00\x00\x00'
p588
tp589
Rp590
sg1
(g2
(S'S3'
p591
I0
I1
tp592
Rp593
(I3
S'|'
p594
NNNI3
I1
I0
tp595
bS'BEA'
p596
tp597
Rp598
g1
(g13
S'\x06\x00\x00\x00\x00\x00\x00\x00'
p599
tp600
Rp601
sg1
(g2
(S'S4'
p602
I0
I1
tp603
Rp604
(I3
S'|'
p605
NNNI4
I1
I0
tp606
bS'PNVL'
p607
tp608
Rp609
g1
(g13
S'\x13\x00\x00\x00\x00\x00\x00\x00'
p610
tp611
Rp612
sg1
(g2
(S'S4'
p613
I0
I1
tp614
Rp615
(I3
S'|'
p616
NNNI4
I1
I0
tp617
bS'PDRD'
p618
tp619
Rp620
g1
(g13
S'\x02\x00\x00\x00\x00\x00\x00\x00'
p621
tp622
Rp623
sg1
(g2
(S'S3'
p624
I0
I1
tp625
Rp626
(I3
S'|'
p627
NNNI3
I1
I0
tp628
bS'BEP'
p629
tp630
Rp631
g1
(g13
S'\x02\x00\x00\x00\x00\x00\x00\x00'
p632
tp633
Rp634
sg1
(g2
(S'S2'
p635
I0
I1
tp636
Rp637
(I3
S'|'
p638
NNNI2
I1
I0
tp639
bS'ST'
p640
tp641
Rp642
g1
(g13
S'\x17\x00\x00\x00\x00\x00\x00\x00'
p643
tp644
Rp645
sg1
(g2
(S'S4'
p646
I0
I1
tp647
Rp648
(I3
S'|'
p649
NNNI4
I1
I0
tp650
bS'MAUR'
p651
tp652
Rp653
g1
(g13
S'\x05\x00\x00\x00\x00\x00\x00\x00'
p654
tp655
Rp656
sg1
(g2
(S'S3'
p657
I0
I1
tp658
Rp659
(I3
S'|'
p660
NNNI3
I1
I0
tp661
bS'KBN'
p662
tp663
Rp664
g1
(g13
S'\x02\x00\x00\x00\x00\x00\x00\x00'
p665
tp666
Rp667
sg1
(g2
(S'S3'
p668
I0
I1
tp669
Rp670
(I3
S'|'
p671
NNNI3
I1
I0
tp672
bS'SBC'
p673
tp674
Rp675
g1
(g13
S'\x11\x00\x00\x00\x00\x00\x00\x00'
p676
tp677
Rp678
sg1
(g2
(S'S3'
p679
I0
I1
tp680
Rp681
(I3
S'|'
p682
NNNI3
I1
I0
tp683
bS'LSI'
p684
tp685
Rp686
g1
(g13
S'\x05\x00\x00\x00\x00\x00\x00\x00'
p687
tp688
Rp689
sg1
(g2
(S'S2'
p690
I0
I1
tp691
Rp692
(I3
S'|'
p693
NNNI2
I1
I0
tp694
bS'VM'
p695
tp696
Rp697
g1
(g13
S'\r\x00\x00\x00\x00\x00\x00\x00'
p698
tp699
Rp700
sg1
(g2
(S'S3'
p701
I0
I1
tp702
Rp703
(I3
S'|'
p704
NNNI3
I1
I0
tp705
bS'TEN'
p706
tp707
Rp708
g1
(g13
S'\x0b\x00\x00\x00\x00\x00\x00\x00'
p709
tp710
Rp711
sg1
(g2
(S'S3'
p712
I0
I1
tp713
Rp714
(I3
S'|'
p715
NNNI3
I1
I0
tp716
bS'PAN'
p717
tp718
Rp719
g1
(g13
S'\x04\x00\x00\x00\x00\x00\x00\x00'
p720
tp721
Rp722
sg1
(g2
(S'S4'
p723
I0
I1
tp724
Rp725
(I3
S'|'
p726
NNNI4
I1
I0
tp727
bS'BSYA'
p728
tp729
Rp730
g1
(g13
S'\x02\x00\x00\x00\x00\x00\x00\x00'
p731
tp732
Rp733
sg1
(g2
(S'S3'
p734
I0
I1
tp735
Rp736
(I3
S'|'
p737
NNNI3
I1
I0
tp738
bS'SIL'
p739
tp740
Rp741
g1
(g13
S'\x03\x00\x00\x00\x00\x00\x00\x00'
p742
tp743
Rp744
sg1
(g2
(S'S3'
p745
I0
I1
tp746
Rp747
(I3
S'|'
p748
NNNI3
I1
I0
tp749
bS'JTW'
p750
tp751
Rp752
g1
(g13
S'\x05\x00\x00\x00\x00\x00\x00\x00'
p753
tp754
Rp755
sg1
(g2
(S'S3'
p756
I0
I1
tp757
Rp758
(I3
S'|'
p759
NNNI3
I1
I0
tp760
bS'FTP'
p761
tp762
Rp763
g1
(g13
S'\t\x00\x00\x00\x00\x00\x00\x00'
p764
tp765
Rp766
sg1
(g2
(S'S3'
p767
I0
I1
tp768
Rp769
(I3
S'|'
p770
NNNI3
I1
I0
tp771
bS'IGP'
p772
tp773
Rp774
g1
(g13
S'\n\x00\x00\x00\x00\x00\x00\x00'
p775
tp776
Rp777
sg1
(g2
(S'S3'
p778
I0
I1
tp779
Rp780
(I3
S'|'
p781
NNNI3
I1
I0
tp782
bS'BLT'
p783
tp784
Rp785
g1
(g13
S'\x04\x00\x00\x00\x00\x00\x00\x00'
p786
tp787
Rp788
sg1
(g2
(S'S3'
p789
I0
I1
tp790
Rp791
(I3
S'|'
p792
NNNI3
I1
I0
tp793
bS'RFJ'
p794
tp795
Rp796
g1
(g13
S'\x04\x00\x00\x00\x00\x00\x00\x00'
p797
tp798
Rp799
sg1
(g2
(S'S3'
p800
I0
I1
tp801
Rp802
(I3
S'|'
p803
NNNI3
I1
I0
tp804
bS'NFK'
p805
tp806
Rp807
g1
(g13
S'\x0f\x00\x00\x00\x00\x00\x00\x00'
p808
tp809
Rp810
sg1
(g2
(S'S3'
p811
I0
I1
tp812
Rp813
(I3
S'|'
p814
NNNI3
I1
I0
tp815
bS'SPZ'
p816
tp817
Rp818
g1
(g13
S'\x03\x00\x00\x00\x00\x00\x00\x00'
p819
tp820
Rp821
sg1
(g2
(S'S3'
p822
I0
I1
tp823
Rp824
(I3
S'|'
p825
NNNI3
I1
I0
tp826
bS'BLS'
p827
tp828
Rp829
g1
(g13
S'\x0f\x00\x00\x00\x00\x00\x00\x00'
p830
tp831
Rp832
sg1
(g2
(S'S3'
p833
I0
I1
tp834
Rp835
(I3
S'|'
p836
NNNI3
I1
I0
tp837
bS'BLM'
p838
tp839
Rp840
g1
(g13
S'\n\x00\x00\x00\x00\x00\x00\x00'
p841
tp842
Rp843
sg1
(g2
(S'S3'
p844
I0
I1
tp845
Rp846
(I3
S'|'
p847
NNNI3
I1
I0
tp848
bS'DSO'
p849
tp850
Rp851
g1
(g13
S'\x05\x00\x00\x00\x00\x00\x00\x00'
p852
tp853
Rp854
sg1
(g2
(S'S3'
p855
I0
I1
tp856
Rp857
(I3
S'|'
p858
NNNI3
I1
I0
tp859
bS'KPD'
p860
tp861
Rp862
g1
(g13
S'\x1a\x00\x00\x00\x00\x00\x00\x00'
p863
tp864
Rp865
sg1
(g2
(S'S3'
p866
I0
I1
tp867
Rp868
(I3
S'|'
p869
NNNI3
I1
I0
tp870
bS'KPG'
p871
tp872
Rp873
g1
(g13
S'\r\x00\x00\x00\x00\x00\x00\x00'
p874
tp875
Rp876
sg1
(g2
(S'S3'
p877
I0
I1
tp878
Rp879
(I3
S'|'
p880
NNNI3
I1
I0
tp881
bS'BLG'
p882
tp883
Rp884
g1
(g13
S'\x02\x00\x00\x00\x00\x00\x00\x00'
p885
tp886
Rp887
sg1
(g2
(S'S3'
p888
I0
I1
tp889
Rp890
(I3
S'|'
p891
NNNI3
I1
I0
tp892
bS'DSB'
p893
tp894
Rp895
g1
(g13
S'\x05\x00\x00\x00\x00\x00\x00\x00'
p896
tp897
Rp898
sg1
(g2
(S'S3'
p899
I0
I1
tp900
Rp901
(I3
S'|'
p902
NNNI3
I1
I0
tp903
bS'KPN'
p904
tp905
Rp906
g1
(g13
S'\x08\x00\x00\x00\x00\x00\x00\x00'
p907
tp908
Rp909
sg1
(g2
(S'S3'
p910
I0
I1
tp911
Rp912
(I3
S'|'
p913
NNNI3
I1
I0
tp914
bS'DSA'
p915
tp916
Rp917
g1
(g13
S'\x08\x00\x00\x00\x00\x00\x00\x00'
p918
tp919
Rp920
sg1
(g2
(S'S3'
p921
I0
I1
tp922
Rp923
(I3
S'|'
p924
NNNI3
I1
I0
tp925
bS'HLZ'
p926
tp927
Rp928
g1
(g13
S'\x02\x00\x00\x00\x00\x00\x00\x00'
p929
tp930
Rp931
sg1
(g2
(S'S2'
p932
I0
I1
tp933
Rp934
(I3
S'|'
p935
NNNI2
I1
I0
tp936
bS'MB'
p937
tp938
Rp939
g1
(g13
S'!\x00\x00\x00\x00\x00\x00\x00'
p940
tp941
Rp942
sg1
(g2
(S'S3'
p943
I0
I1
tp944
Rp945
(I3
S'|'
p946
NNNI3
I1
I0
tp947
bS'CBJ'
p948
tp949
Rp950
g1
(g13
S'\x03\x00\x00\x00\x00\x00\x00\x00'
p951
tp952
Rp953
sg1
(g2
(S'S3'
p954
I0
I1
tp955
Rp956
(I3
S'|'
p957
NNNI3
I1
I0
tp958
bS'CBH'
p959
tp960
Rp961
g1
(g13
S'\x02\x00\x00\x00\x00\x00\x00\x00'
p962
tp963
Rp964
sg1
(g2
(S'S4'
p965
I0
I1
tp966
Rp967
(I3
S'|'
p968
NNNI4
I1
I0
tp969
bS'DEOS'
p970
tp971
Rp972
g1
(g13
S'\x0e\x00\x00\x00\x00\x00\x00\x00'
p973
tp974
Rp975
sg1
(g2
(S'S4'
p976
I0
I1
tp977
Rp978
(I3
S'|'
p979
NNNI4
I1
I0
tp980
bS'RUPC'
p981
tp982
Rp983
g1
(g13
S'\x04\x00\x00\x00\x00\x00\x00\x00'
p984
tp985
Rp986
sg1
(g2
(S'S2'
p987
I0
I1
tp988
Rp989
(I3
S'|'
p990
NNNI2
I1
I0
tp991
bS'MJ'
p992
tp993
Rp994
g1
(g13
S'\x10\x00\x00\x00\x00\x00\x00\x00'
p995
tp996
Rp997
sg1
(g2
(S'S3'
p998
I0
I1
tp999
Rp1000
(I3
S'|'
p1001
NNNI3
I1
I0
tp1002
bS'MXN'
p1003
tp1004
Rp1005
g1
(g13
S'\x0b\x00\x00\x00\x00\x00\x00\x00'
p1006
tp1007
Rp1008
sg1
(g2
(S'S4'
p1009
I0
I1
tp1010
Rp1011
(I3
S'|'
p1012
NNNI4
I1
I0
tp1013
bS'SKZR'
p1014
tp1015
Rp1016
g1
(g13
S'\r\x00\x00\x00\x00\x00\x00\x00'
p1017
tp1018
Rp1019
sg1
(g2
(S'S3'
p1020
I0
I1
tp1021
Rp1022
(I3
S'|'
p1023
NNNI3
I1
I0
tp1024
bS'KKN'
p1025
tp1026
Rp1027
g1
(g13
S'\x06\x00\x00\x00\x00\x00\x00\x00'
p1028
tp1029
Rp1030
sg1
(g2
(S'S3'
p1031
I0
I1
tp1032
Rp1033
(I3
S'|'
p1034
NNNI3
I1
I0
tp1035
bS'MXK'
p1036
tp1037
Rp1038
g1
(g13
S'\x03\x00\x00\x00\x00\x00\x00\x00'
p1039
tp1040
Rp1041
sg1
(g2
(S'S2'
p1042
I0
I1
tp1043
Rp1044
(I3
S'|'
p1045
NNNI2
I1
I0
tp1046
bS'MS'
p1047
tp1048
Rp1049
g1
(g13
S'\n\x00\x00\x00\x00\x00\x00\x00'
p1050
tp1051
Rp1052
sg1
(g2
(S'S4'
p1053
I0
I1
tp1054
Rp1055
(I3
S'|'
p1056
NNNI4
I1
I0
tp1057
bS'APDJ'
p1058
tp1059
Rp1060
g1
(g13
S'\x0b\x00\x00\x00\x00\x00\x00\x00'
p1061
tp1062
Rp1063
sg1
(g2
(S'S4'
p1064
I0
I1
tp1065
Rp1066
(I3
S'|'
p1067
NNNI4
I1
I0
tp1068
bS'MRPR'
p1069
tp1070
Rp1071
g1
(g13
S'\x03\x00\x00\x00\x00\x00\x00\x00'
p1072
tp1073
Rp1074
sg1
(g2
(S'S3'
p1075
I0
I1
tp1076
Rp1077
(I3
S'|'
p1078
NNNI3
I1
I0
tp1079
bS'NOQ'
p1080
tp1081
Rp1082
g1
(g13
S'\x06\x00\x00\x00\x00\x00\x00\x00'
p1083
tp1084
Rp1085
sg1
(g2
(S'S4'
p1086
I0
I1
tp1087
Rp1088
(I3
S'|'
p1089
NNNI4
I1
I0
tp1090
bS'PURI'
p1091
tp1092
Rp1093
g1
(g13
S'\x07\x00\x00\x00\x00\x00\x00\x00'
p1094
tp1095
Rp1096
sg1
(g2
(S'S3'
p1097
I0
I1
tp1098
Rp1099
(I3
S'|'
p1100
NNNI3
I1
I0
tp1101
bS'BZU'
p1102
tp1103
Rp1104
g1
(g13
S'\r\x00\x00\x00\x00\x00\x00\x00'
p1105
tp1106
Rp1107
sg1
(g2
(S'S3'
p1108
I0
I1
tp1109
Rp1110
(I3
S'|'
p1111
NNNI3
I1
I0
tp1112
bS'EKL'
p1113
tp1114
Rp1115
g1
(g13
S'\x02\x00\x00\x00\x00\x00\x00\x00'
p1116
tp1117
Rp1118
sg1
(g2
(S'S4'
p1119
I0
I1
tp1120
Rp1121
(I3
S'|'
p1122
NNNI4
I1
I0
tp1123
bS'VAPI'
p1124
tp1125
Rp1126
g1
(g13
S'\x11\x00\x00\x00\x00\x00\x00\x00'
p1127
tp1128
Rp1129
sg1
(g2
(S'S3'
p1130
I0
I1
tp1131
Rp1132
(I3
S'|'
p1133
NNNI3
I1
I0
tp1134
bS'DOA'
p1135
tp1136
Rp1137
g1
(g13
S'\x05\x00\x00\x00\x00\x00\x00\x00'
p1138
tp1139
Rp1140
sg1
(g2
(S'S3'
p1141
I0
I1
tp1142
Rp1143
(I3
S'|'
p1144
NNNI3
I1
I0
tp1145
bS'EKC'
p1146
tp1147
Rp1148
g1
(g13
S'\x02\x00\x00\x00\x00\x00\x00\x00'
p1149
tp1150
Rp1151
sg1
(g2
(S'S4'
p1152
I0
I1
tp1153
Rp1154
(I3
S'|'
p1155
NNNI4
I1
I0
tp1156
bS'GIMB'
p1157
tp1158
Rp1159
g1
(g13
S'\x05\x00\x00\x00\x00\x00\x00\x00'
p1160
tp1161
Rp1162
sg1
(g2
(S'S3'
p1163
I0
I1
tp1164
Rp1165
(I3
S'|'
p1166
NNNI3
I1
I0
tp1167
bS'BZG'
p1168
tp1169
Rp1170
g1
(g13
S'\x02\x00\x00\x00\x00\x00\x00\x00'
p1171
tp1172
Rp1173
sg1
(g2
(S'S2'
p1174
I0
I1
tp1175
Rp1176
(I3
S'|'
p1177
NNNI2
I1
I0
tp1178
bS'FA'
p1179
tp1180
Rp1181
g1
(g13
S'\x0b\x00\x00\x00\x00\x00\x00\x00'
p1182
tp1183
Rp1184
sg1
(g2
(S'S3'
p1185
I0
I1
tp1186
Rp1187
(I3
S'|'
p1188
NNNI3
I1
I0
tp1189
bS'KOJ'
p1190
tp1191
Rp1192
g1
(g13
S'\x05\x00\x00\x00\x00\x00\x00\x00'
p1193
tp1194
Rp1195
sg1
(g2
(S'S2'
p1196
I0
I1
tp1197
Rp1198
(I3
S'|'
p1199
NNNI2
I1
I0
tp1200
bS'FD'
p1201
tp1202
Rp1203
g1
(g13
S'\x13\x00\x00\x00\x00\x00\x00\x00'
p1204
tp1205
Rp1206
sg1
(g2
(S'S3'
p1207
I0
I1
tp1208
Rp1209
(I3
S'|'
p1210
NNNI3
I1
I0
tp1211
bS'AKN'
p1212
tp1213
Rp1214
g1
(g13
S'\x04\x00\x00\x00\x00\x00\x00\x00'
p1215
tp1216
Rp1217
sg1
(g2
(S'S3'
p1218
I0
I1
tp1219
Rp1220
(I3
S'|'
p1221
NNNI3
I1
I0
tp1222
bS'BZA'
p1223
tp1224
Rp1225
g1
(g13
S'$\x00\x00\x00\x00\x00\x00\x00'
p1226
tp1227
Rp1228
sg1
(g2
(S'S3'
p1229
I0
I1
tp1230
Rp1231
(I3
S'|'
p1232
NNNI3
I1
I0
tp1233
bS'CTC'
p1234
tp1235
Rp1236
g1
(g13
S'\x14\x00\x00\x00\x00\x00\x00\x00'
p1237
tp1238
Rp1239
sg1
(g2
(S'S3'
p1240
I0
I1
tp1241
Rp1242
(I3
S'|'
p1243
NNNI3
I1
I0
tp1244
bS'DOS'
p1245
tp1246
Rp1247
g1
(g13
S'\x07\x00\x00\x00\x00\x00\x00\x00'
p1248
tp1249
Rp1250
sg1
(g2
(S'S3'
p1251
I0
I1
tp1252
Rp1253
(I3
S'|'
p1254
NNNI3
I1
I0
tp1255
bS'EKR'
p1256
tp1257
Rp1258
g1
(g13
S'\x02\x00\x00\x00\x00\x00\x00\x00'
p1259
tp1260
Rp1261
sg1
(g2
(S'S3'
p1262
I0
I1
tp1263
Rp1264
(I3
S'|'
p1265
NNNI3
I1
I0
tp1266
bS'MDJ'
p1267
tp1268
Rp1269
g1
(g13
S'\x02\x00\x00\x00\x00\x00\x00\x00'
p1270
tp1271
Rp1272
sg1
(g2
(S'S4'
p1273
I0
I1
tp1274
Rp1275
(I3
S'|'
p1276
NNNI4
I1
I0
tp1277
bS'KEPR'
p1278
tp1279
Rp1280
g1
(g13
S'\x03\x00\x00\x00\x00\x00\x00\x00'
p1281
tp1282
Rp1283
sg1
(g2
(S'S3'
p1284
I0
I1
tp1285
Rp1286
(I3
S'|'
p1287
NNNI3
I1
I0
tp1288
bS'JSG'
p1289
tp1290
Rp1291
g1
(g13
S'\x10\x00\x00\x00\x00\x00\x00\x00'
p1292
tp1293
Rp1294
sg1
(g2
(S'S3'
p1295
I0
I1
tp1296
Rp1297
(I3
S'|'
p1298
NNNI3
I1
I0
tp1299
bS'MDN'
p1300
tp1301
Rp1302
g1
(g13
S'\t\x00\x00\x00\x00\x00\x00\x00'
p1303
tp1304
Rp1305
sg1
(g2
(S'S3'
p1306
I0
I1
tp1307
Rp1308
(I3
S'|'
p1309
NNNI3
I1
I0
tp1310
bS'KOO'
p1311
tp1312
Rp1313
g1
(g13
S'\x04\x00\x00\x00\x00\x00\x00\x00'
p1314
tp1315
Rp1316
sg1
(g2
(S'S3'
p1317
I0
I1
tp1318
Rp1319
(I3
S'|'
p1320
NNNI3
I1
I0
tp1321
bS'BST'
p1322
tp1323
Rp1324
g1
(g13
S'\t\x00\x00\x00\x00\x00\x00\x00'
p1325
tp1326
Rp1327
sg1
(g2
(S'S3'
p1328
I0
I1
tp1329
Rp1330
(I3
S'|'
p1331
NNNI3
I1
I0
tp1332
bS'JSM'
p1333
tp1334
Rp1335
g1
(g13
S'\x03\x00\x00\x00\x00\x00\x00\x00'
p1336
tp1337
Rp1338
sg1
(g2
(S'S4'
p1339
I0
I1
tp1340
Rp1341
(I3
S'|'
p1342
NNNI4
I1
I0
tp1343
bS'BRYA'
p1344
tp1345
Rp1346
g1
(g13
S'\n\x00\x00\x00\x00\x00\x00\x00'
p1347
tp1348
Rp1349
sg1
(g2
(S'S3'
p1350
I0
I1
tp1351
Rp1352
(I3
S'|'
p1353
NNNI3
I1
I0
tp1354
bS'BAQ'
p1355
tp1356
Rp1357
g1
(g13
S'\x0c\x00\x00\x00\x00\x00\x00\x00'
p1358
tp1359
Rp1360
sg1
(g2
(S'S3'
p1361
I0
I1
tp1362
Rp1363
(I3
S'|'
p1364
NNNI3
I1
I0
tp1365
bS'MQS'
p1366
tp1367
Rp1368
g1
(g13
S'\x02\x00\x00\x00\x00\x00\x00\x00'
p1369
tp1370
Rp1371
sg1
(g2
(S'S3'
p1372
I0
I1
tp1373
Rp1374
(I3
S'|'
p1375
NNNI3
I1
I0
tp1376
bS'BSL'
p1377
tp1378
Rp1379
g1
(g13
S'\x1d\x00\x00\x00\x00\x00\x00\x00'
p1380
tp1381
Rp1382
sg1
(g2
(S'S3'
p1383
I0
I1
tp1384
Rp1385
(I3
S'|'
p1386
NNNI3
I1
I0
tp1387
bS'GGA'
p1388
tp1389
Rp1390
g1
(g13
S'\x04\x00\x00\x00\x00\x00\x00\x00'
p1391
tp1392
Rp1393
sg1
(g2
(S'S3'
p1394
I0
I1
tp1395
Rp1396
(I3
S'|'
p1397
NNNI3
I1
I0
tp1398
bS'GGC'
p1399
tp1400
Rp1401
g1
(g13
S'\x0b\x00\x00\x00\x00\x00\x00\x00'
p1402
tp1403
Rp1404
sg1
(g2
(S'S3'
p1405
I0
I1
tp1406
Rp1407
(I3
S'|'
p1408
NNNI3
I1
I0
tp1409
bS'BSE'
p1410
tp1411
Rp1412
g1
(g13
S'\x07\x00\x00\x00\x00\x00\x00\x00'
p1413
tp1414
Rp1415
sg1
(g2
(S'S3'
p1416
I0
I1
tp1417
Rp1418
(I3
S'|'
p1419
NNNI3
I1
I0
tp1420
bS'MDP'
p1421
tp1422
Rp1423
g1
(g13
S'\r\x00\x00\x00\x00\x00\x00\x00'
p1424
tp1425
Rp1426
sg1
(g2
(S'S3'
p1427
I0
I1
tp1428
Rp1429
(I3
S'|'
p1430
NNNI3
I1
I0
tp1431
bS'GGN'
p1432
tp1433
Rp1434
g1
(g13
S'\x0c\x00\x00\x00\x00\x00\x00\x00'
p1435
tp1436
Rp1437
sg1
(g2
(S'S3'
p1438
I0
I1
tp1439
Rp1440
(I3
S'|'
p1441
NNNI3
I1
I0
tp1442
bS'MRR'
p1443
tp1444
Rp1445
g1
(g13
S'\x06\x00\x00\x00\x00\x00\x00\x00'
p1446
tp1447
Rp1448
sg1
(g2
(S'S3'
p1449
I0
I1
tp1450
Rp1451
(I3
S'|'
p1452
NNNI3
I1
I0
tp1453
bS'BSB'
p1454
tp1455
Rp1456
g1
(g13
S'&\x00\x00\x00\x00\x00\x00\x00'
p1457
tp1458
Rp1459
sg1
(g2
(S'S3'
p1460
I0
I1
tp1461
Rp1462
(I3
S'|'
p1463
NNNI3
I1
I0
tp1464
bS'GGJ'
p1465
tp1466
Rp1467
g1
(g13
S'\x03\x00\x00\x00\x00\x00\x00\x00'
p1468
tp1469
Rp1470
sg1
(g2
(S'S3'
p1471
I0
I1
tp1472
Rp1473
(I3
S'|'
p1474
NNNI3
I1
I0
tp1475
bS'JER'
p1476
tp1477
Rp1478
g1
(g13
S'\x07\x00\x00\x00\x00\x00\x00\x00'
p1479
tp1480
Rp1481
sg1
(g2
(S'S3'
p1482
I0
I1
tp1483
Rp1484
(I3
S'|'
p1485
NNNI3
I1
I0
tp1486
bS'AUB'
p1487
tp1488
Rp1489
g1
(g13
S'\x04\x00\x00\x00\x00\x00\x00\x00'
p1490
tp1491
Rp1492
sg1
(g2
(S'S3'
p1493
I0
I1
tp1494
Rp1495
(I3
S'|'
p1496
NNNI3
I1
I0
tp1497
bS'LTT'
p1498
tp1499
Rp1500
g1
(g13
S'\n\x00\x00\x00\x00\x00\x00\x00'
p1501
tp1502
Rp1503
sg1
(g2
(S'S3'
p1504
I0
I1
tp1505
Rp1506
(I3
S'|'
p1507
NNNI3
I1
I0
tp1508
bS'KQR'
p1509
tp1510
Rp1511
g1
(g13
S'\x0b\x00\x00\x00\x00\x00\x00\x00'
p1512
tp1513
Rp1514
sg1
(g2
(S'S3'
p1515
I0
I1
tp1516
Rp1517
(I3
S'|'
p1518
NNNI3
I1
I0
tp1519
bS'MVI'
p1520
tp1521
Rp1522
g1
(g13
S'\x02\x00\x00\x00\x00\x00\x00\x00'
p1523
tp1524
Rp1525
sg1
(g2
(S'S4'
p1526
I0
I1
tp1527
Rp1528
(I3
S'|'
p1529
NNNI4
I1
I0
tp1530
bS'RPAR'
p1531
tp1532
Rp1533
g1
(g13
S'\t\x00\x00\x00\x00\x00\x00\x00'
p1534
tp1535
Rp1536
sg1
(g2
(S'S3'
p1537
I0
I1
tp1538
Rp1539
(I3
S'|'
p1540
NNNI3
I1
I0
tp1541
bS'SBP'
p1542
tp1543
Rp1544
g1
(g13
S'\r\x00\x00\x00\x00\x00\x00\x00'
p1545
tp1546
Rp1547
sg1
(g2
(S'S3'
p1548
I0
I1
tp1549
Rp1550
(I3
S'|'
p1551
NNNI3
I1
I0
tp1552
bS'ALD'
p1553
tp1554
Rp1555
g1
(g13
S'"\x00\x00\x00\x00\x00\x00\x00'
p1556
tp1557
Rp1558
sg1
(g2
(S'S2'
p1559
I0
I1
tp1560
Rp1561
(I3
S'|'
p1562
NNNI2
I1
I0
tp1563
bS'SV'
p1564
tp1565
Rp1566
g1
(g13
S'\t\x00\x00\x00\x00\x00\x00\x00'
p1567
tp1568
Rp1569
sg1
(g2
(S'S3'
p1570
I0
I1
tp1571
Rp1572
(I3
S'|'
p1573
NNNI3
I1
I0
tp1574
bS'MMR'
p1575
tp1576
Rp1577
g1
(g13
S'\x18\x00\x00\x00\x00\x00\x00\x00'
p1578
tp1579
Rp1580
sg1
(g2
(S'S3'
p1581
I0
I1
tp1582
Rp1583
(I3
S'|'
p1584
NNNI3
I1
I0
tp1585
bS'SBB'
p1586
tp1587
Rp1588
g1
(g13
S'\x08\x00\x00\x00\x00\x00\x00\x00'
p1589
tp1590
Rp1591
sg1
(g2
(S'S3'
p1592
I0
I1
tp1593
Rp1594
(I3
S'|'
p1595
NNNI3
I1
I0
tp1596
bS'MML'
p1597
tp1598
Rp1599
g1
(g13
S'\x05\x00\x00\x00\x00\x00\x00\x00'
p1600
tp1601
Rp1602
sg1
(g2
(S'S2'
p1603
I0
I1
tp1604
Rp1605
(I3
S'|'
p1606
NNNI2
I1
I0
tp1607
bS'SI'
p1608
tp1609
Rp1610
g1
(g13
S'\x03\x00\x00\x00\x00\x00\x00\x00'
p1611
tp1612
Rp1613
sg1
(g2
(S'S3'
p1614
I0
I1
tp1615
Rp1616
(I3
S'|'
p1617
NNNI3
I1
I0
tp1618
bS'TOI'
p1619
tp1620
Rp1621
g1
(g13
S'\x02\x00\x00\x00\x00\x00\x00\x00'
p1622
tp1623
Rp1624
sg1
(g2
(S'S3'
p1625
I0
I1
tp1626
Rp1627
(I3
S'|'
p1628
NNNI3
I1
I0
tp1629
bS'JJK'
p1630
tp1631
Rp1632
g1
(g13
S'\x04\x00\x00\x00\x00\x00\x00\x00'
p1633
tp1634
Rp1635
sg1
(g2
(S'S3'
p1636
I0
I1
tp1637
Rp1638
(I3
S'|'
p1639
NNNI3
I1
I0
tp1640
bS'SBG'
p1641
tp1642
Rp1643
g1
(g13
S'\t\x00\x00\x00\x00\x00\x00\x00'
p1644
tp1645
Rp1646
sg1
(g2
(S'S4'
p1647
I0
I1
tp1648
Rp1649
(I3
S'|'
p1650
NNNI4
I1
I0
tp1651
bS'NPNR'
p1652
tp1653
Rp1654
g1
(g13
S'\x04\x00\x00\x00\x00\x00\x00\x00'
p1655
tp1656
Rp1657
sg1
(g2
(S'S3'
p1658
I0
I1
tp1659
Rp1660
(I3
S'|'
p1661
NNNI3
I1
I0
tp1662
bS'ALY'
p1663
tp1664
Rp1665
g1
(g13
S'\x04\x00\x00\x00\x00\x00\x00\x00'
p1666
tp1667
Rp1668
sg1
(g2
(S'S3'
p1669
I0
I1
tp1670
Rp1671
(I3
S'|'
p1672
NNNI3
I1
I0
tp1673
bS'AII'
p1674
tp1675
Rp1676
g1
(g13
S'\x15\x00\x00\x00\x00\x00\x00\x00'
p1677
tp1678
Rp1679
sg1
(g2
(S'S4'
p1680
I0
I1
tp1681
Rp1682
(I3
S'|'
p1683
NNNI4
I1
I0
tp1684
bS'JUDW'
p1685
tp1686
Rp1687
g1
(g13
S'\x05\x00\x00\x00\x00\x00\x00\x00'
p1688
tp1689
Rp1690
sg1
(g2
(S'S3'
p1691
I0
I1
tp1692
Rp1693
(I3
S'|'
p1694
NNNI3
I1
I0
tp1695
bS'SBO'
p1696
tp1697
Rp1698
g1
(g13
S'\x03\x00\x00\x00\x00\x00\x00\x00'
p1699
tp1700
Rp1701
sg1
(g2
(S'S3'
p1702
I0
I1
tp1703
Rp1704
(I3
S'|'
p1705
NNNI3
I1
I0
tp1706
bS'LMG'
p1707
tp1708
Rp1709
g1
(g13
S'\x08\x00\x00\x00\x00\x00\x00\x00'
p1710
tp1711
Rp1712
sg1
(g2
(S'S3'
p1713
I0
I1
tp1714
Rp1715
(I3
S'|'
p1716
NNNI3
I1
I0
tp1717
bS'DPU'
p1718
tp1719
Rp1720
g1
(g13
S'\x04\x00\x00\x00\x00\x00\x00\x00'
p1721
tp1722
Rp1723
sg1
(g2
(S'S3'
p1724
I0
I1
tp1725
Rp1726
(I3
S'|'
p1727
NNNI3
I1
I0
tp1728
bS'BAU'
p1729
tp1730
Rp1731
g1
(g13
S'\x06\x00\x00\x00\x00\x00\x00\x00'
p1732
tp1733
Rp1734
sg1
(g2
(S'S3'
p1735
I0
I1
tp1736
Rp1737
(I3
S'|'
p1738
NNNI3
I1
I0
tp1739
bS'DPR'
p1740
tp1741
Rp1742
g1
(g13
S'\x05\x00\x00\x00\x00\x00\x00\x00'
p1743
tp1744
Rp1745
sg1
(g2
(S'S3'
p1746
I0
I1
tp1747
Rp1748
(I3
S'|'
p1749
NNNI3
I1
I0
tp1750
bS'BAP'
p1751
tp1752
Rp1753
g1
(g13
S'\n\x00\x00\x00\x00\x00\x00\x00'
p1754
tp1755
Rp1756
sg1
(g2
(S'S4'
p1757
I0
I1
tp1758
Rp1759
(I3
S'|'
p1760
NNNI4
I1
I0
tp1761
bS'GLPT'
p1762
tp1763
Rp1764
g1
(g13
S'\x04\x00\x00\x00\x00\x00\x00\x00'
p1765
tp1766
Rp1767
sg1
(g2
(S'S3'
p1768
I0
I1
tp1769
Rp1770
(I3
S'|'
p1771
NNNI3
I1
I0
tp1772
bS'CAR'
p1773
tp1774
Rp1775
g1
(g13
S'\x12\x00\x00\x00\x00\x00\x00\x00'
p1776
tp1777
Rp1778
sg1
(g2
(S'S3'
p1779
I0
I1
tp1780
Rp1781
(I3
S'|'
p1782
NNNI3
I1
I0
tp1783
bS'MKP'
p1784
tp1785
Rp1786
g1
(g13
S'\x0f\x00\x00\x00\x00\x00\x00\x00'
p1787
tp1788
Rp1789
sg1
(g2
(S'S4'
p1790
I0
I1
tp1791
Rp1792
(I3
S'|'
p1793
NNNI4
I1
I0
tp1794
bS'BNCE'
p1795
tp1796
Rp1797
g1
(g13
S'\x0b\x00\x00\x00\x00\x00\x00\x00'
p1798
tp1799
Rp1800
sg1
(g2
(S'S4'
p1801
I0
I1
tp1802
Rp1803
(I3
S'|'
p1804
NNNI4
I1
I0
tp1805
bS'SJNP'
p1806
tp1807
Rp1808
g1
(g13
S'\x05\x00\x00\x00\x00\x00\x00\x00'
p1809
tp1810
Rp1811
sg1
(g2
(S'S4'
p1812
I0
I1
tp1813
Rp1814
(I3
S'|'
p1815
NNNI4
I1
I0
tp1816
bS'SYWN'
p1817
tp1818
Rp1819
g1
(g13
S'\x05\x00\x00\x00\x00\x00\x00\x00'
p1820
tp1821
Rp1822
sg1
(g2
(S'S4'
p1823
I0
I1
tp1824
Rp1825
(I3
S'|'
p1826
NNNI4
I1
I0
tp1827
bS'HAPA'
p1828
tp1829
Rp1830
g1
(g13
S'\x05\x00\x00\x00\x00\x00\x00\x00'
p1831
tp1832
Rp1833
sg1
(g2
(S'S3'
p1834
I0
I1
tp1835
Rp1836
(I3
S'|'
p1837
NNNI3
I1
I0
tp1838
bS'DPA'
p1839
tp1840
Rp1841
g1
(g13
S'\x05\x00\x00\x00\x00\x00\x00\x00'
p1842
tp1843
Rp1844
sg1
(g2
(S'S4'
p1845
I0
I1
tp1846
Rp1847
(I3
S'|'
p1848
NNNI4
I1
I0
tp1849
bS'SRID'
p1850
tp1851
Rp1852
g1
(g13
S'\x07\x00\x00\x00\x00\x00\x00\x00'
p1853
tp1854
Rp1855
sg1
(g2
(S'S3'
p1856
I0
I1
tp1857
Rp1858
(I3
S'|'
p1859
NNNI3
I1
I0
tp1860
bS'MGS'
p1861
tp1862
Rp1863
g1
(g13
S"'\x00\x00\x00\x00\x00\x00\x00"
p1864
tp1865
Rp1866
sg1
(g2
(S'S2'
p1867
I0
I1
tp1868
Rp1869
(I3
S'|'
p1870
NNNI2
I1
I0
tp1871
bS'GP'
p1872
tp1873
Rp1874
g1
(g13
S'\x08\x00\x00\x00\x00\x00\x00\x00'
p1875
tp1876
Rp1877
sg1
(g2
(S'S3'
p1878
I0
I1
tp1879
Rp1880
(I3
S'|'
p1881
NNNI3
I1
I0
tp1882
bS'NHH'
p1883
tp1884
Rp1885
g1
(g13
S'\x06\x00\x00\x00\x00\x00\x00\x00'
p1886
tp1887
Rp1888
sg1
(g2
(S'S4'
p1889
I0
I1
tp1890
Rp1891
(I3
S'|'
p1892
NNNI4
I1
I0
tp1893
bS'BNLW'
p1894
tp1895
Rp1896
g1
(g13
S'\t\x00\x00\x00\x00\x00\x00\x00'
p1897
tp1898
Rp1899
sg1
(g2
(S'S3'
p1900
I0
I1
tp1901
Rp1902
(I3
S'|'
p1903
NNNI3
I1
I0
tp1904
bS'NHT'
p1905
tp1906
Rp1907
g1
(g13
S'\x07\x00\x00\x00\x00\x00\x00\x00'
p1908
tp1909
Rp1910
sg1
(g2
(S'S2'
p1911
I0
I1
tp1912
Rp1913
(I3
S'|'
p1914
NNNI2
I1
I0
tp1915
bS'LS'
p1916
tp1917
Rp1918
g1
(g13
S'\x04\x00\x00\x00\x00\x00\x00\x00'
p1919
tp1920
Rp1921
sg1
(g2
(S'S3'
p1922
I0
I1
tp1923
Rp1924
(I3
S'|'
p1925
NNNI3
I1
I0
tp1926
bS'DYD'
p1927
tp1928
Rp1929
g1
(g13
S'\x06\x00\x00\x00\x00\x00\x00\x00'
p1930
tp1931
Rp1932
sg1
(g2
(S'S3'
p1933
I0
I1
tp1934
Rp1935
(I3
S'|'
p1936
NNNI3
I1
I0
tp1937
bS'TBM'
p1938
tp1939
Rp1940
g1
(g13
S'\x05\x00\x00\x00\x00\x00\x00\x00'
p1941
tp1942
Rp1943
sg1
(g2
(S'S3'
p1944
I0
I1
tp1945
Rp1946
(I3
S'|'
p1947
NNNI3
I1
I0
tp1948
bS'HIL'
p1949
tp1950
Rp1951
g1
(g13
S'\x02\x00\x00\x00\x00\x00\x00\x00'
p1952
tp1953
Rp1954
sg1
(g2
(S'S4'
p1955
I0
I1
tp1956
Rp1957
(I3
S'|'
p1958
NNNI4
I1
I0
tp1959
bS'JSME'
p1960
tp1961
Rp1962
g1
(g13
S'\x11\x00\x00\x00\x00\x00\x00\x00'
p1963
tp1964
Rp1965
sg1
(g2
(S'S3'
p1966
I0
I1
tp1967
Rp1968
(I3
S'|'
p1969
NNNI3
I1
I0
tp1970
bS'STA'
p1971
tp1972
Rp1973
g1
(g13
S'\x12\x00\x00\x00\x00\x00\x00\x00'
p1974
tp1975
Rp1976
sg1
(g2
(S'S3'
p1977
I0
I1
tp1978
Rp1979
(I3
S'|'
p1980
NNNI3
I1
I0
tp1981
bS'VPT'
p1982
tp1983
Rp1984
g1
(g13
S'\t\x00\x00\x00\x00\x00\x00\x00'
p1985
tp1986
Rp1987
sg1
(g2
(S'S3'
p1988
I0
I1
tp1989
Rp1990
(I3
S'|'
p1991
NNNI3
I1
I0
tp1992
bS'STL'
p1993
tp1994
Rp1995
g1
(g13
S'\x05\x00\x00\x00\x00\x00\x00\x00'
p1996
tp1997
Rp1998
sg1
(g2
(S'S3'
p1999
I0
I1
tp2000
Rp2001
(I3
S'|'
p2002
NNNI3
I1
I0
tp2003
bS'STN'
p2004
tp2005
Rp2006
g1
(g13
S'\t\x00\x00\x00\x00\x00\x00\x00'
p2007
tp2008
Rp2009
sg1
(g2
(S'S3'
p2010
I0
I1
tp2011
Rp2012
(I3
S'|'
p2013
NNNI3
I1
I0
tp2014
bS'KTQ'
p2015
tp2016
Rp2017
g1
(g13
S'\x03\x00\x00\x00\x00\x00\x00\x00'
p2018
tp2019
Rp2020
sg1
(g2
(S'S3'
p2021
I0
I1
tp2022
Rp2023
(I3
S'|'
p2024
NNNI3
I1
I0
tp2025
bS'ABP'
p2026
tp2027
Rp2028
g1
(g13
S'\x07\x00\x00\x00\x00\x00\x00\x00'
p2029
tp2030
Rp2031
sg1
(g2
(S'S3'
p2032
I0
I1
tp2033
Rp2034
(I3
S'|'
p2035
NNNI3
I1
I0
tp2036
bS'ABR'
p2037
tp2038
Rp2039
g1
(g13
S'\x0e\x00\x00\x00\x00\x00\x00\x00'
p2040
tp2041
Rp2042
sg1
(g2
(S'S3'
p2043
I0
I1
tp2044
Rp2045
(I3
S'|'
p2046
NNNI3
I1
I0
tp2047
bS'ABS'
p2048
tp2049
Rp2050
g1
(g13
S'\x07\x00\x00\x00\x00\x00\x00\x00'
p2051
tp2052
Rp2053
sg1
(g2
(S'S3'
p2054
I0
I1
tp2055
Rp2056
(I3
S'|'
p2057
NNNI3
I1
I0
tp2058
bS'HGH'
p2059
tp2060
Rp2061
g1
(g13
S'\x05\x00\x00\x00\x00\x00\x00\x00'
p2062
tp2063
Rp2064
sg1
(g2
(S'S3'
p2065
I0
I1
tp2066
Rp2067
(I3
S'|'
p2068
NNNI3
I1
I0
tp2069
bS'KTE'
p2070
tp2071
Rp2072
g1
(g13
S'\x15\x00\x00\x00\x00\x00\x00\x00'
p2073
tp2074
Rp2075
sg1
(g2
(S'S4'
p2076
I0
I1
tp2077
Rp2078
(I3
S'|'
p2079
NNNI4
I1
I0
tp2080
bS'BANO'
p2081
tp2082
Rp2083
g1
(g13
S'\x05\x00\x00\x00\x00\x00\x00\x00'
p2084
tp2085
Rp2086
sg1
(g2
(S'S3'
p2087
I0
I1
tp2088
Rp2089
(I3
S'|'
p2090
NNNI3
I1
I0
tp2091
bS'NZM'
p2092
tp2093
Rp2094
g1
(g13
S'\x1c\x00\x00\x00\x00\x00\x00\x00'
p2095
tp2096
Rp2097
sg1
(g2
(S'S4'
p2098
I0
I1
tp2099
Rp2100
(I3
S'|'
p2101
NNNI4
I1
I0
tp2102
bS'JIND'
p2103
tp2104
Rp2105
g1
(g13
S'\x08\x00\x00\x00\x00\x00\x00\x00'
p2106
tp2107
Rp2108
sg1
(g2
(S'S4'
p2109
I0
I1
tp2110
Rp2111
(I3
S'|'
p2112
NNNI4
I1
I0
tp2113
bS'PNME'
p2114
tp2115
Rp2116
g1
(g13
S'\x07\x00\x00\x00\x00\x00\x00\x00'
p2117
tp2118
Rp2119
sg1
(g2
(S'S4'
p2120
I0
I1
tp2121
Rp2122
(I3
S'|'
p2123
NNNI4
I1
I0
tp2124
bS'MLPR'
p2125
tp2126
Rp2127
g1
(g13
S'\x03\x00\x00\x00\x00\x00\x00\x00'
p2128
tp2129
Rp2130
sg1
(g2
(S'S3'
p2131
I0
I1
tp2132
Rp2133
(I3
S'|'
p2134
NNNI3
I1
I0
tp2135
bS'PNP'
p2136
tp2137
Rp2138
g1
(g13
S'\x10\x00\x00\x00\x00\x00\x00\x00'
p2139
tp2140
Rp2141
sg1
(g2
(S'S3'
p2142
I0
I1
tp2143
Rp2144
(I3
S'|'
p2145
NNNI3
I1
I0
tp2146
bS'BHC'
p2147
tp2148
Rp2149
g1
(g13
S'\x0c\x00\x00\x00\x00\x00\x00\x00'
p2150
tp2151
Rp2152
sg1
(g2
(S'S4'
p2153
I0
I1
tp2154
Rp2155
(I3
S'|'
p2156
NNNI4
I1
I0
tp2157
bS'NLDM'
p2158
tp2159
Rp2160
g1
(g13
S'\x04\x00\x00\x00\x00\x00\x00\x00'
p2161
tp2162
Rp2163
sg1
(g2
(S'S4'
p2164
I0
I1
tp2165
Rp2166
(I3
S'|'
p2167
NNNI4
I1
I0
tp2168
bS'BINA'
p2169
tp2170
Rp2171
g1
(g13
S'\x1b\x00\x00\x00\x00\x00\x00\x00'
p2172
tp2173
Rp2174
sg1
(g2
(S'S3'
p2175
I0
I1
tp2176
Rp2177
(I3
S'|'
p2178
NNNI3
I1
I0
tp2179
bS'OGL'
p2180
tp2181
Rp2182
g1
(g13
S'\x0f\x00\x00\x00\x00\x00\x00\x00'
p2183
tp2184
Rp2185
sg1
(g2
(S'S3'
p2186
I0
I1
tp2187
Rp2188
(I3
S'|'
p2189
NNNI3
I1
I0
tp2190
bS'PNK'
p2191
tp2192
Rp2193
g1
(g13
S'\x06\x00\x00\x00\x00\x00\x00\x00'
p2194
tp2195
Rp2196
sg1
(g2
(S'S3'
p2197
I0
I1
tp2198
Rp2199
(I3
S'|'
p2200
NNNI3
I1
I0
tp2201
bS'BHP'
p2202
tp2203
Rp2204
g1
(g13
S'\x0f\x00\x00\x00\x00\x00\x00\x00'
p2205
tp2206
Rp2207
sg1
(g2
(S'S3'
p2208
I0
I1
tp2209
Rp2210
(I3
S'|'
p2211
NNNI3
I1
I0
tp2212
bS'BHS'
p2213
tp2214
Rp2215
g1
(g13
S'\x0c\x00\x00\x00\x00\x00\x00\x00'
p2216
tp2217
Rp2218
sg1
(g2
(S'S3'
p2219
I0
I1
tp2220
Rp2221
(I3
S'|'
p2222
NNNI3
I1
I0
tp2223
bS'PNE'
p2224
tp2225
Rp2226
g1
(g13
S'\x04\x00\x00\x00\x00\x00\x00\x00'
p2227
tp2228
Rp2229
sg1
(g2
(S'S4'
p2230
I0
I1
tp2231
Rp2232
(I3
S'|'
p2233
NNNI4
I1
I0
tp2234
bS'DRTP'
p2235
tp2236
Rp2237
g1
(g13
S'\x02\x00\x00\x00\x00\x00\x00\x00'
p2238
tp2239
Rp2240
sg1
(g2
(S'S3'
p2241
I0
I1
tp2242
Rp2243
(I3
S'|'
p2244
NNNI3
I1
I0
tp2245
bS'MIH'
p2246
tp2247
Rp2248
g1
(g13
S'\x02\x00\x00\x00\x00\x00\x00\x00'
p2249
tp2250
Rp2251
sg1
(g2
(S'S3'
p2252
I0
I1
tp2253
Rp2254
(I3
S'|'
p2255
NNNI3
I1
I0
tp2256
bS'ZNA'
p2257
tp2258
Rp2259
g1
(g13
S'\x06\x00\x00\x00\x00\x00\x00\x00'
p2260
tp2261
Rp2262
sg1
(g2
(S'S3'
p2263
I0
I1
tp2264
Rp2265
(I3
S'|'
p2266
NNNI3
I1
I0
tp2267
bS'MIL'
p2268
tp2269
Rp2270
g1
(g13
S'\x05\x00\x00\x00\x00\x00\x00\x00'
p2271
tp2272
Rp2273
sg1
(g2
(S'S3'
p2274
I0
I1
tp2275
Rp2276
(I3
S'|'
p2277
NNNI3
I1
I0
tp2278
bS'GHR'
p2279
tp2280
Rp2281
g1
(g13
S'\x05\x00\x00\x00\x00\x00\x00\x00'
p2282
tp2283
Rp2284
sg1
(g2
(S'S3'
p2285
I0
I1
tp2286
Rp2287
(I3
S'|'
p2288
NNNI3
I1
I0
tp2289
bS'SOM'
p2290
tp2291
Rp2292
g1
(g13
S'\x02\x00\x00\x00\x00\x00\x00\x00'
p2293
tp2294
Rp2295
sg1
(g2
(S'S4'
p2296
I0
I1
tp2297
Rp2298
(I3
S'|'
p2299
NNNI4
I1
I0
tp2300
bS'DURE'
p2301
tp2302
Rp2303
g1
(g13
S'\x05\x00\x00\x00\x00\x00\x00\x00'
p2304
tp2305
Rp2306
sg1
(g2
(S'S3'
p2307
I0
I1
tp2308
Rp2309
(I3
S'|'
p2310
NNNI3
I1
I0
tp2311
bS'DKZ'
p2312
tp2313
Rp2314
g1
(g13
S'\x04\x00\x00\x00\x00\x00\x00\x00'
p2315
tp2316
Rp2317
sg1
(g2
(S'S3'
p2318
I0
I1
tp2319
Rp2320
(I3
S'|'
p2321
NNNI3
I1
I0
tp2322
bS'GHY'
p2323
tp2324
Rp2325
g1
(g13
S'\r\x00\x00\x00\x00\x00\x00\x00'
p2326
tp2327
Rp2328
sg1
(g2
(S'S3'
p2329
I0
I1
tp2330
Rp2331
(I3
S'|'
p2332
NNNI3
I1
I0
tp2333
bS'MBA'
p2334
tp2335
Rp2336
g1
(g13
S'\x07\x00\x00\x00\x00\x00\x00\x00'
p2337
tp2338
Rp2339
sg1
(g2
(S'S3'
p2340
I0
I1
tp2341
Rp2342
(I3
S'|'
p2343
NNNI3
I1
I0
tp2344
bS'GHD'
p2345
tp2346
Rp2347
g1
(g13
S'\t\x00\x00\x00\x00\x00\x00\x00'
p2348
tp2349
Rp2350
sg1
(g2
(S'S3'
p2351
I0
I1
tp2352
Rp2353
(I3
S'|'
p2354
NNNI3
I1
I0
tp2355
bS'MUV'
p2356
tp2357
Rp2358
g1
(g13
S'\x05\x00\x00\x00\x00\x00\x00\x00'
p2359
tp2360
Rp2361
sg1
(g2
(S'S4'
p2362
I0
I1
tp2363
Rp2364
(I3
S'|'
p2365
NNNI4
I1
I0
tp2366
bS'ROZA'
p2367
tp2368
Rp2369
g1
(g13
S'\x08\x00\x00\x00\x00\x00\x00\x00'
p2370
tp2371
Rp2372
sg1
(g2
(S'S3'
p2373
I0
I1
tp2374
Rp2375
(I3
S'|'
p2376
NNNI3
I1
I0
tp2377
bS'THE'
p2378
tp2379
Rp2380
g1
(g13
S'\x02\x00\x00\x00\x00\x00\x00\x00'
p2381
tp2382
Rp2383
sg1
(g2
(S'S3'
p2384
I0
I1
tp2385
Rp2386
(I3
S'|'
p2387
NNNI3
I1
I0
tp2388
bS'JOP'
p2389
tp2390
Rp2391
g1
(g13
S'\x07\x00\x00\x00\x00\x00\x00\x00'
p2392
tp2393
Rp2394
sg1
(g2
(S'S2'
p2395
I0
I1
tp2396
Rp2397
(I3
S'|'
p2398
NNNI2
I1
I0
tp2399
bS'RV'
p2400
tp2401
Rp2402
g1
(g13
S'\x05\x00\x00\x00\x00\x00\x00\x00'
p2403
tp2404
Rp2405
sg1
(g2
(S'S3'
p2406
I0
I1
tp2407
Rp2408
(I3
S'|'
p2409
NNNI3
I1
I0
tp2410
bS'SAN'
p2411
tp2412
Rp2413
g1
(g13
S'\x08\x00\x00\x00\x00\x00\x00\x00'
p2414
tp2415
Rp2416
sg1
(g2
(S'S3'
p2417
I0
I1
tp2418
Rp2419
(I3
S'|'
p2420
NNNI3
I1
I0
tp2421
bS'PGW'
p2422
tp2423
Rp2424
g1
(g13
S'\t\x00\x00\x00\x00\x00\x00\x00'
p2425
tp2426
Rp2427
sg1
(g2
(S'S3'
p2428
I0
I1
tp2429
Rp2430
(I3
S'|'
p2431
NNNI3
I1
I0
tp2432
bS'MUR'
p2433
tp2434
Rp2435
g1
(g13
S'\n\x00\x00\x00\x00\x00\x00\x00'
p2436
tp2437
Rp2438
sg1
(g2
(S'S3'
p2439
I0
I1
tp2440
Rp2441
(I3
S'|'
p2442
NNNI3
I1
I0
tp2443
bS'LBA'
p2444
tp2445
Rp2446
g1
(g13
S'\x04\x00\x00\x00\x00\x00\x00\x00'
p2447
tp2448
Rp2449
sg1
(g2
(S'S2'
p2450
I0
I1
tp2451
Rp2452
(I3
S'|'
p2453
NNNI2
I1
I0
tp2454
bS'RE'
p2455
tp2456
Rp2457
g1
(g13
S'\x13\x00\x00\x00\x00\x00\x00\x00'
p2458
tp2459
Rp2460
sg1
(g2
(S'S3'
p2461
I0
I1
tp2462
Rp2463
(I3
S'|'
p2464
NNNI3
I1
I0
tp2465
bS'PRP'
p2466
tp2467
Rp2468
g1
(g13
S'\x06\x00\x00\x00\x00\x00\x00\x00'
p2469
tp2470
Rp2471
sg1
(g2
(S'S3'
p2472
I0
I1
tp2473
Rp2474
(I3
S'|'
p2475
NNNI3
I1
I0
tp2476
bS'PRR'
p2477
tp2478
Rp2479
g1
(g13
S'\x10\x00\x00\x00\x00\x00\x00\x00'
p2480
tp2481
Rp2482
sg1
(g2
(S'S2'
p2483
I0
I1
tp2484
Rp2485
(I3
S'|'
p2486
NNNI2
I1
I0
tp2487
bS'RN'
p2488
tp2489
Rp2490
g1
(g13
S'\x13\x00\x00\x00\x00\x00\x00\x00'
p2491
tp2492
Rp2493
sg1
(g2
(S'S3'
p2494
I0
I1
tp2495
Rp2496
(I3
S'|'
p2497
NNNI3
I1
I0
tp2498
bS'SSM'
p2499
tp2500
Rp2501
g1
(g13
S'\x07\x00\x00\x00\x00\x00\x00\x00'
p2502
tp2503
Rp2504
sg1
(g2
(S'S3'
p2505
I0
I1
tp2506
Rp2507
(I3
S'|'
p2508
NNNI3
I1
I0
tp2509
bS'SZM'
p2510
tp2511
Rp2512
g1
(g13
S'\t\x00\x00\x00\x00\x00\x00\x00'
p2513
tp2514
Rp2515
sg1
(g2
(S'S3'
p2516
I0
I1
tp2517
Rp2518
(I3
S'|'
p2519
NNNI3
I1
I0
tp2520
bS'RAY'
p2521
tp2522
Rp2523
g1
(g13
S'\x02\x00\x00\x00\x00\x00\x00\x00'
p2524
tp2525
Rp2526
sg1
(g2
(S'S3'
p2527
I0
I1
tp2528
Rp2529
(I3
S'|'
p2530
NNNI3
I1
I0
tp2531
bS'URD'
p2532
tp2533
Rp2534
g1
(g13
S'\x02\x00\x00\x00\x00\x00\x00\x00'
p2535
tp2536
Rp2537
sg1
(g2
(S'S4'
p2538
I0
I1
tp2539
Rp2540
(I3
S'|'
p2541
NNNI4
I1
I0
tp2542
bS'MURI'
p2543
tp2544
Rp2545
g1
(g13
S'\x10\x00\x00\x00\x00\x00\x00\x00'
p2546
tp2547
Rp2548
sg1
(g2
(S'S4'
p2549
I0
I1
tp2550
Rp2551
(I3
S'|'
p2552
NNNI4
I1
I0
tp2553
bS'GRRU'
p2554
tp2555
Rp2556
g1
(g13
S'\x02\x00\x00\x00\x00\x00\x00\x00'
p2557
tp2558
Rp2559
sg1
(g2
(S'S4'
p2560
I0
I1
tp2561
Rp2562
(I3
S'|'
p2563
NNNI4
I1
I0
tp2564
bS'DAKE'
p2565
tp2566
Rp2567
g1
(g13
S'\x05\x00\x00\x00\x00\x00\x00\x00'
p2568
tp2569
Rp2570
sg1
(g2
(S'S3'
p2571
I0
I1
tp2572
Rp2573
(I3
S'|'
p2574
NNNI3
I1
I0
tp2575
bS'CHH'
p2576
tp2577
Rp2578
g1
(g13
S'\x06\x00\x00\x00\x00\x00\x00\x00'
p2579
tp2580
Rp2581
sg1
(g2
(S'S3'
p2582
I0
I1
tp2583
Rp2584
(I3
S'|'
p2585
NNNI3
I1
I0
tp2586
bS'CHI'
p2587
tp2588
Rp2589
g1
(g13
S'\t\x00\x00\x00\x00\x00\x00\x00'
p2590
tp2591
Rp2592
sg1
(g2
(S'S3'
p2593
I0
I1
tp2594
Rp2595
(I3
S'|'
p2596
NNNI3
I1
I0
tp2597
bS'CHJ'
p2598
tp2599
Rp2600
g1
(g13
S'\x04\x00\x00\x00\x00\x00\x00\x00'
p2601
tp2602
Rp2603
sg1
(g2
(S'S3'
p2604
I0
I1
tp2605
Rp2606
(I3
S'|'
p2607
NNNI3
I1
I0
tp2608
bS'PPT'
p2609
tp2610
Rp2611
g1
(g13
S'\x04\x00\x00\x00\x00\x00\x00\x00'
p2612
tp2613
Rp2614
sg1
(g2
(S'S3'
p2615
I0
I1
tp2616
Rp2617
(I3
S'|'
p2618
NNNI3
I1
I0
tp2619
bS'CHL'
p2620
tp2621
Rp2622
g1
(g13
S'\x04\x00\x00\x00\x00\x00\x00\x00'
p2623
tp2624
Rp2625
sg1
(g2
(S'S3'
p2626
I0
I1
tp2627
Rp2628
(I3
S'|'
p2629
NNNI3
I1
I0
tp2630
bS'TPJ'
p2631
tp2632
Rp2633
g1
(g13
S'\x0f\x00\x00\x00\x00\x00\x00\x00'
p2634
tp2635
Rp2636
sg1
(g2
(S'S3'
p2637
I0
I1
tp2638
Rp2639
(I3
S'|'
p2640
NNNI3
I1
I0
tp2641
bS'BFM'
p2642
tp2643
Rp2644
g1
(g13
S'\x02\x00\x00\x00\x00\x00\x00\x00'
p2645
tp2646
Rp2647
sg1
(g2
(S'S3'
p2648
I0
I1
tp2649
Rp2650
(I3
S'|'
p2651
NNNI3
I1
I0
tp2652
bS'TPH'
p2653
tp2654
Rp2655
g1
(g13
S'\x03\x00\x00\x00\x00\x00\x00\x00'
p2656
tp2657
Rp2658
sg1
(g2
(S'S3'
p2659
I0
I1
tp2660
Rp2661
(I3
S'|'
p2662
NNNI3
I1
I0
tp2663
bS'JAM'
p2664
tp2665
Rp2666
g1
(g13
S'\x08\x00\x00\x00\x00\x00\x00\x00'
p2667
tp2668
Rp2669
sg1
(g2
(S'S3'
p2670
I0
I1
tp2671
Rp2672
(I3
S'|'
p2673
NNNI3
I1
I0
tp2674
bS'HRI'
p2675
tp2676
Rp2677
g1
(g13
S'\r\x00\x00\x00\x00\x00\x00\x00'
p2678
tp2679
Rp2680
sg1
(g2
(S'S3'
p2681
I0
I1
tp2682
Rp2683
(I3
S'|'
p2684
NNNI3
I1
I0
tp2685
bS'MRE'
p2686
tp2687
Rp2688
g1
(g13
S'\x05\x00\x00\x00\x00\x00\x00\x00'
p2689
tp2690
Rp2691
sg1
(g2
(S'S3'
p2692
I0
I1
tp2693
Rp2694
(I3
S'|'
p2695
NNNI3
I1
I0
tp2696
bS'MRA'
p2697
tp2698
Rp2699
g1
(g13
S'\x08\x00\x00\x00\x00\x00\x00\x00'
p2700
tp2701
Rp2702
sg1
(g2
(S'S4'
p2703
I0
I1
tp2704
Rp2705
(I3
S'|'
p2706
NNNI4
I1
I0
tp2707
bS'LTHR'
p2708
tp2709
Rp2710
g1
(g13
S'\x04\x00\x00\x00\x00\x00\x00\x00'
p2711
tp2712
Rp2713
sg1
(g2
(S'S3'
p2714
I0
I1
tp2715
Rp2716
(I3
S'|'
p2717
NNNI3
I1
I0
tp2718
bS'JAA'
p2719
tp2720
Rp2721
g1
(g13
S'\x04\x00\x00\x00\x00\x00\x00\x00'
p2722
tp2723
Rp2724
sg1
(g2
(S'S4'
p2725
I0
I1
tp2726
Rp2727
(I3
S'|'
p2728
NNNI4
I1
I0
tp2729
bS'BRKA'
p2730
tp2731
Rp2732
g1
(g13
S'\r\x00\x00\x00\x00\x00\x00\x00'
p2733
tp2734
Rp2735
sg1
(g2
(S'S3'
p2736
I0
I1
tp2737
Rp2738
(I3
S'|'
p2739
NNNI3
I1
I0
tp2740
bS'DBA'
p2741
tp2742
Rp2743
g1
(g13
S'\x06\x00\x00\x00\x00\x00\x00\x00'
p2744
tp2745
Rp2746
sg1
(g2
(S'S3'
p2747
I0
I1
tp2748
Rp2749
(I3
S'|'
p2750
NNNI3
I1
I0
tp2751
bS'KAJ'
p2752
tp2753
Rp2754
g1
(g13
S'\x03\x00\x00\x00\x00\x00\x00\x00'
p2755
tp2756
Rp2757
sg1
(g2
(S'S3'
p2758
I0
I1
tp2759
Rp2760
(I3
S'|'
p2761
NNNI3
I1
I0
tp2762
bS'KAN'
p2763
tp2764
Rp2765
g1
(g13
S'\x05\x00\x00\x00\x00\x00\x00\x00'
p2766
tp2767
Rp2768
sg1
(g2
(S'S3'
p2769
I0
I1
tp2770
Rp2771
(I3
S'|'
p2772
NNNI3
I1
I0
tp2773
bS'DBG'
p2774
tp2775
Rp2776
g1
(g13
S'\x07\x00\x00\x00\x00\x00\x00\x00'
p2777
tp2778
Rp2779
sg1
(g2
(S'S4'
p2780
I0
I1
tp2781
Rp2782
(I3
S'|'
p2783
NNNI4
I1
I0
tp2784
bS'RTGH'
p2785
tp2786
Rp2787
g1
(g13
S'\x04\x00\x00\x00\x00\x00\x00\x00'
p2788
tp2789
Rp2790
sg1
(g2
(S'S3'
p2791
I0
I1
tp2792
Rp2793
(I3
S'|'
p2794
NNNI3
I1
I0
tp2795
bS'IPR'
p2796
tp2797
Rp2798
g1
(g13
S'\x01\x00\x00\x00\x00\x00\x00\x00'
p2799
tp2800
Rp2801
sg1
(g2
(S'S3'
p2802
I0
I1
tp2803
Rp2804
(I3
S'|'
p2805
NNNI3
I1
I0
tp2806
bS'SYJ'
p2807
tp2808
Rp2809
g1
(g13
S'\x04\x00\x00\x00\x00\x00\x00\x00'
p2810
tp2811
Rp2812
sg1
(g2
(S'S3'
p2813
I0
I1
tp2814
Rp2815
(I3
S'|'
p2816
NNNI3
I1
I0
tp2817
bS'SFG'
p2818
tp2819
Rp2820
g1
(g13
S'\x07\x00\x00\x00\x00\x00\x00\x00'
p2821
tp2822
Rp2823
sg1
(g2
(S'S3'
p2824
I0
I1
tp2825
Rp2826
(I3
S'|'
p2827
NNNI3
I1
I0
tp2828
bS'DBR'
p2829
tp2830
Rp2831
g1
(g13
S'\x06\x00\x00\x00\x00\x00\x00\x00'
p2832
tp2833
Rp2834
sg1
(g2
(S'S3'
p2835
I0
I1
tp2836
Rp2837
(I3
S'|'
p2838
NNNI3
I1
I0
tp2839
bS'PHA'
p2840
tp2841
Rp2842
g1
(g13
S'\x07\x00\x00\x00\x00\x00\x00\x00'
p2843
tp2844
Rp2845
sg1
(g2
(S'S3'
p2846
I0
I1
tp2847
Rp2848
(I3
S'|'
p2849
NNNI3
I1
I0
tp2850
bS'FUT'
p2851
tp2852
Rp2853
g1
(g13
S'\x08\x00\x00\x00\x00\x00\x00\x00'
p2854
tp2855
Rp2856
sg1
(g2
(S'S3'
p2857
I0
I1
tp2858
Rp2859
(I3
S'|'
p2860
NNNI3
I1
I0
tp2861
bS'KSV'
p2862
tp2863
Rp2864
g1
(g13
S'\t\x00\x00\x00\x00\x00\x00\x00'
p2865
tp2866
Rp2867
sg1
(g2
(S'S3'
p2868
I0
I1
tp2869
Rp2870
(I3
S'|'
p2871
NNNI3
I1
I0
tp2872
bS'LRJ'
p2873
tp2874
Rp2875
g1
(g13
S'\x0c\x00\x00\x00\x00\x00\x00\x00'
p2876
tp2877
Rp2878
sg1
(g2
(S'S4'
p2879
I0
I1
tp2880
Rp2881
(I3
S'|'
p2882
NNNI4
I1
I0
tp2883
bS'CHTI'
p2884
tp2885
Rp2886
g1
(g13
S'\x04\x00\x00\x00\x00\x00\x00\x00'
p2887
tp2888
Rp2889
sg1
(g2
(S'S3'
p2890
I0
I1
tp2891
Rp2892
(I3
S'|'
p2893
NNNI3
I1
I0
tp2894
bS'NGN'
p2895
tp2896
Rp2897
g1
(g13
S'\x04\x00\x00\x00\x00\x00\x00\x00'
p2898
tp2899
Rp2900
sg1
(g2
(S'S3'
p2901
I0
I1
tp2902
Rp2903
(I3
S'|'
p2904
NNNI3
I1
I0
tp2905
bS'NGO'
p2906
tp2907
Rp2908
g1
(g13
S'\x0c\x00\x00\x00\x00\x00\x00\x00'
p2909
tp2910
Rp2911
sg1
(g2
(S'S3'
p2912
I0
I1
tp2913
Rp2914
(I3
S'|'
p2915
NNNI3
I1
I0
tp2916
bS'HDE'
p2917
tp2918
Rp2919
g1
(g13
S'\x02\x00\x00\x00\x00\x00\x00\x00'
p2920
tp2921
Rp2922
sg1
(g2
(S'S3'
p2923
I0
I1
tp2924
Rp2925
(I3
S'|'
p2926
NNNI3
I1
I0
tp2927
bS'KSF'
p2928
tp2929
Rp2930
g1
(g13
S'\x04\x00\x00\x00\x00\x00\x00\x00'
p2931
tp2932
Rp2933
sg1
(g2
(S'S3'
p2934
I0
I1
tp2935
Rp2936
(I3
S'|'
p2937
NNNI3
I1
I0
tp2938
bS'NGP'
p2939
tp2940
Rp2941
g1
(g13
S'#\x00\x00\x00\x00\x00\x00\x00'
p2942
tp2943
Rp2944
sg1
(g2
(S'S4'
p2945
I0
I1
tp2946
Rp2947
(I3
S'|'
p2948
NNNI4
I1
I0
tp2949
bS'BNGN'
p2950
tp2951
Rp2952
g1
(g13
S'\x03\x00\x00\x00\x00\x00\x00\x00'
p2953
tp2954
Rp2955
sg1
(g2
(S'S3'
p2956
I0
I1
tp2957
Rp2958
(I3
S'|'
p2959
NNNI3
I1
I0
tp2960
bS'HDN'
p2961
tp2962
Rp2963
g1
(g13
S'\x02\x00\x00\x00\x00\x00\x00\x00'
p2964
tp2965
Rp2966
sg1
(g2
(S'S3'
p2967
I0
I1
tp2968
Rp2969
(I3
S'|'
p2970
NNNI3
I1
I0
tp2971
bS'KSJ'
p2972
tp2973
Rp2974
g1
(g13
S'\x08\x00\x00\x00\x00\x00\x00\x00'
p2975
tp2976
Rp2977
sg1
(g2
(S'S3'
p2978
I0
I1
tp2979
Rp2980
(I3
S'|'
p2981
NNNI3
I1
I0
tp2982
bS'PKR'
p2983
tp2984
Rp2985
g1
(g13
S'\x0b\x00\x00\x00\x00\x00\x00\x00'
p2986
tp2987
Rp2988
sg1
(g2
(S'S3'
p2989
I0
I1
tp2990
Rp2991
(I3
S'|'
p2992
NNNI3
I1
I0
tp2993
bS'TKD'
p2994
tp2995
Rp2996
g1
(g13
S'\x08\x00\x00\x00\x00\x00\x00\x00'
p2997
tp2998
Rp2999
sg1
(g2
(S'S3'
p3000
I0
I1
tp3001
Rp3002
(I3
S'|'
p3003
NNNI3
I1
I0
tp3004
bS'NLR'
p3005
tp3006
Rp3007
g1
(g13
S'\x10\x00\x00\x00\x00\x00\x00\x00'
p3008
tp3009
Rp3010
sg1
(g2
(S'S4'
p3011
I0
I1
tp3012
Rp3013
(I3
S'|'
p3014
NNNI4
I1
I0
tp3015
bS'HRNR'
p3016
tp3017
Rp3018
g1
(g13
S'\x05\x00\x00\x00\x00\x00\x00\x00'
p3019
tp3020
Rp3021
sg1
(g2
(S'S3'
p3022
I0
I1
tp3023
Rp3024
(I3
S'|'
p3025
NNNI3
I1
I0
tp3026
bS'BME'
p3027
tp3028
Rp3029
g1
(g13
S'\x05\x00\x00\x00\x00\x00\x00\x00'
p3030
tp3031
Rp3032
sg1
(g2
(S'S3'
p3033
I0
I1
tp3034
Rp3035
(I3
S'|'
p3036
NNNI3
I1
I0
tp3037
bS'RTM'
p3038
tp3039
Rp3040
g1
(g13
S'\x12\x00\x00\x00\x00\x00\x00\x00'
p3041
tp3042
Rp3043
sg1
(g2
(S'S3'
p3044
I0
I1
tp3045
Rp3046
(I3
S'|'
p3047
NNNI3
I1
I0
tp3048
bS'TNA'
p3049
tp3050
Rp3051
g1
(g13
S'\x0c\x00\x00\x00\x00\x00\x00\x00'
p3052
tp3053
Rp3054
sg1
(g2
(S'S3'
p3055
I0
I1
tp3056
Rp3057
(I3
S'|'
p3058
NNNI3
I1
I0
tp3059
bS'SNT'
p3060
tp3061
Rp3062
g1
(g13
S'\x0b\x00\x00\x00\x00\x00\x00\x00'
p3063
tp3064
Rp3065
sg1
(g2
(S'S3'
p3066
I0
I1
tp3067
Rp3068
(I3
S'|'
p3069
NNNI3
I1
I0
tp3070
bS'PKF'
p3071
tp3072
Rp3073
g1
(g13
S'\x03\x00\x00\x00\x00\x00\x00\x00'
p3074
tp3075
Rp3076
sg1
(g2
(S'S3'
p3077
I0
I1
tp3078
Rp3079
(I3
S'|'
p3080
NNNI3
I1
I0
tp3081
bS'NLD'
p3082
tp3083
Rp3084
g1
(g13
S'\x03\x00\x00\x00\x00\x00\x00\x00'
p3085
tp3086
Rp3087
sg1
(g2
(S'S3'
p3088
I0
I1
tp3089
Rp3090
(I3
S'|'
p3091
NNNI3
I1
I0
tp3092
bS'BMU'
p3093
tp3094
Rp3095
g1
(g13
S'\x04\x00\x00\x00\x00\x00\x00\x00'
p3096
tp3097
Rp3098
sg1
(g2
(S'S4'
p3099
I0
I1
tp3100
Rp3101
(I3
S'|'
p3102
NNNI4
I1
I0
tp3103
bS'ANND'
p3104
tp3105
Rp3106
g1
(g13
S'\n\x00\x00\x00\x00\x00\x00\x00'
p3107
tp3108
Rp3109
sg1
(g2
(S'S3'
p3110
I0
I1
tp3111
Rp3112
(I3
S'|'
p3113
NNNI3
I1
I0
tp3114
bS'SHR'
p3115
tp3116
Rp3117
g1
(g13
S'\x07\x00\x00\x00\x00\x00\x00\x00'
p3118
tp3119
Rp3120
sg1
(g2
(S'S3'
p3121
I0
I1
tp3122
Rp3123
(I3
S'|'
p3124
NNNI3
I1
I0
tp3125
bS'CSN'
p3126
tp3127
Rp3128
g1
(g13
S'\x0c\x00\x00\x00\x00\x00\x00\x00'
p3129
tp3130
Rp3131
sg1
(g2
(S'S3'
p3132
I0
I1
tp3133
Rp3134
(I3
S'|'
p3135
NNNI3
I1
I0
tp3136
bS'CSA'
p3137
tp3138
Rp3139
g1
(g13
S'\x02\x00\x00\x00\x00\x00\x00\x00'
p3140
tp3141
Rp3142
sg1
(g2
(S'S3'
p3143
I0
I1
tp3144
Rp3145
(I3
S'|'
p3146
NNNI3
I1
I0
tp3147
bS'DLK'
p3148
tp3149
Rp3150
g1
(g13
S'\x06\x00\x00\x00\x00\x00\x00\x00'
p3151
tp3152
Rp3153
sg1
(g2
(S'S3'
p3154
I0
I1
tp3155
Rp3156
(I3
S'|'
p3157
NNNI3
I1
I0
tp3158
bS'DLJ'
p3159
tp3160
Rp3161
g1
(g13
S'\n\x00\x00\x00\x00\x00\x00\x00'
p3162
tp3163
Rp3164
sg1
(g2
(S'S3'
p3165
I0
I1
tp3166
Rp3167
(I3
S'|'
p3168
NNNI3
I1
I0
tp3169
bS'DLI'
p3170
tp3171
Rp3172
g1
(g13
S'\x1e\x00\x00\x00\x00\x00\x00\x00'
p3173
tp3174
Rp3175
sg1
(g2
(S'S3'
p3176
I0
I1
tp3177
Rp3178
(I3
S'|'
p3179
NNNI3
I1
I0
tp3180
bS'DLO'
p3181
tp3182
Rp3183
g1
(g13
S'\x06\x00\x00\x00\x00\x00\x00\x00'
p3184
tp3185
Rp3186
sg1
(g2
(S'S3'
p3187
I0
I1
tp3188
Rp3189
(I3
S'|'
p3190
NNNI3
I1
I0
tp3191
bS'DLN'
p3192
tp3193
Rp3194
g1
(g13
S'\n\x00\x00\x00\x00\x00\x00\x00'
p3195
tp3196
Rp3197
sg1
(g2
(S'S4'
p3198
I0
I1
tp3199
Rp3200
(I3
S'|'
p3201
NNNI4
I1
I0
tp3202
bS'KIUL'
p3203
tp3204
Rp3205
g1
(g13
S'\x12\x00\x00\x00\x00\x00\x00\x00'
p3206
tp3207
Rp3208
sg1
(g2
(S'S3'
p3209
I0
I1
tp3210
Rp3211
(I3
S'|'
p3212
NNNI3
I1
I0
tp3213
bS'PNU'
p3214
tp3215
Rp3216
g1
(g13
S'\x0e\x00\x00\x00\x00\x00\x00\x00'
p3217
tp3218
Rp3219
sg1
(g2
(S'S2'
p3220
I0
I1
tp3221
Rp3222
(I3
S'|'
p3223
NNNI2
I1
I0
tp3224
bS'NK'
p3225
tp3226
Rp3227
g1
(g13
S'\x10\x00\x00\x00\x00\x00\x00\x00'
p3228
tp3229
Rp3230
sg1
(g2
(S'S4'
p3231
I0
I1
tp3232
Rp3233
(I3
S'|'
p3234
NNNI4
I1
I0
tp3235
bS'BKSL'
p3236
tp3237
Rp3238
g1
(g13
S'\x02\x00\x00\x00\x00\x00\x00\x00'
p3239
tp3240
Rp3241
sg1
(g2
(S'S3'
p3242
I0
I1
tp3243
Rp3244
(I3
S'|'
p3245
NNNI3
I1
I0
tp3246
bS'SHE'
p3247
tp3248
Rp3249
g1
(g13
S'\x05\x00\x00\x00\x00\x00\x00\x00'
p3250
tp3251
Rp3252
sg1
(g2
(S'S3'
p3253
I0
I1
tp3254
Rp3255
(I3
S'|'
p3256
NNNI3
I1
I0
tp3257
bS'JTJ'
p3258
tp3259
Rp3260
g1
(g13
S'\x13\x00\x00\x00\x00\x00\x00\x00'
p3261
tp3262
Rp3263
sg1
(g2
(S'S2'
p3264
I0
I1
tp3265
Rp3266
(I3
S'|'
p3267
NNNI2
I1
I0
tp3268
bS'ET'
p3269
tp3270
Rp3271
g1
(g13
S' \x00\x00\x00\x00\x00\x00\x00'
p3272
tp3273
Rp3274
sg1
(g2
(S'S4'
p3275
I0
I1
tp3276
Rp3277
(I3
S'|'
p3278
NNNI4
I1
I0
tp3279
bS'LUNI'
p3280
tp3281
Rp3282
g1
(g13
S'\t\x00\x00\x00\x00\x00\x00\x00'
p3283
tp3284
Rp3285
sg1
(g2
(S'S4'
p3286
I0
I1
tp3287
Rp3288
(I3
S'|'
p3289
NNNI4
I1
I0
tp3290
bS'BKSC'
p3291
tp3292
Rp3293
g1
(g13
S'\r\x00\x00\x00\x00\x00\x00\x00'
p3294
tp3295
Rp3296
sg1
(g2
(S'S3'
p3297
I0
I1
tp3298
Rp3299
(I3
S'|'
p3300
NNNI3
I1
I0
tp3301
bS'SHM'
p3302
tp3303
Rp3304
g1
(g13
S'\x02\x00\x00\x00\x00\x00\x00\x00'
p3305
tp3306
Rp3307
sg1
(g2
(S'S3'
p3308
I0
I1
tp3309
Rp3310
(I3
S'|'
p3311
NNNI3
I1
I0
tp3312
bS'BTT'
p3313
tp3314
Rp3315
g1
(g13
S'\x0e\x00\x00\x00\x00\x00\x00\x00'
p3316
tp3317
Rp3318
sg1
(g2
(S'S4'
p3319
I0
I1
tp3320
Rp3321
(I3
S'|'
p3322
NNNI4
I1
I0
tp3323
bS'RPUR'
p3324
tp3325
Rp3326
g1
(g13
S'\x02\x00\x00\x00\x00\x00\x00\x00'
p3327
tp3328
Rp3329
sg1
(g2
(S'S3'
p3330
I0
I1
tp3331
Rp3332
(I3
S'|'
p3333
NNNI3
I1
I0
tp3334
bS'BTP'
p3335
tp3336
Rp3337
g1
(g13
S'\x07\x00\x00\x00\x00\x00\x00\x00'
p3338
tp3339
Rp3340
sg1
(g2
(S'S3'
p3341
I0
I1
tp3342
Rp3343
(I3
S'|'
p3344
NNNI3
I1
I0
tp3345
bS'GZH'
p3346
tp3347
Rp3348
g1
(g13
S'\x03\x00\x00\x00\x00\x00\x00\x00'
p3349
tp3350
Rp3351
sg1
(g2
(S'S4'
p3352
I0
I1
tp3353
Rp3354
(I3
S'|'
p3355
NNNI4
I1
I0
tp3356
bS'RJPB'
p3357
tp3358
Rp3359
g1
(g13
S'\x07\x00\x00\x00\x00\x00\x00\x00'
p3360
tp3361
Rp3362
sg1
(g2
(S'S3'
p3363
I0
I1
tp3364
Rp3365
(I3
S'|'
p3366
NNNI3
I1
I0
tp3367
bS'GZB'
p3368
tp3369
Rp3370
g1
(g13
S'\x1d\x00\x00\x00\x00\x00\x00\x00'
p3371
tp3372
Rp3373
sg1
(g2
(S'S3'
p3374
I0
I1
tp3375
Rp3376
(I3
S'|'
p3377
NNNI3
I1
I0
tp3378
bS'BTE'
p3379
tp3380
Rp3381
g1
(g13
S'\x0c\x00\x00\x00\x00\x00\x00\x00'
p3382
tp3383
Rp3384
sg1
(g2
(S'S3'
p3385
I0
I1
tp3386
Rp3387
(I3
S'|'
p3388
NNNI3
I1
I0
tp3389
bS'BTD'
p3390
tp3391
Rp3392
g1
(g13
S'\r\x00\x00\x00\x00\x00\x00\x00'
p3393
tp3394
Rp3395
sg1
(g2
(S'S3'
p3396
I0
I1
tp3397
Rp3398
(I3
S'|'
p3399
NNNI3
I1
I0
tp3400
bS'BTA'
p3401
tp3402
Rp3403
g1
(g13
S'\x05\x00\x00\x00\x00\x00\x00\x00'
p3404
tp3405
Rp3406
sg1
(g2
(S'S3'
p3407
I0
I1
tp3408
Rp3409
(I3
S'|'
p3410
NNNI3
I1
I0
tp3411
bS'MAO'
p3412
tp3413
Rp3414
g1
(g13
S'\x1b\x00\x00\x00\x00\x00\x00\x00'
p3415
tp3416
Rp3417
sg1
(g2
(S'S3'
p3418
I0
I1
tp3419
Rp3420
(I3
S'|'
p3421
NNNI3
I1
I0
tp3422
bS'TBN'
p3423
tp3424
Rp3425
g1
(g13
S'\x05\x00\x00\x00\x00\x00\x00\x00'
p3426
tp3427
Rp3428
sg1
(g2
(S'S3'
p3429
I0
I1
tp3430
Rp3431
(I3
S'|'
p3432
NNNI3
I1
I0
tp3433
bS'BTI'
p3434
tp3435
Rp3436
g1
(g13
S'\x18\x00\x00\x00\x00\x00\x00\x00'
p3437
tp3438
Rp3439
sg1
(g2
(S'S3'
p3440
I0
I1
tp3441
Rp3442
(I3
S'|'
p3443
NNNI3
I1
I0
tp3444
bS'NBQ'
p3445
tp3446
Rp3447
g1
(g13
S'\x0f\x00\x00\x00\x00\x00\x00\x00'
p3448
tp3449
Rp3450
sg1
(g2
(S'S3'
p3451
I0
I1
tp3452
Rp3453
(I3
S'|'
p3454
NNNI3
I1
I0
tp3455
bS'SSB'
p3456
tp3457
Rp3458
g1
(g13
S'\x07\x00\x00\x00\x00\x00\x00\x00'
p3459
tp3460
Rp3461
sg1
(g2
(S'S3'
p3462
I0
I1
tp3463
Rp3464
(I3
S'|'
p3465
NNNI3
I1
I0
tp3466
bS'MUW'
p3467
tp3468
Rp3469
g1
(g13
S'\x03\x00\x00\x00\x00\x00\x00\x00'
p3470
tp3471
Rp3472
sg1
(g2
(S'S3'
p3473
I0
I1
tp3474
Rp3475
(I3
S'|'
p3476
NNNI3
I1
I0
tp3477
bS'ATE'
p3478
tp3479
Rp3480
g1
(g13
S'\x05\x00\x00\x00\x00\x00\x00\x00'
p3481
tp3482
Rp3483
sg1
(g2
(S'S3'
p3484
I0
I1
tp3485
Rp3486
(I3
S'|'
p3487
NNNI3
I1
I0
tp3488
bS'JBP'
p3489
tp3490
Rp3491
g1
(g13
S'\x12\x00\x00\x00\x00\x00\x00\x00'
p3492
tp3493
Rp3494
sg1
(g2
(S'S2'
p3495
I0
I1
tp3496
Rp3497
(I3
S'|'
p3498
NNNI2
I1
I0
tp3499
bS'ND'
p3500
tp3501
Rp3502
g1
(g13
S'\t\x00\x00\x00\x00\x00\x00\x00'
p3503
tp3504
Rp3505
sg1
(g2
(S'S3'
p3506
I0
I1
tp3507
Rp3508
(I3
S'|'
p3509
NNNI3
I1
I0
tp3510
bS'ATL'
p3511
tp3512
Rp3513
g1
(g13
S'\x02\x00\x00\x00\x00\x00\x00\x00'
p3514
tp3515
Rp3516
sg1
(g2
(S'S3'
p3517
I0
I1
tp3518
Rp3519
(I3
S'|'
p3520
NNNI3
I1
I0
tp3521
bS'PMY'
p3522
tp3523
Rp3524
g1
(g13
S'\x06\x00\x00\x00\x00\x00\x00\x00'
p3525
tp3526
Rp3527
sg1
(g2
(S'S3'
p3528
I0
I1
tp3529
Rp3530
(I3
S'|'
p3531
NNNI3
I1
I0
tp3532
bS'MTC'
p3533
tp3534
Rp3535
g1
(g13
S'\t\x00\x00\x00\x00\x00\x00\x00'
p3536
tp3537
Rp3538
sg1
(g2
(S'S3'
p3539
I0
I1
tp3540
Rp3541
(I3
S'|'
p3542
NNNI3
I1
I0
tp3543
bS'SKQ'
p3544
tp3545
Rp3546
g1
(g13
S'\x02\x00\x00\x00\x00\x00\x00\x00'
p3547
tp3548
Rp3549
sg1
(g2
(S'S4'
p3550
I0
I1
tp3551
Rp3552
(I3
S'|'
p3553
NNNI4
I1
I0
tp3554
bS'KMME'
p3555
tp3556
Rp3557
g1
(g13
S'\x04\x00\x00\x00\x00\x00\x00\x00'
p3558
tp3559
Rp3560
sg1
(g2
(S'S3'
p3561
I0
I1
tp3562
Rp3563
(I3
S'|'
p3564
NNNI3
I1
I0
tp3565
bS'ASR'
p3566
tp3567
Rp3568
g1
(g13
S'\x0b\x00\x00\x00\x00\x00\x00\x00'
p3569
tp3570
Rp3571
sg1
(g2
(S'S3'
p3572
I0
I1
tp3573
Rp3574
(I3
S'|'
p3575
NNNI3
I1
I0
tp3576
bS'RMT'
p3577
tp3578
Rp3579
g1
(g13
S'\x02\x00\x00\x00\x00\x00\x00\x00'
p3580
tp3581
Rp3582
sg1
(g2
(S'S3'
p3583
I0
I1
tp3584
Rp3585
(I3
S'|'
p3586
NNNI3
I1
I0
tp3587
bS'RMU'
p3588
tp3589
Rp3590
g1
(g13
S'\t\x00\x00\x00\x00\x00\x00\x00'
p3591
tp3592
Rp3593
sg1
(g2
(S'S3'
p3594
I0
I1
tp3595
Rp3596
(I3
S'|'
p3597
NNNI3
I1
I0
tp3598
bS'DGO'
p3599
tp3600
Rp3601
g1
(g13
S'\x03\x00\x00\x00\x00\x00\x00\x00'
p3602
tp3603
Rp3604
sg1
(g2
(S'S4'
p3605
I0
I1
tp3606
Rp3607
(I3
S'|'
p3608
NNNI4
I1
I0
tp3609
bS'SDAH'
p3610
tp3611
Rp3612
g1
(g13
S'\x10\x00\x00\x00\x00\x00\x00\x00'
p3613
tp3614
Rp3615
sg1
(g2
(S'S3'
p3616
I0
I1
tp3617
Rp3618
(I3
S'|'
p3619
NNNI3
I1
I0
tp3620
bS'DGR'
p3621
tp3622
Rp3623
g1
(g13
S'\r\x00\x00\x00\x00\x00\x00\x00'
p3624
tp3625
Rp3626
sg1
(g2
(S'S3'
p3627
I0
I1
tp3628
Rp3629
(I3
S'|'
p3630
NNNI3
I1
I0
tp3631
bS'SEE'
p3632
tp3633
Rp3634
g1
(g13
S'\x07\x00\x00\x00\x00\x00\x00\x00'
p3635
tp3636
Rp3637
sg1
(g2
(S'S3'
p3638
I0
I1
tp3639
Rp3640
(I3
S'|'
p3641
NNNI3
I1
I0
tp3642
bS'RMA'
p3643
tp3644
Rp3645
g1
(g13
S'\x08\x00\x00\x00\x00\x00\x00\x00'
p3646
tp3647
Rp3648
sg1
(g2
(S'S3'
p3649
I0
I1
tp3650
Rp3651
(I3
S'|'
p3652
NNNI3
I1
I0
tp3653
bS'SEB'
p3654
tp3655
Rp3656
g1
(g13
S'\x03\x00\x00\x00\x00\x00\x00\x00'
p3657
tp3658
Rp3659
sg1
(g2
(S'S3'
p3660
I0
I1
tp3661
Rp3662
(I3
S'|'
p3663
NNNI3
I1
I0
tp3664
bS'LNK'
p3665
tp3666
Rp3667
g1
(g13
S'\x03\x00\x00\x00\x00\x00\x00\x00'
p3668
tp3669
Rp3670
sg1
(g2
(S'S3'
p3671
I0
I1
tp3672
Rp3673
(I3
S'|'
p3674
NNNI3
I1
I0
tp3675
bS'DGU'
p3676
tp3677
Rp3678
g1
(g13
S'\x04\x00\x00\x00\x00\x00\x00\x00'
p3679
tp3680
Rp3681
sg1
(g2
(S'S3'
p3682
I0
I1
tp3683
Rp3684
(I3
S'|'
p3685
NNNI3
I1
I0
tp3686
bS'SEO'
p3687
tp3688
Rp3689
g1
(g13
S'\x04\x00\x00\x00\x00\x00\x00\x00'
p3690
tp3691
Rp3692
sg1
(g2
(S'S3'
p3693
I0
I1
tp3694
Rp3695
(I3
S'|'
p3696
NNNI3
I1
I0
tp3697
bS'JKE'
p3698
tp3699
Rp3700
g1
(g13
S'\x05\x00\x00\x00\x00\x00\x00\x00'
p3701
tp3702
Rp3703
sg1
(g2
(S'S3'
p3704
I0
I1
tp3705
Rp3706
(I3
S'|'
p3707
NNNI3
I1
I0
tp3708
bS'ASN'
p3709
tp3710
Rp3711
g1
(g13
S'\x1c\x00\x00\x00\x00\x00\x00\x00'
p3712
tp3713
Rp3714
sg1
(g2
(S'S3'
p3715
I0
I1
tp3716
Rp3717
(I3
S'|'
p3718
NNNI3
I1
I0
tp3719
bS'SEH'
p3720
tp3721
Rp3722
g1
(g13
S'\x08\x00\x00\x00\x00\x00\x00\x00'
p3723
tp3724
Rp3725
sg1
(g2
(S'S3'
p3726
I0
I1
tp3727
Rp3728
(I3
S'|'
p3729
NNNI3
I1
I0
tp3730
bS'BBK'
p3731
tp3732
Rp3733
g1
(g13
S'\x0f\x00\x00\x00\x00\x00\x00\x00'
p3734
tp3735
Rp3736
sg1
(g2
(S'S3'
p3737
I0
I1
tp3738
Rp3739
(I3
S'|'
p3740
NNNI3
I1
I0
tp3741
bS'TLV'
p3742
tp3743
Rp3744
g1
(g13
S'\x03\x00\x00\x00\x00\x00\x00\x00'
p3745
tp3746
Rp3747
sg1
(g2
(S'S4'
p3748
I0
I1
tp3749
Rp3750
(I3
S'|'
p3751
NNNI4
I1
I0
tp3752
bS'CSTM'
p3753
tp3754
Rp3755
g1
(g13
S'\t\x00\x00\x00\x00\x00\x00\x00'
p3756
tp3757
Rp3758
sg1
(g2
(S'S3'
p3759
I0
I1
tp3760
Rp3761
(I3
S'|'
p3762
NNNI3
I1
I0
tp3763
bS'DUB'
p3764
tp3765
Rp3766
g1
(g13
S'\x05\x00\x00\x00\x00\x00\x00\x00'
p3767
tp3768
Rp3769
sg1
(g2
(S'S3'
p3770
I0
I1
tp3771
Rp3772
(I3
S'|'
p3773
NNNI3
I1
I0
tp3774
bS'CLG'
p3775
tp3776
Rp3777
g1
(g13
S'\x08\x00\x00\x00\x00\x00\x00\x00'
p3778
tp3779
Rp3780
sg1
(g2
(S'S3'
p3781
I0
I1
tp3782
Rp3783
(I3
S'|'
p3784
NNNI3
I1
I0
tp3785
bS'KJM'
p3786
tp3787
Rp3788
g1
(g13
S'\x0c\x00\x00\x00\x00\x00\x00\x00'
p3789
tp3790
Rp3791
sg1
(g2
(S'S3'
p3792
I0
I1
tp3793
Rp3794
(I3
S'|'
p3795
NNNI3
I1
I0
tp3796
bS'GTS'
p3797
tp3798
Rp3799
g1
(g13
S'\x07\x00\x00\x00\x00\x00\x00\x00'
p3800
tp3801
Rp3802
sg1
(g2
(S'S3'
p3803
I0
I1
tp3804
Rp3805
(I3
S'|'
p3806
NNNI3
I1
I0
tp3807
bS'UND'
p3808
tp3809
Rp3810
g1
(g13
S'\x02\x00\x00\x00\x00\x00\x00\x00'
p3811
tp3812
Rp3813
sg1
(g2
(S'S4'
p3814
I0
I1
tp3815
Rp3816
(I3
S'|'
p3817
NNNI4
I1
I0
tp3818
bS'VJPJ'
p3819
tp3820
Rp3821
g1
(g13
S'\x05\x00\x00\x00\x00\x00\x00\x00'
p3822
tp3823
Rp3824
sg1
(g2
(S'S4'
p3825
I0
I1
tp3826
Rp3827
(I3
S'|'
p3828
NNNI4
I1
I0
tp3829
bS'ORAI'
p3830
tp3831
Rp3832
g1
(g13
S'\t\x00\x00\x00\x00\x00\x00\x00'
p3833
tp3834
Rp3835
sg1
(g2
(S'S3'
p3836
I0
I1
tp3837
Rp3838
(I3
S'|'
p3839
NNNI3
I1
I0
tp3840
bS'TLJ'
p3841
tp3842
Rp3843
g1
(g13
S'\x03\x00\x00\x00\x00\x00\x00\x00'
p3844
tp3845
Rp3846
sg1
(g2
(S'S3'
p3847
I0
I1
tp3848
Rp3849
(I3
S'|'
p3850
NNNI3
I1
I0
tp3851
bS'BBU'
p3852
tp3853
Rp3854
g1
(g13
S'\x08\x00\x00\x00\x00\x00\x00\x00'
p3855
tp3856
Rp3857
sg1
(g2
(S'S3'
p3858
I0
I1
tp3859
Rp3860
(I3
S'|'
p3861
NNNI3
I1
I0
tp3862
bS'TLH'
p3863
tp3864
Rp3865
g1
(g13
S'\x06\x00\x00\x00\x00\x00\x00\x00'
p3866
tp3867
Rp3868
sg1
(g2
(S'S3'
p3869
I0
I1
tp3870
Rp3871
(I3
S'|'
p3872
NNNI3
I1
I0
tp3873
bS'BBS'
p3874
tp3875
Rp3876
g1
(g13
S'\x14\x00\x00\x00\x00\x00\x00\x00'
p3877
tp3878
Rp3879
sg1
(g2
(S'S4'
p3880
I0
I1
tp3881
Rp3882
(I3
S'|'
p3883
NNNI4
I1
I0
tp3884
bS'BSQP'
p3885
tp3886
Rp3887
g1
(g13
S'\x02\x00\x00\x00\x00\x00\x00\x00'
p3888
tp3889
Rp3890
sg1
(g2
(S'S3'
p3891
I0
I1
tp3892
Rp3893
(I3
S'|'
p3894
NNNI3
I1
I0
tp3895
bS'RJR'
p3896
tp3897
Rp3898
g1
(g13
S'\x03\x00\x00\x00\x00\x00\x00\x00'
p3899
tp3900
Rp3901
sg1
(g2
(S'S3'
p3902
I0
I1
tp3903
Rp3904
(I3
S'|'
p3905
NNNI3
I1
I0
tp3906
bS'KEI'
p3907
tp3908
Rp3909
g1
(g13
S'\x03\x00\x00\x00\x00\x00\x00\x00'
p3910
tp3911
Rp3912
sg1
(g2
(S'S3'
p3913
I0
I1
tp3914
Rp3915
(I3
S'|'
p3916
NNNI3
I1
I0
tp3917
bS'TET'
p3918
tp3919
Rp3920
g1
(g13
S'\x02\x00\x00\x00\x00\x00\x00\x00'
p3921
tp3922
Rp3923
sg1
(g2
(S'S2'
p3924
I0
I1
tp3925
Rp3926
(I3
S'|'
p3927
NNNI2
I1
I0
tp3928
bS'KS'
p3929
tp3930
Rp3931
g1
(g13
S'\x03\x00\x00\x00\x00\x00\x00\x00'
p3932
tp3933
Rp3934
sg1
(g2
(S'S3'
p3935
I0
I1
tp3936
Rp3937
(I3
S'|'
p3938
NNNI3
I1
I0
tp3939
bS'TUN'
p3940
tp3941
Rp3942
g1
(g13
S'\x06\x00\x00\x00\x00\x00\x00\x00'
p3943
tp3944
Rp3945
sg1
(g2
(S'S4'
p3946
I0
I1
tp3947
Rp3948
(I3
S'|'
p3949
NNNI4
I1
I0
tp3950
bS'SLGR'
p3951
tp3952
Rp3953
g1
(g13
S'\x0c\x00\x00\x00\x00\x00\x00\x00'
p3954
tp3955
Rp3956
sg1
(g2
(S'S3'
p3957
I0
I1
tp3958
Rp3959
(I3
S'|'
p3960
NNNI3
I1
I0
tp3961
bS'RGD'
p3962
tp3963
Rp3964
g1
(g13
S'\x02\x00\x00\x00\x00\x00\x00\x00'
p3965
tp3966
Rp3967
sg1
(g2
(S'S2'
p3968
I0
I1
tp3969
Rp3970
(I3
S'|'
p3971
NNNI2
I1
I0
tp3972
bS'KY'
p3973
tp3974
Rp3975
g1
(g13
S'\x05\x00\x00\x00\x00\x00\x00\x00'
p3976
tp3977
Rp3978
sg1
(g2
(S'S3'
p3979
I0
I1
tp3980
Rp3981
(I3
S'|'
p3982
NNNI3
I1
I0
tp3983
bS'SWM'
p3984
tp3985
Rp3986
g1
(g13
S'\x12\x00\x00\x00\x00\x00\x00\x00'
p3987
tp3988
Rp3989
sg1
(g2
(S'S3'
p3990
I0
I1
tp3991
Rp3992
(I3
S'|'
p3993
NNNI3
I1
I0
tp3994
bS'DMV'
p3995
tp3996
Rp3997
g1
(g13
S'\x06\x00\x00\x00\x00\x00\x00\x00'
p3998
tp3999
Rp4000
sg1
(g2
(S'S3'
p4001
I0
I1
tp4002
Rp4003
(I3
S'|'
p4004
NNNI3
I1
I0
tp4005
bS'BPF'
p4006
tp4007
Rp4008
g1
(g13
S'\x04\x00\x00\x00\x00\x00\x00\x00'
p4009
tp4010
Rp4011
sg1
(g2
(S'S2'
p4012
I0
I1
tp4013
Rp4014
(I3
S'|'
p4015
NNNI2
I1
I0
tp4016
bS'DG'
p4017
tp4018
Rp4019
g1
(g13
S'\x0c\x00\x00\x00\x00\x00\x00\x00'
p4020
tp4021
Rp4022
sg1
(g2
(S'S2'
p4023
I0
I1
tp4024
Rp4025
(I3
S'|'
p4026
NNNI2
I1
I0
tp4027
bS'DD'
p4028
tp4029
Rp4030
g1
(g13
S'\x13\x00\x00\x00\x00\x00\x00\x00'
p4031
tp4032
Rp4033
sg1
(g2
(S'S3'
p4034
I0
I1
tp4035
Rp4036
(I3
S'|'
p4037
NNNI3
I1
I0
tp4038
bS'BPL'
p4039
tp4040
Rp4041
g1
(g13
S'\x19\x00\x00\x00\x00\x00\x00\x00'
p4042
tp4043
Rp4044
sg1
(g2
(S'S4'
p4045
I0
I1
tp4046
Rp4047
(I3
S'|'
p4048
NNNI4
I1
I0
tp4049
bS'WAIR'
p4050
tp4051
Rp4052
g1
(g13
S'\x02\x00\x00\x00\x00\x00\x00\x00'
p4053
tp4054
Rp4055
sg1
(g2
(S'S3'
p4056
I0
I1
tp4057
Rp4058
(I3
S'|'
p4059
NNNI3
I1
I0
tp4060
bS'BPQ'
p4061
tp4062
Rp4063
g1
(g13
S'\x11\x00\x00\x00\x00\x00\x00\x00'
p4064
tp4065
Rp4066
sg1
(g2
(S'S3'
p4067
I0
I1
tp4068
Rp4069
(I3
S'|'
p4070
NNNI3
I1
I0
tp4071
bS'JYG'
p4072
tp4073
Rp4074
g1
(g13
S'\x03\x00\x00\x00\x00\x00\x00\x00'
p4075
tp4076
Rp4077
sg1
(g2
(S'S4'
p4078
I0
I1
tp4079
Rp4080
(I3
S'|'
p4081
NNNI4
I1
I0
tp4082
bS'BEHS'
p4083
tp4084
Rp4085
g1
(g13
S'\x03\x00\x00\x00\x00\x00\x00\x00'
p4086
tp4087
Rp4088
sg1
(g2
(S'S4'
p4089
I0
I1
tp4090
Rp4091
(I3
S'|'
p4092
NNNI4
I1
I0
tp4093
bS'AUBR'
p4094
tp4095
Rp4096
g1
(g13
S'\x07\x00\x00\x00\x00\x00\x00\x00'
p4097
tp4098
Rp4099
sg1
(g2
(S'S3'
p4100
I0
I1
tp4101
Rp4102
(I3
S'|'
p4103
NNNI3
I1
I0
tp4104
bS'DNA'
p4105
tp4106
Rp4107
g1
(g13
S'\n\x00\x00\x00\x00\x00\x00\x00'
p4108
tp4109
Rp4110
sg1
(g2
(S'S4'
p4111
I0
I1
tp4112
Rp4113
(I3
S'|'
p4114
NNNI4
I1
I0
tp4115
bS'ANSB'
p4116
tp4117
Rp4118
g1
(g13
S'\x03\x00\x00\x00\x00\x00\x00\x00'
p4119
tp4120
Rp4121
sg1
(g2
(S'S2'
p4122
I0
I1
tp4123
Rp4124
(I3
S'|'
p4125
NNNI2
I1
I0
tp4126
bS'DR'
p4127
tp4128
Rp4129
g1
(g13
S'\x05\x00\x00\x00\x00\x00\x00\x00'
p4130
tp4131
Rp4132
sg1
(g2
(S'S3'
p4133
I0
I1
tp4134
Rp4135
(I3
S'|'
p4136
NNNI3
I1
I0
tp4137
bS'RDP'
p4138
tp4139
Rp4140
g1
(g13
S'\x03\x00\x00\x00\x00\x00\x00\x00'
p4141
tp4142
Rp4143
sg1
(g2
(S'S3'
p4144
I0
I1
tp4145
Rp4146
(I3
S'|'
p4147
NNNI3
I1
I0
tp4148
bS'RPR'
p4149
tp4150
Rp4151
g1
(g13
S'\x04\x00\x00\x00\x00\x00\x00\x00'
p4152
tp4153
Rp4154
sg1
(g2
(S'S3'
p4155
I0
I1
tp4156
Rp4157
(I3
S'|'
p4158
NNNI3
I1
I0
tp4159
bS'BIH'
p4160
tp4161
Rp4162
g1
(g13
S'\x08\x00\x00\x00\x00\x00\x00\x00'
p4163
tp4164
Rp4165
sg1
(g2
(S'S3'
p4166
I0
I1
tp4167
Rp4168
(I3
S'|'
p4169
NNNI3
I1
I0
tp4170
bS'SDE'
p4171
tp4172
Rp4173
g1
(g13
S'\x03\x00\x00\x00\x00\x00\x00\x00'
p4174
tp4175
Rp4176
sg1
(g2
(S'S3'
p4177
I0
I1
tp4178
Rp4179
(I3
S'|'
p4180
NNNI3
I1
I0
tp4181
bS'GYN'
p4182
tp4183
Rp4184
g1
(g13
S'\x07\x00\x00\x00\x00\x00\x00\x00'
p4185
tp4186
Rp4187
sg1
(g2
(S'S4'
p4188
I0
I1
tp4189
Rp4190
(I3
S'|'
p4191
NNNI4
I1
I0
tp4192
bS'JAIS'
p4193
tp4194
Rp4195
g1
(g13
S'\x06\x00\x00\x00\x00\x00\x00\x00'
p4196
tp4197
Rp4198
sg1
(g2
(S'S3'
p4199
I0
I1
tp4200
Rp4201
(I3
S'|'
p4202
NNNI3
I1
I0
tp4203
bS'KWM'
p4204
tp4205
Rp4206
g1
(g13
S'\x04\x00\x00\x00\x00\x00\x00\x00'
p4207
tp4208
Rp4209
sg1
(g2
(S'S3'
p4210
I0
I1
tp4211
Rp4212
(I3
S'|'
p4213
NNNI3
I1
I0
tp4214
bS'KWO'
p4215
tp4216
Rp4217
g1
(g13
S'\x03\x00\x00\x00\x00\x00\x00\x00'
p4218
tp4219
Rp4220
sg1
(g2
(S'S4'
p4221
I0
I1
tp4222
Rp4223
(I3
S'|'
p4224
NNNI4
I1
I0
tp4225
bS'DMRX'
p4226
tp4227
Rp4228
g1
(g13
S'\x03\x00\x00\x00\x00\x00\x00\x00'
p4229
tp4230
Rp4231
sg1
(g2
(S'S3'
p4232
I0
I1
tp4233
Rp4234
(I3
S'|'
p4235
NNNI3
I1
I0
tp4236
bS'KWR'
p4237
tp4238
Rp4239
g1
(g13
S'\x03\x00\x00\x00\x00\x00\x00\x00'
p4240
tp4241
Rp4242
sg1
(g2
(S'S3'
p4243
I0
I1
tp4244
Rp4245
(I3
S'|'
p4246
NNNI3
I1
I0
tp4247
bS'UCA'
p4248
tp4249
Rp4250
g1
(g13
S'\x04\x00\x00\x00\x00\x00\x00\x00'
p4251
tp4252
Rp4253
sg1
(g2
(S'S3'
p4254
I0
I1
tp4255
Rp4256
(I3
S'|'
p4257
NNNI3
I1
I0
tp4258
bS'RPH'
p4259
tp4260
Rp4261
g1
(g13
S'\x10\x00\x00\x00\x00\x00\x00\x00'
p4262
tp4263
Rp4264
sg1
(g2
(S'S3'
p4265
I0
I1
tp4266
Rp4267
(I3
S'|'
p4268
NNNI3
I1
I0
tp4269
bS'POE'
p4270
tp4271
Rp4272
g1
(g13
S'\x02\x00\x00\x00\x00\x00\x00\x00'
p4273
tp4274
Rp4275
sg1
(g2
(S'S3'
p4276
I0
I1
tp4277
Rp4278
(I3
S'|'
p4279
NNNI3
I1
I0
tp4280
bS'KJH'
p4281
tp4282
Rp4283
g1
(g13
S'\x03\x00\x00\x00\x00\x00\x00\x00'
p4284
tp4285
Rp4286
sg1
(g2
(S'S4'
p4287
I0
I1
tp4288
Rp4289
(I3
S'|'
p4290
NNNI4
I1
I0
tp4291
bS'ALJN'
p4292
tp4293
Rp4294
g1
(g13
S'\x14\x00\x00\x00\x00\x00\x00\x00'
p4295
tp4296
Rp4297
sg1
(g2
(S'S3'
p4298
I0
I1
tp4299
Rp4300
(I3
S'|'
p4301
NNNI3
I1
I0
tp4302
bS'DHN'
p4303
tp4304
Rp4305
g1
(g13
S'\x18\x00\x00\x00\x00\x00\x00\x00'
p4306
tp4307
Rp4308
sg1
(g2
(S'S3'
p4309
I0
I1
tp4310
Rp4311
(I3
S'|'
p4312
NNNI3
I1
I0
tp4313
bS'FKM'
p4314
tp4315
Rp4316
g1
(g13
S'\x07\x00\x00\x00\x00\x00\x00\x00'
p4317
tp4318
Rp4319
sg1
(g2
(S'S3'
p4320
I0
I1
tp4321
Rp4322
(I3
S'|'
p4323
NNNI3
I1
I0
tp4324
bS'MLD'
p4325
tp4326
Rp4327
g1
(g13
S'\x04\x00\x00\x00\x00\x00\x00\x00'
p4328
tp4329
Rp4330
sg1
(g2
(S'S3'
p4331
I0
I1
tp4332
Rp4333
(I3
S'|'
p4334
NNNI3
I1
I0
tp4335
bS'JUC'
p4336
tp4337
Rp4338
g1
(g13
S'\r\x00\x00\x00\x00\x00\x00\x00'
p4339
tp4340
Rp4341
sg1
(g2
(S'S3'
p4342
I0
I1
tp4343
Rp4344
(I3
S'|'
p4345
NNNI3
I1
I0
tp4346
bS'DHG'
p4347
tp4348
Rp4349
g1
(g13
S'\x05\x00\x00\x00\x00\x00\x00\x00'
p4350
tp4351
Rp4352
sg1
(g2
(S'S3'
p4353
I0
I1
tp4354
Rp4355
(I3
S'|'
p4356
NNNI3
I1
I0
tp4357
bS'DHD'
p4358
tp4359
Rp4360
g1
(g13
S'\x07\x00\x00\x00\x00\x00\x00\x00'
p4361
tp4362
Rp4363
sg1
(g2
(S'S3'
p4364
I0
I1
tp4365
Rp4366
(I3
S'|'
p4367
NNNI3
I1
I0
tp4368
bS'DHA'
p4369
tp4370
Rp4371
g1
(g13
S'\x02\x00\x00\x00\x00\x00\x00\x00'
p4372
tp4373
Rp4374
sg1
(g2
(S'S3'
p4375
I0
I1
tp4376
Rp4377
(I3
S'|'
p4378
NNNI3
I1
I0
tp4379
bS'FKG'
p4380
tp4381
Rp4382
g1
(g13
S'\t\x00\x00\x00\x00\x00\x00\x00'
p4383
tp4384
Rp4385
sg1
(g2
(S'S3'
p4386
I0
I1
tp4387
Rp4388
(I3
S'|'
p4389
NNNI3
I1
I0
tp4390
bS'AJI'
p4391
tp4392
Rp4393
g1
(g13
S'\x05\x00\x00\x00\x00\x00\x00\x00'
p4394
tp4395
Rp4396
sg1
(g2
(S'S3'
p4397
I0
I1
tp4398
Rp4399
(I3
S'|'
p4400
NNNI3
I1
I0
tp4401
bS'AJJ'
p4402
tp4403
Rp4404
g1
(g13
S'\r\x00\x00\x00\x00\x00\x00\x00'
p4405
tp4406
Rp4407
sg1
(g2
(S'S3'
p4408
I0
I1
tp4409
Rp4410
(I3
S'|'
p4411
NNNI3
I1
I0
tp4412
bS'RBL'
p4413
tp4414
Rp4415
g1
(g13
S'\x0f\x00\x00\x00\x00\x00\x00\x00'
p4416
tp4417
Rp4418
sg1
(g2
(S'S3'
p4419
I0
I1
tp4420
Rp4421
(I3
S'|'
p4422
NNNI3
I1
I0
tp4423
bS'GOY'
p4424
tp4425
Rp4426
g1
(g13
S'\x06\x00\x00\x00\x00\x00\x00\x00'
p4427
tp4428
Rp4429
sg1
(g2
(S'S3'
p4430
I0
I1
tp4431
Rp4432
(I3
S'|'
p4433
NNNI3
I1
I0
tp4434
bS'SLJ'
p4435
tp4436
Rp4437
g1
(g13
S'\x02\x00\x00\x00\x00\x00\x00\x00'
p4438
tp4439
Rp4440
sg1
(g2
(S'S3'
p4441
I0
I1
tp4442
Rp4443
(I3
S'|'
p4444
NNNI3
I1
I0
tp4445
bS'SLD'
p4446
tp4447
Rp4448
g1
(g13
S'\x04\x00\x00\x00\x00\x00\x00\x00'
p4449
tp4450
Rp4451
sg1
(g2
(S'S4'
p4452
I0
I1
tp4453
Rp4454
(I3
S'|'
p4455
NNNI4
I1
I0
tp4456
bS'MMKB'
p4457
tp4458
Rp4459
g1
(g13
S'\x02\x00\x00\x00\x00\x00\x00\x00'
p4460
tp4461
Rp4462
sg1
(g2
(S'S3'
p4463
I0
I1
tp4464
Rp4465
(I3
S'|'
p4466
NNNI3
I1
I0
tp4467
bS'ARJ'
p4468
tp4469
Rp4470
g1
(g13
S'\x10\x00\x00\x00\x00\x00\x00\x00'
p4471
tp4472
Rp4473
sg1
(g2
(S'S3'
p4474
I0
I1
tp4475
Rp4476
(I3
S'|'
p4477
NNNI3
I1
I0
tp4478
bS'NRO'
p4479
tp4480
Rp4481
g1
(g13
S'\x02\x00\x00\x00\x00\x00\x00\x00'
p4482
tp4483
Rp4484
sg1
(g2
(S'S3'
p4485
I0
I1
tp4486
Rp4487
(I3
S'|'
p4488
NNNI3
I1
I0
tp4489
bS'JPL'
p4490
tp4491
Rp4492
g1
(g13
S'\x04\x00\x00\x00\x00\x00\x00\x00'
p4493
tp4494
Rp4495
sg1
(g2
(S'S3'
p4496
I0
I1
tp4497
Rp4498
(I3
S'|'
p4499
NNNI3
I1
I0
tp4500
bS'NRM'
p4501
tp4502
Rp4503
g1
(g13
S'\x03\x00\x00\x00\x00\x00\x00\x00'
p4504
tp4505
Rp4506
sg1
(g2
(S'S3'
p4507
I0
I1
tp4508
Rp4509
(I3
S'|'
p4510
NNNI3
I1
I0
tp4511
bS'JPE'
p4512
tp4513
Rp4514
g1
(g13
S'\x05\x00\x00\x00\x00\x00\x00\x00'
p4515
tp4516
Rp4517
sg1
(g2
(S'S4'
p4518
I0
I1
tp4519
Rp4520
(I3
S'|'
p4521
NNNI4
I1
I0
tp4522
bS'PTKC'
p4523
tp4524
Rp4525
g1
(g13
S'\r\x00\x00\x00\x00\x00\x00\x00'
p4526
tp4527
Rp4528
sg1
(g2
(S'S3'
p4529
I0
I1
tp4530
Rp4531
(I3
S'|'
p4532
NNNI3
I1
I0
tp4533
bS'BHW'
p4534
tp4535
Rp4536
g1
(g13
S'\x07\x00\x00\x00\x00\x00\x00\x00'
p4537
tp4538
Rp4539
sg1
(g2
(S'S3'
p4540
I0
I1
tp4541
Rp4542
(I3
S'|'
p4543
NNNI3
I1
I0
tp4544
bS'NRS'
p4545
tp4546
Rp4547
g1
(g13
S'\x05\x00\x00\x00\x00\x00\x00\x00'
p4548
tp4549
Rp4550
sg1
(g2
(S'S3'
p4551
I0
I1
tp4552
Rp4553
(I3
S'|'
p4554
NNNI3
I1
I0
tp4555
bS'WKR'
p4556
tp4557
Rp4558
g1
(g13
S'\t\x00\x00\x00\x00\x00\x00\x00'
p4559
tp4560
Rp4561
sg1
(g2
(S'S3'
p4562
I0
I1
tp4563
Rp4564
(I3
S'|'
p4565
NNNI3
I1
I0
tp4566
bS'NRW'
p4567
tp4568
Rp4569
g1
(g13
S'\x07\x00\x00\x00\x00\x00\x00\x00'
p4570
tp4571
Rp4572
sg1
(g2
(S'S3'
p4573
I0
I1
tp4574
Rp4575
(I3
S'|'
p4576
NNNI3
I1
I0
tp4577
bS'DZA'
p4578
tp4579
Rp4580
g1
(g13
S'\x07\x00\x00\x00\x00\x00\x00\x00'
p4581
tp4582
Rp4583
sg1
(g2
(S'S3'
p4584
I0
I1
tp4585
Rp4586
(I3
S'|'
p4587
NNNI3
I1
I0
tp4588
bS'PAR'
p4589
tp4590
Rp4591
g1
(g13
S'\x07\x00\x00\x00\x00\x00\x00\x00'
p4592
tp4593
Rp4594
sg1
(g2
(S'S3'
p4595
I0
I1
tp4596
Rp4597
(I3
S'|'
p4598
NNNI3
I1
I0
tp4599
bS'LDH'
p4600
tp4601
Rp4602
g1
(g13
S'\x1c\x00\x00\x00\x00\x00\x00\x00'
p4603
tp4604
Rp4605
sg1
(g2
(S'S3'
p4606
I0
I1
tp4607
Rp4608
(I3
S'|'
p4609
NNNI3
I1
I0
tp4610
bS'BOY'
p4611
tp4612
Rp4613
g1
(g13
S'\x0e\x00\x00\x00\x00\x00\x00\x00'
p4614
tp4615
Rp4616
sg1
(g2
(S'S2'
p4617
I0
I1
tp4618
Rp4619
(I3
S'|'
p4620
NNNI2
I1
I0
tp4621
bS'JU'
p4622
tp4623
Rp4624
g1
(g13
S'\x0e\x00\x00\x00\x00\x00\x00\x00'
p4625
tp4626
Rp4627
sg1
(g2
(S'S2'
p4628
I0
I1
tp4629
Rp4630
(I3
S'|'
p4631
NNNI2
I1
I0
tp4632
bS'WL'
p4633
tp4634
Rp4635
g1
(g13
S'\x13\x00\x00\x00\x00\x00\x00\x00'
p4636
tp4637
Rp4638
sg1
(g2
(S'S2'
p4639
I0
I1
tp4640
Rp4641
(I3
S'|'
p4642
NNNI2
I1
I0
tp4643
bS'JP'
p4644
tp4645
Rp4646
g1
(g13
S'\x18\x00\x00\x00\x00\x00\x00\x00'
p4647
tp4648
Rp4649
sg1
(g2
(S'S3'
p4650
I0
I1
tp4651
Rp4652
(I3
S'|'
p4653
NNNI3
I1
I0
tp4654
bS'BGP'
p4655
tp4656
Rp4657
g1
(g13
S'\n\x00\x00\x00\x00\x00\x00\x00'
p4658
tp4659
Rp4660
sg1
(g2
(S'S3'
p4661
I0
I1
tp4662
Rp4663
(I3
S'|'
p4664
NNNI3
I1
I0
tp4665
bS'BGS'
p4666
tp4667
Rp4668
g1
(g13
S'\r\x00\x00\x00\x00\x00\x00\x00'
p4669
tp4670
Rp4671
sg1
(g2
(S'S3'
p4672
I0
I1
tp4673
Rp4674
(I3
S'|'
p4675
NNNI3
I1
I0
tp4676
bS'RDL'
p4677
tp4678
Rp4679
g1
(g13
S'\x07\x00\x00\x00\x00\x00\x00\x00'
p4680
tp4681
Rp4682
sg1
(g2
(S'S4'
p4683
I0
I1
tp4684
Rp4685
(I3
S'|'
p4686
NNNI4
I1
I0
tp4687
bS'BARH'
p4688
tp4689
Rp4690
g1
(g13
S'\x04\x00\x00\x00\x00\x00\x00\x00'
p4691
tp4692
Rp4693
sg1
(g2
(S'S3'
p4694
I0
I1
tp4695
Rp4696
(I3
S'|'
p4697
NNNI3
I1
I0
tp4698
bS'BGZ'
p4699
tp4700
Rp4701
g1
(g13
S'\x05\x00\x00\x00\x00\x00\x00\x00'
p4702
tp4703
Rp4704
sg1
(g2
(S'S4'
p4705
I0
I1
tp4706
Rp4707
(I3
S'|'
p4708
NNNI4
I1
I0
tp4709
bS'MHRG'
p4710
tp4711
Rp4712
g1
(g13
S'\x03\x00\x00\x00\x00\x00\x00\x00'
p4713
tp4714
Rp4715
sg1
(g2
(S'S3'
p4716
I0
I1
tp4717
Rp4718
(I3
S'|'
p4719
NNNI3
I1
I0
tp4720
bS'HSA'
p4721
tp4722
Rp4723
g1
(g13
S'\x05\x00\x00\x00\x00\x00\x00\x00'
p4724
tp4725
Rp4726
sg1
(g2
(S'S3'
p4727
I0
I1
tp4728
Rp4729
(I3
S'|'
p4730
NNNI3
I1
I0
tp4731
bS'NAD'
p4732
tp4733
Rp4734
g1
(g13
S'\x0f\x00\x00\x00\x00\x00\x00\x00'
p4735
tp4736
Rp4737
sg1
(g2
(S'S4'
p4738
I0
I1
tp4739
Rp4740
(I3
S'|'
p4741
NNNI4
I1
I0
tp4742
bS'WENA'
p4743
tp4744
Rp4745
g1
(g13
S'\x02\x00\x00\x00\x00\x00\x00\x00'
p4746
tp4747
Rp4748
sg1
(g2
(S'S4'
p4749
I0
I1
tp4750
Rp4751
(I3
S'|'
p4752
NNNI4
I1
I0
tp4753
bS'DKDE'
p4754
tp4755
Rp4756
g1
(g13
S'\x02\x00\x00\x00\x00\x00\x00\x00'
p4757
tp4758
Rp4759
sg1
(g2
(S'S3'
p4760
I0
I1
tp4761
Rp4762
(I3
S'|'
p4763
NNNI3
I1
I0
tp4764
bS'KNN'
p4765
tp4766
Rp4767
g1
(g13
S'\t\x00\x00\x00\x00\x00\x00\x00'
p4768
tp4769
Rp4770
sg1
(g2
(S'S3'
p4771
I0
I1
tp4772
Rp4773
(I3
S'|'
p4774
NNNI3
I1
I0
tp4775
bS'BNZ'
p4776
tp4777
Rp4778
g1
(g13
S'\t\x00\x00\x00\x00\x00\x00\x00'
p4779
tp4780
Rp4781
sg1
(g2
(S'S3'
p4782
I0
I1
tp4783
Rp4784
(I3
S'|'
p4785
NNNI3
I1
I0
tp4786
bS'HAN'
p4787
tp4788
Rp4789
g1
(g13
S'\x05\x00\x00\x00\x00\x00\x00\x00'
p4790
tp4791
Rp4792
sg1
(g2
(S'S3'
p4793
I0
I1
tp4794
Rp4795
(I3
S'|'
p4796
NNNI3
I1
I0
tp4797
bS'KNF'
p4798
tp4799
Rp4800
g1
(g13
S'\x01\x00\x00\x00\x00\x00\x00\x00'
p4801
tp4802
Rp4803
sg1
(g2
(S'S2'
p4804
I0
I1
tp4805
Rp4806
(I3
S'|'
p4807
NNNI2
I1
I0
tp4808
bS'BH'
p4809
tp4810
Rp4811
g1
(g13
S'\n\x00\x00\x00\x00\x00\x00\x00'
p4812
tp4813
Rp4814
sg1
(g2
(S'S4'
p4815
I0
I1
tp4816
Rp4817
(I3
S'|'
p4818
NNNI4
I1
I0
tp4819
bS'SGNR'
p4820
tp4821
Rp4822
g1
(g13
S'\x06\x00\x00\x00\x00\x00\x00\x00'
p4823
tp4824
Rp4825
sg1
(g2
(S'S3'
p4826
I0
I1
tp4827
Rp4828
(I3
S'|'
p4829
NNNI3
I1
I0
tp4830
bS'KNE'
p4831
tp4832
Rp4833
g1
(g13
S'\n\x00\x00\x00\x00\x00\x00\x00'
p4834
tp4835
Rp4836
sg1
(g2
(S'S3'
p4837
I0
I1
tp4838
Rp4839
(I3
S'|'
p4840
NNNI3
I1
I0
tp4841
bS'BNV'
p4842
tp4843
Rp4844
g1
(g13
S'\x06\x00\x00\x00\x00\x00\x00\x00'
p4845
tp4846
Rp4847
sg1
(g2
(S'S3'
p4848
I0
I1
tp4849
Rp4850
(I3
S'|'
p4851
NNNI3
I1
I0
tp4852
bS'BNT'
p4853
tp4854
Rp4855
g1
(g13
S'\x03\x00\x00\x00\x00\x00\x00\x00'
p4856
tp4857
Rp4858
sg1
(g2
(S'S3'
p4859
I0
I1
tp4860
Rp4861
(I3
S'|'
p4862
NNNI3
I1
I0
tp4863
bS'SKI'
p4864
tp4865
Rp4866
g1
(g13
S'\x04\x00\x00\x00\x00\x00\x00\x00'
p4867
tp4868
Rp4869
sg1
(g2
(S'S4'
p4870
I0
I1
tp4871
Rp4872
(I3
S'|'
p4873
NNNI4
I1
I0
tp4874
bS'BNDA'
p4875
tp4876
Rp4877
g1
(g13
S'\x08\x00\x00\x00\x00\x00\x00\x00'
p4878
tp4879
Rp4880
sg1
(g2
(S'S3'
p4881
I0
I1
tp4882
Rp4883
(I3
S'|'
p4884
NNNI3
I1
I0
tp4885
bS'UJN'
p4886
tp4887
Rp4888
g1
(g13
S'\x10\x00\x00\x00\x00\x00\x00\x00'
p4889
tp4890
Rp4891
sg1
(g2
(S'S3'
p4892
I0
I1
tp4893
Rp4894
(I3
S'|'
p4895
NNNI3
I1
I0
tp4896
bS'DQG'
p4897
tp4898
Rp4899
g1
(g13
S'\x05\x00\x00\x00\x00\x00\x00\x00'
p4900
tp4901
Rp4902
sg1
(g2
(S'S3'
p4903
I0
I1
tp4904
Rp4905
(I3
S'|'
p4906
NNNI3
I1
I0
tp4907
bS'BNC'
p4908
tp4909
Rp4910
g1
(g13
S'\n\x00\x00\x00\x00\x00\x00\x00'
p4911
tp4912
Rp4913
sg1
(g2
(S'S3'
p4914
I0
I1
tp4915
Rp4916
(I3
S'|'
p4917
NNNI3
I1
I0
tp4918
bS'KNW'
p4919
tp4920
Rp4921
g1
(g13
S'\x14\x00\x00\x00\x00\x00\x00\x00'
p4922
tp4923
Rp4924
sg1
(g2
(S'S3'
p4925
I0
I1
tp4926
Rp4927
(I3
S'|'
p4928
NNNI3
I1
I0
tp4929
bS'KNT'
p4930
tp4931
Rp4932
g1
(g13
S'\x03\x00\x00\x00\x00\x00\x00\x00'
p4933
tp4934
Rp4935
sg1
(g2
(S'S3'
p4936
I0
I1
tp4937
Rp4938
(I3
S'|'
p4939
NNNI3
I1
I0
tp4940
bS'THB'
p4941
tp4942
Rp4943
g1
(g13
S'\x05\x00\x00\x00\x00\x00\x00\x00'
p4944
tp4945
Rp4946
sg1
(g2
(S'S3'
p4947
I0
I1
tp4948
Rp4949
(I3
S'|'
p4950
NNNI3
I1
I0
tp4951
bS'PHK'
p4952
tp4953
Rp4954
g1
(g13
S'\x05\x00\x00\x00\x00\x00\x00\x00'
p4955
tp4956
Rp4957
sg1
(g2
(S'S3'
p4958
I0
I1
tp4959
Rp4960
(I3
S'|'
p4961
NNNI3
I1
I0
tp4962
bS'MZP'
p4963
tp4964
Rp4965
g1
(g13
S'\x16\x00\x00\x00\x00\x00\x00\x00'
p4966
tp4967
Rp4968
sg1
(g2
(S'S3'
p4969
I0
I1
tp4970
Rp4971
(I3
S'|'
p4972
NNNI3
I1
I0
tp4973
bS'HJP'
p4974
tp4975
Rp4976
g1
(g13
S'\t\x00\x00\x00\x00\x00\x00\x00'
p4977
tp4978
Rp4979
sg1
(g2
(S'S3'
p4980
I0
I1
tp4981
Rp4982
(I3
S'|'
p4983
NNNI3
I1
I0
tp4984
bS'KIR'
p4985
tp4986
Rp4987
g1
(g13
S'\x16\x00\x00\x00\x00\x00\x00\x00'
p4988
tp4989
Rp4990
sg1
(g2
(S'S4'
p4991
I0
I1
tp4992
Rp4993
(I3
S'|'
p4994
NNNI4
I1
I0
tp4995
bS'GAYA'
p4996
tp4997
Rp4998
g1
(g13
S'\x13\x00\x00\x00\x00\x00\x00\x00'
p4999
tp5000
Rp5001
sg1
(g2
(S'S4'
p5002
I0
I1
tp5003
Rp5004
(I3
S'|'
p5005
NNNI4
I1
I0
tp5006
bS'PLCJ'
p5007
tp5008
Rp5009
g1
(g13
S'\x08\x00\x00\x00\x00\x00\x00\x00'
p5010
tp5011
Rp5012
sg1
(g2
(S'S3'
p5013
I0
I1
tp5014
Rp5015
(I3
S'|'
p5016
NNNI3
I1
I0
tp5017
bS'PHD'
p5018
tp5019
Rp5020
g1
(g13
S'\x06\x00\x00\x00\x00\x00\x00\x00'
p5021
tp5022
Rp5023
sg1
(g2
(S'S3'
p5024
I0
I1
tp5025
Rp5026
(I3
S'|'
p5027
NNNI3
I1
I0
tp5028
bS'MZC'
p5029
tp5030
Rp5031
g1
(g13
S'\x02\x00\x00\x00\x00\x00\x00\x00'
p5032
tp5033
Rp5034
sg1
(g2
(S'S3'
p5035
I0
I1
tp5036
Rp5037
(I3
S'|'
p5038
NNNI3
I1
I0
tp5039
bS'PHR'
p5040
tp5041
Rp5042
g1
(g13
S'\n\x00\x00\x00\x00\x00\x00\x00'
p5043
tp5044
Rp5045
sg1
(g2
(S'S3'
p5046
I0
I1
tp5047
Rp5048
(I3
S'|'
p5049
NNNI3
I1
I0
tp5050
bS'HJI'
p5051
tp5052
Rp5053
g1
(g13
S'\x08\x00\x00\x00\x00\x00\x00\x00'
p5054
tp5055
Rp5056
sg1
(g2
(S'S4'
p5057
I0
I1
tp5058
Rp5059
(I3
S'|'
p5060
NNNI4
I1
I0
tp5061
bS'ANAH'
p5062
tp5063
Rp5064
g1
(g13
S'\x02\x00\x00\x00\x00\x00\x00\x00'
p5065
tp5066
Rp5067
sg1
(g2
(S'S4'
p5068
I0
I1
tp5069
Rp5070
(I3
S'|'
p5071
NNNI4
I1
I0
tp5072
bS'DNWH'
p5073
tp5074
Rp5075
g1
(g13
S'\x02\x00\x00\x00\x00\x00\x00\x00'
p5076
tp5077
Rp5078
sg1
(g2
(S'S3'
p5079
I0
I1
tp5080
Rp5081
(I3
S'|'
p5082
NNNI3
I1
I0
tp5083
bS'CRR'
p5084
tp5085
Rp5086
g1
(g13
S'\x05\x00\x00\x00\x00\x00\x00\x00'
p5087
tp5088
Rp5089
sg1
(g2
(S'S3'
p5090
I0
I1
tp5091
Rp5092
(I3
S'|'
p5093
NNNI3
I1
I0
tp5094
bS'CRP'
p5095
tp5096
Rp5097
g1
(g13
S'\t\x00\x00\x00\x00\x00\x00\x00'
p5098
tp5099
Rp5100
sg1
(g2
(S'S3'
p5101
I0
I1
tp5102
Rp5103
(I3
S'|'
p5104
NNNI3
I1
I0
tp5105
bS'FDB'
p5106
tp5107
Rp5108
g1
(g13
S'\x0e\x00\x00\x00\x00\x00\x00\x00'
p5109
tp5110
Rp5111
sg1
(g2
(S'S4'
p5112
I0
I1
tp5113
Rp5114
(I3
S'|'
p5115
NNNI4
I1
I0
tp5116
bS'KLAR'
p5117
tp5118
Rp5119
g1
(g13
S'\x03\x00\x00\x00\x00\x00\x00\x00'
p5120
tp5121
Rp5122
sg1
(g2
(S'S3'
p5123
I0
I1
tp5124
Rp5125
(I3
S'|'
p5126
NNNI3
I1
I0
tp5127
bS'NAT'
p5128
tp5129
Rp5130
g1
(g13
S'\x03\x00\x00\x00\x00\x00\x00\x00'
p5131
tp5132
Rp5133
sg1
(g2
(S'S4'
p5134
I0
I1
tp5135
Rp5136
(I3
S'|'
p5137
NNNI4
I1
I0
tp5138
bS'SSNR'
p5139
tp5140
Rp5141
g1
(g13
S'\x02\x00\x00\x00\x00\x00\x00\x00'
p5142
tp5143
Rp5144
sg1
(g2
(S'S3'
p5145
I0
I1
tp5146
Rp5147
(I3
S'|'
p5148
NNNI3
I1
I0
tp5149
bS'DMO'
p5150
tp5151
Rp5152
g1
(g13
S'\t\x00\x00\x00\x00\x00\x00\x00'
p5153
tp5154
Rp5155
sg1
(g2
(S'S3'
p5156
I0
I1
tp5157
Rp5158
(I3
S'|'
p5159
NNNI3
I1
I0
tp5160
bS'NAC'
p5161
tp5162
Rp5163
g1
(g13
S'\x08\x00\x00\x00\x00\x00\x00\x00'
p5164
tp5165
Rp5166
sg1
(g2
(S'S4'
p5167
I0
I1
tp5168
Rp5169
(I3
S'|'
p5170
NNNI4
I1
I0
tp5171
bS'BNXR'
p5172
tp5173
Rp5174
g1
(g13
S'\x04\x00\x00\x00\x00\x00\x00\x00'
p5175
tp5176
Rp5177
sg1
(g2
(S'S3'
p5178
I0
I1
tp5179
Rp5180
(I3
S'|'
p5181
NNNI3
I1
I0
tp5182
bS'SKB'
p5183
tp5184
Rp5185
g1
(g13
S'\x07\x00\x00\x00\x00\x00\x00\x00'
p5186
tp5187
Rp5188
sg1
(g2
(S'S3'
p5189
I0
I1
tp5190
Rp5191
(I3
S'|'
p5192
NNNI3
I1
I0
tp5193
bS'CRJ'
p5194
tp5195
Rp5196
g1
(g13
S'\r\x00\x00\x00\x00\x00\x00\x00'
p5197
tp5198
Rp5199
sg1
(g2
(S'S3'
p5200
I0
I1
tp5201
Rp5202
(I3
S'|'
p5203
NNNI3
I1
I0
tp5204
bS'RGJ'
p5205
tp5206
Rp5207
g1
(g13
S'\x03\x00\x00\x00\x00\x00\x00\x00'
p5208
tp5209
Rp5210
sg1
(g2
(S'S3'
p5211
I0
I1
tp5212
Rp5213
(I3
S'|'
p5214
NNNI3
I1
I0
tp5215
bS'SKN'
p5216
tp5217
Rp5218
g1
(g13
S'\x04\x00\x00\x00\x00\x00\x00\x00'
p5219
tp5220
Rp5221
sg1
(g2
(S'S3'
p5222
I0
I1
tp5223
Rp5224
(I3
S'|'
p5225
NNNI3
I1
I0
tp5226
bS'RGL'
p5227
tp5228
Rp5229
g1
(g13
S'\x06\x00\x00\x00\x00\x00\x00\x00'
p5230
tp5231
Rp5232
sg1
(g2
(S'S3'
p5233
I0
I1
tp5234
Rp5235
(I3
S'|'
p5236
NNNI3
I1
I0
tp5237
bS'SMO'
p5238
tp5239
Rp5240
g1
(g13
S'\x04\x00\x00\x00\x00\x00\x00\x00'
p5241
tp5242
Rp5243
sg1
(g2
(S'S3'
p5244
I0
I1
tp5245
Rp5246
(I3
S'|'
p5247
NNNI3
I1
I0
tp5248
bS'SKJ'
p5249
tp5250
Rp5251
g1
(g13
S'\x05\x00\x00\x00\x00\x00\x00\x00'
p5252
tp5253
Rp5254
sg1
(g2
(S'S4'
p5255
I0
I1
tp5256
Rp5257
(I3
S'|'
p5258
NNNI4
I1
I0
tp5259
bS'BDTS'
p5260
tp5261
Rp5262
g1
(g13
S'\x07\x00\x00\x00\x00\x00\x00\x00'
p5263
tp5264
Rp5265
sg1
(g2
(S'S3'
p5266
I0
I1
tp5267
Rp5268
(I3
S'|'
p5269
NNNI3
I1
I0
tp5270
bS'JUD'
p5271
tp5272
Rp5273
g1
(g13
S'\x07\x00\x00\x00\x00\x00\x00\x00'
p5274
tp5275
Rp5276
sg1
(g2
(S'S3'
p5277
I0
I1
tp5278
Rp5279
(I3
S'|'
p5280
NNNI3
I1
I0
tp5281
bS'GDA'
p5282
tp5283
Rp5284
g1
(g13
S'\x06\x00\x00\x00\x00\x00\x00\x00'
p5285
tp5286
Rp5287
sg1
(g2
(S'S3'
p5288
I0
I1
tp5289
Rp5290
(I3
S'|'
p5291
NNNI3
I1
I0
tp5292
bS'BUP'
p5293
tp5294
Rp5295
g1
(g13
S'\x04\x00\x00\x00\x00\x00\x00\x00'
p5296
tp5297
Rp5298
sg1
(g2
(S'S3'
p5299
I0
I1
tp5300
Rp5301
(I3
S'|'
p5302
NNNI3
I1
I0
tp5303
bS'BLZ'
p5304
tp5305
Rp5306
g1
(g13
S'\x05\x00\x00\x00\x00\x00\x00\x00'
p5307
tp5308
Rp5309
sg1
(g2
(S'S4'
p5310
I0
I1
tp5311
Rp5312
(I3
S'|'
p5313
NNNI4
I1
I0
tp5314
bS'KSRA'
p5315
tp5316
Rp5317
g1
(g13
S'\x05\x00\x00\x00\x00\x00\x00\x00'
p5318
tp5319
Rp5320
sg1
(g2
(S'S4'
p5321
I0
I1
tp5322
Rp5323
(I3
S'|'
p5324
NNNI4
I1
I0
tp5325
bS'MALB'
p5326
tp5327
Rp5328
g1
(g13
S'\x04\x00\x00\x00\x00\x00\x00\x00'
p5329
tp5330
Rp5331
sg1
(g2
(S'S4'
p5332
I0
I1
tp5333
Rp5334
(I3
S'|'
p5335
NNNI4
I1
I0
tp5336
bS'RNPR'
p5337
tp5338
Rp5339
g1
(g13
S'\x03\x00\x00\x00\x00\x00\x00\x00'
p5340
tp5341
Rp5342
sg1
(g2
(S'S4'
p5343
I0
I1
tp5344
Rp5345
(I3
S'|'
p5346
NNNI4
I1
I0
tp5347
bS'RDUM'
p5348
tp5349
Rp5350
g1
(g13
S'\x02\x00\x00\x00\x00\x00\x00\x00'
p5351
tp5352
Rp5353
sg1
(g2
(S'S3'
p5354
I0
I1
tp5355
Rp5356
(I3
S'|'
p5357
NNNI3
I1
I0
tp5358
bS'LJN'
p5359
tp5360
Rp5361
g1
(g13
S'\x0c\x00\x00\x00\x00\x00\x00\x00'
p5362
tp5363
Rp5364
sg1
(g2
(S'S3'
p5365
I0
I1
tp5366
Rp5367
(I3
S'|'
p5368
NNNI3
I1
I0
tp5369
bS'GKP'
p5370
tp5371
Rp5372
g1
(g13
S'\x18\x00\x00\x00\x00\x00\x00\x00'
p5373
tp5374
Rp5375
sg1
(g2
(S'S3'
p5376
I0
I1
tp5377
Rp5378
(I3
S'|'
p5379
NNNI3
I1
I0
tp5380
bS'MHA'
p5381
tp5382
Rp5383
g1
(g13
S'\x02\x00\x00\x00\x00\x00\x00\x00'
p5384
tp5385
Rp5386
sg1
(g2
(S'S3'
p5387
I0
I1
tp5388
Rp5389
(I3
S'|'
p5390
NNNI3
I1
I0
tp5391
bS'GKH'
p5392
tp5393
Rp5394
g1
(g13
S'\x05\x00\x00\x00\x00\x00\x00\x00'
p5395
tp5396
Rp5397
sg1
(g2
(S'S4'
p5398
I0
I1
tp5399
Rp5400
(I3
S'|'
p5401
NNNI4
I1
I0
tp5402
bS'CKDL'
p5403
tp5404
Rp5405
g1
(g13
S'\x03\x00\x00\x00\x00\x00\x00\x00'
p5406
tp5407
Rp5408
sg1
(g2
(S'S3'
p5409
I0
I1
tp5410
Rp5411
(I3
S'|'
p5412
NNNI3
I1
I0
tp5413
bS'DDL'
p5414
tp5415
Rp5416
g1
(g13
S'\x03\x00\x00\x00\x00\x00\x00\x00'
p5417
tp5418
Rp5419
sg1
(g2
(S'S3'
p5420
I0
I1
tp5421
Rp5422
(I3
S'|'
p5423
NNNI3
I1
I0
tp5424
bS'JGR'
p5425
tp5426
Rp5427
g1
(g13
S'\x04\x00\x00\x00\x00\x00\x00\x00'
p5428
tp5429
Rp5430
sg1
(g2
(S'S3'
p5431
I0
I1
tp5432
Rp5433
(I3
S'|'
p5434
NNNI3
I1
I0
tp5435
bS'MHQ'
p5436
tp5437
Rp5438
g1
(g13
S'\x04\x00\x00\x00\x00\x00\x00\x00'
p5439
tp5440
Rp5441
sg1
(g2
(S'S3'
p5442
I0
I1
tp5443
Rp5444
(I3
S'|'
p5445
NNNI3
I1
I0
tp5446
bS'MOZ'
p5447
tp5448
Rp5449
g1
(g13
S'\n\x00\x00\x00\x00\x00\x00\x00'
p5450
tp5451
Rp5452
sg1
(g2
(S'S3'
p5453
I0
I1
tp5454
Rp5455
(I3
S'|'
p5456
NNNI3
I1
I0
tp5457
bS'ANG'
p5458
tp5459
Rp5460
g1
(g13
S'\r\x00\x00\x00\x00\x00\x00\x00'
p5461
tp5462
Rp5463
sg1
(g2
(S'S3'
p5464
I0
I1
tp5465
Rp5466
(I3
S'|'
p5467
NNNI3
I1
I0
tp5468
bS'JLS'
p5469
tp5470
Rp5471
g1
(g13
S'\x03\x00\x00\x00\x00\x00\x00\x00'
p5472
tp5473
Rp5474
sg1
(g2
(S'S3'
p5475
I0
I1
tp5476
Rp5477
(I3
S'|'
p5478
NNNI3
I1
I0
tp5479
bS'PSB'
p5480
tp5481
Rp5482
g1
(g13
S'\x02\x00\x00\x00\x00\x00\x00\x00'
p5483
tp5484
Rp5485
sg1
(g2
(S'S3'
p5486
I0
I1
tp5487
Rp5488
(I3
S'|'
p5489
NNNI3
I1
I0
tp5490
bS'MOR'
p5491
tp5492
Rp5493
g1
(g13
S'\x03\x00\x00\x00\x00\x00\x00\x00'
p5494
tp5495
Rp5496
sg1
(g2
(S'S4'
p5497
I0
I1
tp5498
Rp5499
(I3
S'|'
p5500
NNNI4
I1
I0
tp5501
bS'ACND'
p5502
tp5503
Rp5504
g1
(g13
S'\x02\x00\x00\x00\x00\x00\x00\x00'
p5505
tp5506
Rp5507
sg1
(g2
(S'S3'
p5508
I0
I1
tp5509
Rp5510
(I3
S'|'
p5511
NNNI3
I1
I0
tp5512
bS'RAA'
p5513
tp5514
Rp5515
g1
(g13
S'\x06\x00\x00\x00\x00\x00\x00\x00'
p5516
tp5517
Rp5518
sg1
(g2
(S'S3'
p5519
I0
I1
tp5520
Rp5521
(I3
S'|'
p5522
NNNI3
I1
I0
tp5523
bS'ANH'
p5524
tp5525
Rp5526
g1
(g13
S'\x03\x00\x00\x00\x00\x00\x00\x00'
p5527
tp5528
Rp5529
sg1
(g2
(S'S3'
p5530
I0
I1
tp5531
Rp5532
(I3
S'|'
p5533
NNNI3
I1
I0
tp5534
bS'MOT'
p5535
tp5536
Rp5537
g1
(g13
S'\x08\x00\x00\x00\x00\x00\x00\x00'
p5538
tp5539
Rp5540
sg1
(g2
(S'S3'
p5541
I0
I1
tp5542
Rp5543
(I3
S'|'
p5544
NNNI3
I1
I0
tp5545
bS'RNY'
p5546
tp5547
Rp5548
g1
(g13
S'\x0c\x00\x00\x00\x00\x00\x00\x00'
p5549
tp5550
Rp5551
sg1
(g2
(S'S4'
p5552
I0
I1
tp5553
Rp5554
(I3
S'|'
p5555
NNNI4
I1
I0
tp5556
bS'CKTD'
p5557
tp5558
Rp5559
g1
(g13
S'\x05\x00\x00\x00\x00\x00\x00\x00'
p5560
tp5561
Rp5562
sg1
(g2
(S'S3'
p5563
I0
I1
tp5564
Rp5565
(I3
S'|'
p5566
NNNI3
I1
I0
tp5567
bS'PSR'
p5568
tp5569
Rp5570
g1
(g13
S'\x02\x00\x00\x00\x00\x00\x00\x00'
p5571
tp5572
Rp5573
sg1
(g2
(S'S3'
p5574
I0
I1
tp5575
Rp5576
(I3
S'|'
p5577
NNNI3
I1
I0
tp5578
bS'JLL'
p5579
tp5580
Rp5581
g1
(g13
S'\x05\x00\x00\x00\x00\x00\x00\x00'
p5582
tp5583
Rp5584
sg1
(g2
(S'S4'
p5585
I0
I1
tp5586
Rp5587
(I3
S'|'
p5588
NNNI4
I1
I0
tp5589
bS'GDYA'
p5590
tp5591
Rp5592
g1
(g13
S'\x07\x00\x00\x00\x00\x00\x00\x00'
p5593
tp5594
Rp5595
sg1
(g2
(S'S3'
p5596
I0
I1
tp5597
Rp5598
(I3
S'|'
p5599
NNNI3
I1
I0
tp5600
bS'DDN'
p5601
tp5602
Rp5603
g1
(g13
S'\x05\x00\x00\x00\x00\x00\x00\x00'
p5604
tp5605
Rp5606
sg1
(g2
(S'S3'
p5607
I0
I1
tp5608
Rp5609
(I3
S'|'
p5610
NNNI3
I1
I0
tp5611
bS'DVL'
p5612
tp5613
Rp5614
g1
(g13
S'\x05\x00\x00\x00\x00\x00\x00\x00'
p5615
tp5616
Rp5617
sg1
(g2
(S'S3'
p5618
I0
I1
tp5619
Rp5620
(I3
S'|'
p5621
NNNI3
I1
I0
tp5622
bS'BCN'
p5623
tp5624
Rp5625
g1
(g13
S'\x08\x00\x00\x00\x00\x00\x00\x00'
p5626
tp5627
Rp5628
sg1
(g2
(S'S3'
p5629
I0
I1
tp5630
Rp5631
(I3
S'|'
p5632
NNNI3
I1
I0
tp5633
bS'ETW'
p5634
tp5635
Rp5636
g1
(g13
S'\x0b\x00\x00\x00\x00\x00\x00\x00'
p5637
tp5638
Rp5639
sg1
(g2
(S'S3'
p5640
I0
I1
tp5641
Rp5642
(I3
S'|'
p5643
NNNI3
I1
I0
tp5644
bS'HNG'
p5645
tp5646
Rp5647
g1
(g13
S'\x03\x00\x00\x00\x00\x00\x00\x00'
p5648
tp5649
Rp5650
sg1
(g2
(S'S3'
p5651
I0
I1
tp5652
Rp5653
(I3
S'|'
p5654
NNNI3
I1
I0
tp5655
bS'GWL'
p5656
tp5657
Rp5658
g1
(g13
S'\x12\x00\x00\x00\x00\x00\x00\x00'
p5659
tp5660
Rp5661
sg1
(g2
(S'S3'
p5662
I0
I1
tp5663
Rp5664
(I3
S'|'
p5665
NNNI3
I1
I0
tp5666
bS'TMZ'
p5667
tp5668
Rp5669
g1
(g13
S'\x05\x00\x00\x00\x00\x00\x00\x00'
p5670
tp5671
Rp5672
sg1
(g2
(S'S3'
p5673
I0
I1
tp5674
Rp5675
(I3
S'|'
p5676
NNNI3
I1
I0
tp5677
bS'PES'
p5678
tp5679
Rp5680
g1
(g13
S'\x02\x00\x00\x00\x00\x00\x00\x00'
p5681
tp5682
Rp5683
sg1
(g2
(S'S3'
p5684
I0
I1
tp5685
Rp5686
(I3
S'|'
p5687
NNNI3
I1
I0
tp5688
bS'KMS'
p5689
tp5690
Rp5691
g1
(g13
S'\x03\x00\x00\x00\x00\x00\x00\x00'
p5692
tp5693
Rp5694
sg1
(g2
(S'S3'
p5695
I0
I1
tp5696
Rp5697
(I3
S'|'
p5698
NNNI3
I1
I0
tp5699
bS'UMB'
p5700
tp5701
Rp5702
g1
(g13
S'\x1d\x00\x00\x00\x00\x00\x00\x00'
p5703
tp5704
Rp5705
sg1
(g2
(S'S3'
p5706
I0
I1
tp5707
Rp5708
(I3
S'|'
p5709
NNNI3
I1
I0
tp5710
bS'COI'
p5711
tp5712
Rp5713
g1
(g13
S'\x15\x00\x00\x00\x00\x00\x00\x00'
p5714
tp5715
Rp5716
sg1
(g2
(S'S4'
p5717
I0
I1
tp5718
Rp5719
(I3
S'|'
p5720
NNNI4
I1
I0
tp5721
bS'KMBL'
p5722
tp5723
Rp5724
g1
(g13
S'\x08\x00\x00\x00\x00\x00\x00\x00'
p5725
tp5726
Rp5727
sg1
(g2
(S'S3'
p5728
I0
I1
tp5729
Rp5730
(I3
S'|'
p5731
NNNI3
I1
I0
tp5732
bS'TWG'
p5733
tp5734
Rp5735
g1
(g13
S'\x02\x00\x00\x00\x00\x00\x00\x00'
p5736
tp5737
Rp5738
sg1
(g2
(S'S3'
p5739
I0
I1
tp5740
Rp5741
(I3
S'|'
p5742
NNNI3
I1
I0
tp5743
bS'ZBD'
p5744
tp5745
Rp5746
g1
(g13
S'\x08\x00\x00\x00\x00\x00\x00\x00'
p5747
tp5748
Rp5749
sg1
(g2
(S'S4'
p5750
I0
I1
tp5751
Rp5752
(I3
S'|'
p5753
NNNI4
I1
I0
tp5754
bS'ANDI'
p5755
tp5756
Rp5757
g1
(g13
S'\x04\x00\x00\x00\x00\x00\x00\x00'
p5758
tp5759
Rp5760
sg1
(g2
(S'S3'
p5761
I0
I1
tp5762
Rp5763
(I3
S'|'
p5764
NNNI3
I1
I0
tp5765
bS'HWH'
p5766
tp5767
Rp5768
g1
(g13
S'\x1f\x00\x00\x00\x00\x00\x00\x00'
p5769
tp5770
Rp5771
sg1
(g2
(S'S4'
p5772
I0
I1
tp5773
Rp5774
(I3
S'|'
p5775
NNNI4
I1
I0
tp5776
bS'DBRG'
p5777
tp5778
Rp5779
g1
(g13
S'\x04\x00\x00\x00\x00\x00\x00\x00'
p5780
tp5781
Rp5782
sg1
(g2
(S'S4'
p5783
I0
I1
tp5784
Rp5785
(I3
S'|'
p5786
NNNI4
I1
I0
tp5787
bS'TORI'
p5788
tp5789
Rp5790
g1
(g13
S'\x07\x00\x00\x00\x00\x00\x00\x00'
p5791
tp5792
Rp5793
sg1
(g2
(S'S4'
p5794
I0
I1
tp5795
Rp5796
(I3
S'|'
p5797
NNNI4
I1
I0
tp5798
bS'KKDE'
p5799
tp5800
Rp5801
g1
(g13
S'\x08\x00\x00\x00\x00\x00\x00\x00'
p5802
tp5803
Rp5804
sg1
(g2
(S'S3'
p5805
I0
I1
tp5806
Rp5807
(I3
S'|'
p5808
NNNI3
I1
I0
tp5809
bS'NJP'
p5810
tp5811
Rp5812
g1
(g13
S'\x14\x00\x00\x00\x00\x00\x00\x00'
p5813
tp5814
Rp5815
sg1
(g2
(S'S4'
p5816
I0
I1
tp5817
Rp5818
(I3
S'|'
p5819
NNNI4
I1
I0
tp5820
bS'DBRT'
p5821
tp5822
Rp5823
g1
(g13
S'\x02\x00\x00\x00\x00\x00\x00\x00'
p5824
tp5825
Rp5826
sg1
(g2
(S'S3'
p5827
I0
I1
tp5828
Rp5829
(I3
S'|'
p5830
NNNI3
I1
I0
tp5831
bS'VRI'
p5832
tp5833
Rp5834
g1
(g13
S'\x08\x00\x00\x00\x00\x00\x00\x00'
p5835
tp5836
Rp5837
sg1
(g2
(S'S2'
p5838
I0
I1
tp5839
Rp5840
(I3
S'|'
p5841
NNNI2
I1
I0
tp5842
bS'CH'
p5843
tp5844
Rp5845
g1
(g13
S'\r\x00\x00\x00\x00\x00\x00\x00'
p5846
tp5847
Rp5848
sg1
(g2
(S'S3'
p5849
I0
I1
tp5850
Rp5851
(I3
S'|'
p5852
NNNI3
I1
I0
tp5853
bS'SRE'
p5854
tp5855
Rp5856
g1
(g13
S'\x0f\x00\x00\x00\x00\x00\x00\x00'
p5857
tp5858
Rp5859
sg1
(g2
(S'S3'
p5860
I0
I1
tp5861
Rp5862
(I3
S'|'
p5863
NNNI3
I1
I0
tp5864
bS'SRJ'
p5865
tp5866
Rp5867
g1
(g13
S'\t\x00\x00\x00\x00\x00\x00\x00'
p5868
tp5869
Rp5870
sg1
(g2
(S'S3'
p5871
I0
I1
tp5872
Rp5873
(I3
S'|'
p5874
NNNI3
I1
I0
tp5875
bS'FZR'
p5876
tp5877
Rp5878
g1
(g13
S'\x06\x00\x00\x00\x00\x00\x00\x00'
p5879
tp5880
Rp5881
sg1
(g2
(S'S3'
p5882
I0
I1
tp5883
Rp5884
(I3
S'|'
p5885
NNNI3
I1
I0
tp5886
bS'SRI'
p5887
tp5888
Rp5889
g1
(g13
S'\x03\x00\x00\x00\x00\x00\x00\x00'
p5890
tp5891
Rp5892
sg1
(g2
(S'S3'
p5893
I0
I1
tp5894
Rp5895
(I3
S'|'
p5896
NNNI3
I1
I0
tp5897
bS'SRO'
p5898
tp5899
Rp5900
g1
(g13
S'\x04\x00\x00\x00\x00\x00\x00\x00'
p5901
tp5902
Rp5903
sg1
(g2
(S'S2'
p5904
I0
I1
tp5905
Rp5906
(I3
S'|'
p5907
NNNI2
I1
I0
tp5908
bS'CD'
p5909
tp5910
Rp5911
g1
(g13
S'\x0c\x00\x00\x00\x00\x00\x00\x00'
p5912
tp5913
Rp5914
sg1
(g2
(S'S3'
p5915
I0
I1
tp5916
Rp5917
(I3
S'|'
p5918
NNNI3
I1
I0
tp5919
bS'KRJ'
p5920
tp5921
Rp5922
g1
(g13
S'\x0c\x00\x00\x00\x00\x00\x00\x00'
p5923
tp5924
Rp5925
sg1
(g2
(S'S3'
p5926
I0
I1
tp5927
Rp5928
(I3
S'|'
p5929
NNNI3
I1
I0
tp5930
bS'NNW'
p5931
tp5932
Rp5933
g1
(g13
S'\x05\x00\x00\x00\x00\x00\x00\x00'
p5934
tp5935
Rp5936
sg1
(g2
(S'S3'
p5937
I0
I1
tp5938
Rp5939
(I3
S'|'
p5940
NNNI3
I1
I0
tp5941
bS'SRP'
p5942
tp5943
Rp5944
g1
(g13
S'\x06\x00\x00\x00\x00\x00\x00\x00'
p5945
tp5946
Rp5947
sg1
(g2
(S'S3'
p5948
I0
I1
tp5949
Rp5950
(I3
S'|'
p5951
NNNI3
I1
I0
tp5952
bS'SHC'
p5953
tp5954
Rp5955
g1
(g13
S'\x04\x00\x00\x00\x00\x00\x00\x00'
p5956
tp5957
Rp5958
sg1
(g2
(S'S3'
p5959
I0
I1
tp5960
Rp5961
(I3
S'|'
p5962
NNNI3
I1
I0
tp5963
bS'UDL'
p5964
tp5965
Rp5966
g1
(g13
S'\x08\x00\x00\x00\x00\x00\x00\x00'
p5967
tp5968
Rp5969
sg1
(g2
(S'S3'
p5970
I0
I1
tp5971
Rp5972
(I3
S'|'
p5973
NNNI3
I1
I0
tp5974
bS'FZD'
p5975
tp5976
Rp5977
g1
(g13
S'\x06\x00\x00\x00\x00\x00\x00\x00'
p5978
tp5979
Rp5980
sg1
(g2
(S'S4'
p5981
I0
I1
tp5982
Rp5983
(I3
S'|'
p5984
NNNI4
I1
I0
tp5985
bS'BDME'
p5986
tp5987
Rp5988
g1
(g13
S'\x01\x00\x00\x00\x00\x00\x00\x00'
p5989
tp5990
Rp5991
sg1
(g2
(S'S3'
p5992
I0
I1
tp5993
Rp5994
(I3
S'|'
p5995
NNNI3
I1
I0
tp5996
bS'BJF'
p5997
tp5998
Rp5999
g1
(g13
S'\x02\x00\x00\x00\x00\x00\x00\x00'
p6000
tp6001
Rp6002
sg1
(g2
(S'S3'
p6003
I0
I1
tp6004
Rp6005
(I3
S'|'
p6006
NNNI3
I1
I0
tp6007
bS'BJE'
p6008
tp6009
Rp6010
g1
(g13
S'\x07\x00\x00\x00\x00\x00\x00\x00'
p6011
tp6012
Rp6013
sg1
(g2
(S'S3'
p6014
I0
I1
tp6015
Rp6016
(I3
S'|'
p6017
NNNI3
I1
I0
tp6018
bS'CDG'
p6019
tp6020
Rp6021
g1
(g13
S'\x0e\x00\x00\x00\x00\x00\x00\x00'
p6022
tp6023
Rp6024
sg1
(g2
(S'S3'
p6025
I0
I1
tp6026
Rp6027
(I3
S'|'
p6028
NNNI3
I1
I0
tp6029
bS'TDO'
p6030
tp6031
Rp6032
g1
(g13
S'\x05\x00\x00\x00\x00\x00\x00\x00'
p6033
tp6034
Rp6035
sg1
(g2
(S'S3'
p6036
I0
I1
tp6037
Rp6038
(I3
S'|'
p6039
NNNI3
I1
I0
tp6040
bS'TDL'
p6041
tp6042
Rp6043
g1
(g13
S'\x15\x00\x00\x00\x00\x00\x00\x00'
p6044
tp6045
Rp6046
sg1
(g2
(S'S3'
p6047
I0
I1
tp6048
Rp6049
(I3
S'|'
p6050
NNNI3
I1
I0
tp6051
bS'RUB'
p6052
tp6053
Rp6054
g1
(g13
S'\x02\x00\x00\x00\x00\x00\x00\x00'
p6055
tp6056
Rp6057
sg1
(g2
(S'S3'
p6058
I0
I1
tp6059
Rp6060
(I3
S'|'
p6061
NNNI3
I1
I0
tp6062
bS'NOK'
p6063
tp6064
Rp6065
g1
(g13
S'\n\x00\x00\x00\x00\x00\x00\x00'
p6066
tp6067
Rp6068
sg1
(g2
(S'S3'
p6069
I0
I1
tp6070
Rp6071
(I3
S'|'
p6072
NNNI3
I1
I0
tp6073
bS'NMZ'
p6074
tp6075
Rp6076
g1
(g13
S'\x06\x00\x00\x00\x00\x00\x00\x00'
p6077
tp6078
Rp6079
sg1
(g2
(S'S3'
p6080
I0
I1
tp6081
Rp6082
(I3
S'|'
p6083
NNNI3
I1
I0
tp6084
bS'PKU'
p6085
tp6086
Rp6087
g1
(g13
S'\x06\x00\x00\x00\x00\x00\x00\x00'
p6088
tp6089
Rp6090
sg1
(g2
(S'S3'
p6091
I0
I1
tp6092
Rp6093
(I3
S'|'
p6094
NNNI3
I1
I0
tp6095
bS'RNC'
p6096
tp6097
Rp6098
g1
(g13
S'\n\x00\x00\x00\x00\x00\x00\x00'
p6099
tp6100
Rp6101
sg1
(g2
(S'S3'
p6102
I0
I1
tp6103
Rp6104
(I3
S'|'
p6105
NNNI3
I1
I0
tp6106
bS'BJU'
p6107
tp6108
Rp6109
g1
(g13
S'\x1b\x00\x00\x00\x00\x00\x00\x00'
p6110
tp6111
Rp6112
sg1
(g2
(S'S4'
p6113
I0
I1
tp6114
Rp6115
(I3
S'|'
p6116
NNNI4
I1
I0
tp6117
bS'RURA'
p6118
tp6119
Rp6120
g1
(g13
S'\x05\x00\x00\x00\x00\x00\x00\x00'
p6121
tp6122
Rp6123
sg1
(g2
(S'S2'
p6124
I0
I1
tp6125
Rp6126
(I3
S'|'
p6127
NNNI2
I1
I0
tp6128
bS'RK'
p6129
tp6130
Rp6131
g1
(g13
S'\n\x00\x00\x00\x00\x00\x00\x00'
p6132
tp6133
Rp6134
sg1
(g2
(S'S3'
p6135
I0
I1
tp6136
Rp6137
(I3
S'|'
p6138
NNNI3
I1
I0
tp6139
bS'MKB'
p6140
tp6141
Rp6142
g1
(g13
S'\x03\x00\x00\x00\x00\x00\x00\x00'
p6143
tp6144
Rp6145
sg1
(g2
(S'S3'
p6146
I0
I1
tp6147
Rp6148
(I3
S'|'
p6149
NNNI3
I1
I0
tp6150
bS'MKA'
p6151
tp6152
Rp6153
g1
(g13
S'\x0e\x00\x00\x00\x00\x00\x00\x00'
p6154
tp6155
Rp6156
sg1
(g2
(S'S3'
p6157
I0
I1
tp6158
Rp6159
(I3
S'|'
p6160
NNNI3
I1
I0
tp6161
bS'GNU'
p6162
tp6163
Rp6164
g1
(g13
S'\x03\x00\x00\x00\x00\x00\x00\x00'
p6165
tp6166
Rp6167
sg1
(g2
(S'S3'
p6168
I0
I1
tp6169
Rp6170
(I3
S'|'
p6171
NNNI3
I1
I0
tp6172
bS'MKN'
p6173
tp6174
Rp6175
g1
(g13
S'\x07\x00\x00\x00\x00\x00\x00\x00'
p6176
tp6177
Rp6178
sg1
(g2
(S'S3'
p6179
I0
I1
tp6180
Rp6181
(I3
S'|'
p6182
NNNI3
I1
I0
tp6183
bS'BXR'
p6184
tp6185
Rp6186
g1
(g13
S'\t\x00\x00\x00\x00\x00\x00\x00'
p6187
tp6188
Rp6189
sg1
(g2
(S'S3'
p6190
I0
I1
tp6191
Rp6192
(I3
S'|'
p6193
NNNI3
I1
I0
tp6194
bS'JHL'
p6195
tp6196
Rp6197
g1
(g13
S'\x10\x00\x00\x00\x00\x00\x00\x00'
p6198
tp6199
Rp6200
sg1
(g2
(S'S3'
p6201
I0
I1
tp6202
Rp6203
(I3
S'|'
p6204
NNNI3
I1
I0
tp6205
bS'CVP'
p6206
tp6207
Rp6208
g1
(g13
S'\x06\x00\x00\x00\x00\x00\x00\x00'
p6209
tp6210
Rp6211
sg1
(g2
(S'S3'
p6212
I0
I1
tp6213
Rp6214
(I3
S'|'
p6215
NNNI3
I1
I0
tp6216
bS'JHN'
p6217
tp6218
Rp6219
g1
(g13
S'\x03\x00\x00\x00\x00\x00\x00\x00'
p6220
tp6221
Rp6222
sg1
(g2
(S'S4'
p6223
I0
I1
tp6224
Rp6225
(I3
S'|'
p6226
NNNI4
I1
I0
tp6227
bS'THVM'
p6228
tp6229
Rp6230
g1
(g13
S'\x08\x00\x00\x00\x00\x00\x00\x00'
p6231
tp6232
Rp6233
sg1
(g2
(S'S3'
p6234
I0
I1
tp6235
Rp6236
(I3
S'|'
p6237
NNNI3
I1
I0
tp6238
bS'JHS'
p6239
tp6240
Rp6241
g1
(g13
S'\x1e\x00\x00\x00\x00\x00\x00\x00'
p6242
tp6243
Rp6244
sg1
(g2
(S'S3'
p6245
I0
I1
tp6246
Rp6247
(I3
S'|'
p6248
NNNI3
I1
I0
tp6249
bS'BXJ'
p6250
tp6251
Rp6252
g1
(g13
S'\x04\x00\x00\x00\x00\x00\x00\x00'
p6253
tp6254
Rp6255
sg1
(g2
(S'S3'
p6256
I0
I1
tp6257
Rp6258
(I3
S'|'
p6259
NNNI3
I1
I0
tp6260
bS'HYT'
p6261
tp6262
Rp6263
g1
(g13
S'\x05\x00\x00\x00\x00\x00\x00\x00'
p6264
tp6265
Rp6266
sg1
(g2
(S'S3'
p6267
I0
I1
tp6268
Rp6269
(I3
S'|'
p6270
NNNI3
I1
I0
tp6271
bS'GNG'
p6272
tp6273
Rp6274
g1
(g13
S'\x06\x00\x00\x00\x00\x00\x00\x00'
p6275
tp6276
Rp6277
sg1
(g2
(S'S3'
p6278
I0
I1
tp6279
Rp6280
(I3
S'|'
p6281
NNNI3
I1
I0
tp6282
bS'BXN'
p6283
tp6284
Rp6285
g1
(g13
S'\n\x00\x00\x00\x00\x00\x00\x00'
p6286
tp6287
Rp6288
sg1
(g2
(S'S3'
p6289
I0
I1
tp6290
Rp6291
(I3
S'|'
p6292
NNNI3
I1
I0
tp6293
bS'SGD'
p6294
tp6295
Rp6296
g1
(g13
S'\x08\x00\x00\x00\x00\x00\x00\x00'
p6297
tp6298
Rp6299
sg1
(g2
(S'S4'
p6300
I0
I1
tp6301
Rp6302
(I3
S'|'
p6303
NNNI4
I1
I0
tp6304
bS'SDGH'
p6305
tp6306
Rp6307
g1
(g13
S'\x04\x00\x00\x00\x00\x00\x00\x00'
p6308
tp6309
Rp6310
sg1
(g2
(S'S3'
p6311
I0
I1
tp6312
Rp6313
(I3
S'|'
p6314
NNNI3
I1
I0
tp6315
bS'MBM'
p6316
tp6317
Rp6318
g1
(g13
S'\x02\x00\x00\x00\x00\x00\x00\x00'
p6319
tp6320
Rp6321
sg1
(g2
(S'S3'
p6322
I0
I1
tp6323
Rp6324
(I3
S'|'
p6325
NNNI3
I1
I0
tp6326
bS'MBI'
p6327
tp6328
Rp6329
g1
(g13
S'\x04\x00\x00\x00\x00\x00\x00\x00'
p6330
tp6331
Rp6332
sg1
(g2
(S'S3'
p6333
I0
I1
tp6334
Rp6335
(I3
S'|'
p6336
NNNI3
I1
I0
tp6337
bS'PPI'
p6338
tp6339
Rp6340
g1
(g13
S'\t\x00\x00\x00\x00\x00\x00\x00'
p6341
tp6342
Rp6343
sg1
(g2
(S'S3'
p6344
I0
I1
tp6345
Rp6346
(I3
S'|'
p6347
NNNI3
I1
I0
tp6348
bS'NEW'
p6349
tp6350
Rp6351
g1
(g13
S'\x03\x00\x00\x00\x00\x00\x00\x00'
p6352
tp6353
Rp6354
sg1
(g2
(S'S3'
p6355
I0
I1
tp6356
Rp6357
(I3
S'|'
p6358
NNNI3
I1
I0
tp6359
bS'GAR'
p6360
tp6361
Rp6362
g1
(g13
S'\x07\x00\x00\x00\x00\x00\x00\x00'
p6363
tp6364
Rp6365
sg1
(g2
(S'S3'
p6366
I0
I1
tp6367
Rp6368
(I3
S'|'
p6369
NNNI3
I1
I0
tp6370
bS'GAP'
p6371
tp6372
Rp6373
g1
(g13
S'\x02\x00\x00\x00\x00\x00\x00\x00'
p6374
tp6375
Rp6376
sg1
(g2
(S'S3'
p6377
I0
I1
tp6378
Rp6379
(I3
S'|'
p6380
NNNI3
I1
I0
tp6381
bS'SOP'
p6382
tp6383
Rp6384
g1
(g13
S'\x02\x00\x00\x00\x00\x00\x00\x00'
p6385
tp6386
Rp6387
sg1
(g2
(S'S3'
p6388
I0
I1
tp6389
Rp6390
(I3
S'|'
p6391
NNNI3
I1
I0
tp6392
bS'HRT'
p6393
tp6394
Rp6395
g1
(g13
S'\x02\x00\x00\x00\x00\x00\x00\x00'
p6396
tp6397
Rp6398
sg1
(g2
(S'S3'
p6399
I0
I1
tp6400
Rp6401
(I3
S'|'
p6402
NNNI3
I1
I0
tp6403
bS'GAE'
p6404
tp6405
Rp6406
g1
(g13
S'\x02\x00\x00\x00\x00\x00\x00\x00'
p6407
tp6408
Rp6409
sg1
(g2
(S'S3'
p6410
I0
I1
tp6411
Rp6412
(I3
S'|'
p6413
NNNI3
I1
I0
tp6414
bS'SWV'
p6415
tp6416
Rp6417
g1
(g13
S'\x08\x00\x00\x00\x00\x00\x00\x00'
p6418
tp6419
Rp6420
sg1
(g2
(S'S3'
p6421
I0
I1
tp6422
Rp6423
(I3
S'|'
p6424
NNNI3
I1
I0
tp6425
bS'JAT'
p6426
tp6427
Rp6428
g1
(g13
S'\x0e\x00\x00\x00\x00\x00\x00\x00'
p6429
tp6430
Rp6431
sg1
(g2
(S'S3'
p6432
I0
I1
tp6433
Rp6434
(I3
S'|'
p6435
NNNI3
I1
I0
tp6436
bS'MXH'
p6437
tp6438
Rp6439
g1
(g13
S'\x03\x00\x00\x00\x00\x00\x00\x00'
p6440
tp6441
Rp6442
sg1
(g2
(S'S2'
p6443
I0
I1
tp6444
Rp6445
(I3
S'|'
p6446
NNNI2
I1
I0
tp6447
bS'VG'
p6448
tp6449
Rp6450
g1
(g13
S'\x0f\x00\x00\x00\x00\x00\x00\x00'
p6451
tp6452
Rp6453
sg1
(g2
(S'S3'
p6454
I0
I1
tp6455
Rp6456
(I3
S'|'
p6457
NNNI3
I1
I0
tp6458
bS'HPP'
p6459
tp6460
Rp6461
g1
(g13
S'\x04\x00\x00\x00\x00\x00\x00\x00'
p6462
tp6463
Rp6464
sg1
(g2
(S'S4'
p6465
I0
I1
tp6466
Rp6467
(I3
S'|'
p6468
NNNI4
I1
I0
tp6469
bS'SHNG'
p6470
tp6471
Rp6472
g1
(g13
S'\x02\x00\x00\x00\x00\x00\x00\x00'
p6473
tp6474
Rp6475
sg1
(g2
(S'S3'
p6476
I0
I1
tp6477
Rp6478
(I3
S'|'
p6479
NNNI3
I1
I0
tp6480
bS'SHG'
p6481
tp6482
Rp6483
g1
(g13
S'\x0b\x00\x00\x00\x00\x00\x00\x00'
p6484
tp6485
Rp6486
sg1
(g2
(S'S4'
p6487
I0
I1
tp6488
Rp6489
(I3
S'|'
p6490
NNNI4
I1
I0
tp6491
bS'ADRA'
p6492
tp6493
Rp6494
g1
(g13
S'\x10\x00\x00\x00\x00\x00\x00\x00'
p6495
tp6496
Rp6497
sg1
(g2
(S'S3'
p6498
I0
I1
tp6499
Rp6500
(I3
S'|'
p6501
NNNI3
I1
I0
tp6502
bS'HRS'
p6503
tp6504
Rp6505
g1
(g13
S'\x08\x00\x00\x00\x00\x00\x00\x00'
p6506
tp6507
Rp6508
sg1
(g2
(S'S4'
p6509
I0
I1
tp6510
Rp6511
(I3
S'|'
p6512
NNNI4
I1
I0
tp6513
bS'KMNC'
p6514
tp6515
Rp6516
g1
(g13
S'\x06\x00\x00\x00\x00\x00\x00\x00'
p6517
tp6518
Rp6519
sg1
(g2
(S'S3'
p6520
I0
I1
tp6521
Rp6522
(I3
S'|'
p6523
NNNI3
I1
I0
tp6524
bS'MTD'
p6525
tp6526
Rp6527
g1
(g13
S'\x0f\x00\x00\x00\x00\x00\x00\x00'
p6528
tp6529
Rp6530
sg1
(g2
(S'S3'
p6531
I0
I1
tp6532
Rp6533
(I3
S'|'
p6534
NNNI3
I1
I0
tp6535
bS'RJT'
p6536
tp6537
Rp6538
g1
(g13
S'\x0c\x00\x00\x00\x00\x00\x00\x00'
p6539
tp6540
Rp6541
sg1
(g2
(S'S3'
p6542
I0
I1
tp6543
Rp6544
(I3
S'|'
p6545
NNNI3
I1
I0
tp6546
bS'PWS'
p6547
tp6548
Rp6549
g1
(g13
S'\x04\x00\x00\x00\x00\x00\x00\x00'
p6550
tp6551
Rp6552
sg1
(g2
(S'S3'
p6553
I0
I1
tp6554
Rp6555
(I3
S'|'
p6556
NNNI3
I1
I0
tp6557
bS'ARW'
p6558
tp6559
Rp6560
g1
(g13
S'\x03\x00\x00\x00\x00\x00\x00\x00'
p6561
tp6562
Rp6563
sg1
(g2
(S'S3'
p6564
I0
I1
tp6565
Rp6566
(I3
S'|'
p6567
NNNI3
I1
I0
tp6568
bS'RJG'
p6569
tp6570
Rp6571
g1
(g13
S'\x02\x00\x00\x00\x00\x00\x00\x00'
p6572
tp6573
Rp6574
sg1
(g2
(S'S3'
p6575
I0
I1
tp6576
Rp6577
(I3
S'|'
p6578
NNNI3
I1
I0
tp6579
bS'ARA'
p6580
tp6581
Rp6582
g1
(g13
S'\n\x00\x00\x00\x00\x00\x00\x00'
p6583
tp6584
Rp6585
sg1
(g2
(S'S4'
p6586
I0
I1
tp6587
Rp6588
(I3
S'|'
p6589
NNNI4
I1
I0
tp6590
bS'PNBE'
p6591
tp6592
Rp6593
g1
(g13
S'\x1a\x00\x00\x00\x00\x00\x00\x00'
p6594
tp6595
Rp6596
sg1
(g2
(S'S3'
p6597
I0
I1
tp6598
Rp6599
(I3
S'|'
p6600
NNNI3
I1
I0
tp6601
bS'JAJ'
p6602
tp6603
Rp6604
g1
(g13
S'\x12\x00\x00\x00\x00\x00\x00\x00'
p6605
tp6606
Rp6607
sg1
(g2
(S'S4'
p6608
I0
I1
tp6609
Rp6610
(I3
S'|'
p6611
NNNI4
I1
I0
tp6612
bS'CNDM'
p6613
tp6614
Rp6615
g1
(g13
S'\x07\x00\x00\x00\x00\x00\x00\x00'
p6616
tp6617
Rp6618
sg1
(g2
(S'S3'
p6619
I0
I1
tp6620
Rp6621
(I3
S'|'
p6622
NNNI3
I1
I0
tp6623
bS'RJK'
p6624
tp6625
Rp6626
g1
(g13
S'\x06\x00\x00\x00\x00\x00\x00\x00'
p6627
tp6628
Rp6629
sg1
(g2
(S'S2'
p6630
I0
I1
tp6631
Rp6632
(I3
S'|'
p6633
NNNI2
I1
I0
tp6634
bS'BE'
p6635
tp6636
Rp6637
g1
(g13
S'\x16\x00\x00\x00\x00\x00\x00\x00'
p6638
tp6639
Rp6640
sg1
(g2
(S'S3'
p6641
I0
I1
tp6642
Rp6643
(I3
S'|'
p6644
NNNI3
I1
I0
tp6645
bS'POU'
p6646
tp6647
Rp6648
g1
(g13
S'\x03\x00\x00\x00\x00\x00\x00\x00'
p6649
tp6650
Rp6651
sg1
(g2
(S'S3'
p6652
I0
I1
tp6653
Rp6654
(I3
S'|'
p6655
NNNI3
I1
I0
tp6656
bS'KQU'
p6657
tp6658
Rp6659
g1
(g13
S'\x03\x00\x00\x00\x00\x00\x00\x00'
p6660
tp6661
Rp6662
sg1
(g2
(S'S3'
p6663
I0
I1
tp6664
Rp6665
(I3
S'|'
p6666
NNNI3
I1
I0
tp6667
bS'HBJ'
p6668
tp6669
Rp6670
g1
(g13
S'\x0f\x00\x00\x00\x00\x00\x00\x00'
p6671
tp6672
Rp6673
sg1
(g2
(S'S4'
p6674
I0
I1
tp6675
Rp6676
(I3
S'|'
p6677
NNNI4
I1
I0
tp6678
bS'BDNP'
p6679
tp6680
Rp6681
g1
(g13
S'\x02\x00\x00\x00\x00\x00\x00\x00'
p6682
tp6683
Rp6684
sg1
(g2
(S'S4'
p6685
I0
I1
tp6686
Rp6687
(I3
S'|'
p6688
NNNI4
I1
I0
tp6689
bS'YJUD'
p6690
tp6691
Rp6692
g1
(g13
S'\x04\x00\x00\x00\x00\x00\x00\x00'
p6693
tp6694
Rp6695
sg1
(g2
(S'S3'
p6696
I0
I1
tp6697
Rp6698
(I3
S'|'
p6699
NNNI3
I1
I0
tp6700
bS'DRH'
p6701
tp6702
Rp6703
g1
(g13
S'\x04\x00\x00\x00\x00\x00\x00\x00'
p6704
tp6705
Rp6706
sg1
(g2
(S'S3'
p6707
I0
I1
tp6708
Rp6709
(I3
S'|'
p6710
NNNI3
I1
I0
tp6711
bS'BOJ'
p6712
tp6713
Rp6714
g1
(g13
S'\x05\x00\x00\x00\x00\x00\x00\x00'
p6715
tp6716
Rp6717
sg1
(g2
(S'S3'
p6718
I0
I1
tp6719
Rp6720
(I3
S'|'
p6721
NNNI3
I1
I0
tp6722
bS'CCK'
p6723
tp6724
Rp6725
g1
(g13
S'\x03\x00\x00\x00\x00\x00\x00\x00'
p6726
tp6727
Rp6728
sg1
(g2
(S'S3'
p6729
I0
I1
tp6730
Rp6731
(I3
S'|'
p6732
NNNI3
I1
I0
tp6733
bS'VYN'
p6734
tp6735
Rp6736
g1
(g13
S'\x03\x00\x00\x00\x00\x00\x00\x00'
p6737
tp6738
Rp6739
sg1
(g2
(S'S3'
p6740
I0
I1
tp6741
Rp6742
(I3
S'|'
p6743
NNNI3
I1
I0
tp6744
bS'BOE'
p6745
tp6746
Rp6747
g1
(g13
S'\r\x00\x00\x00\x00\x00\x00\x00'
p6748
tp6749
Rp6750
sg1
(g2
(S'S4'
p6751
I0
I1
tp6752
Rp6753
(I3
S'|'
p6754
NNNI4
I1
I0
tp6755
bS'NDLS'
p6756
tp6757
Rp6758
g1
(g13
S'$\x00\x00\x00\x00\x00\x00\x00'
p6759
tp6760
Rp6761
sg1
(g2
(S'S3'
p6762
I0
I1
tp6763
Rp6764
(I3
S'|'
p6765
NNNI3
I1
I0
tp6766
bS'NNO'
p6767
tp6768
Rp6769
g1
(g13
S'\x03\x00\x00\x00\x00\x00\x00\x00'
p6770
tp6771
Rp6772
sg1
(g2
(S'S3'
p6773
I0
I1
tp6774
Rp6775
(I3
S'|'
p6776
NNNI3
I1
I0
tp6777
bS'UHP'
p6778
tp6779
Rp6780
g1
(g13
S'\x03\x00\x00\x00\x00\x00\x00\x00'
p6781
tp6782
Rp6783
sg1
(g2
(S'S4'
p6784
I0
I1
tp6785
Rp6786
(I3
S'|'
p6787
NNNI4
I1
I0
tp6788
bS'PUNE'
p6789
tp6790
Rp6791
g1
(g13
S'\x1a\x00\x00\x00\x00\x00\x00\x00'
p6792
tp6793
Rp6794
sg1
(g2
(S'S4'
p6795
I0
I1
tp6796
Rp6797
(I3
S'|'
p6798
NNNI4
I1
I0
tp6799
bS'SIOB'
p6800
tp6801
Rp6802
g1
(g13
S'\x08\x00\x00\x00\x00\x00\x00\x00'
p6803
tp6804
Rp6805
sg1
(g2
(S'S4'
p6806
I0
I1
tp6807
Rp6808
(I3
S'|'
p6809
NNNI4
I1
I0
tp6810
bS'HRPG'
p6811
tp6812
Rp6813
g1
(g13
S'\x02\x00\x00\x00\x00\x00\x00\x00'
p6814
tp6815
Rp6816
sg1
(g2
(S'S3'
p6817
I0
I1
tp6818
Rp6819
(I3
S'|'
p6820
NNNI3
I1
I0
tp6821
bS'MYS'
p6822
tp6823
Rp6824
g1
(g13
S'\x08\x00\x00\x00\x00\x00\x00\x00'
p6825
tp6826
Rp6827
sg1
(g2
(S'S3'
p6828
I0
I1
tp6829
Rp6830
(I3
S'|'
p6831
NNNI3
I1
I0
tp6832
bS'MYR'
p6833
tp6834
Rp6835
g1
(g13
S'\x0c\x00\x00\x00\x00\x00\x00\x00'
p6836
tp6837
Rp6838
sg1
(g2
(S'S3'
p6839
I0
I1
tp6840
Rp6841
(I3
S'|'
p6842
NNNI3
I1
I0
tp6843
bS'NNA'
p6844
tp6845
Rp6846
g1
(g13
S'\x0b\x00\x00\x00\x00\x00\x00\x00'
p6847
tp6848
Rp6849
sg1
(g2
(S'S3'
p6850
I0
I1
tp6851
Rp6852
(I3
S'|'
p6853
NNNI3
I1
I0
tp6854
bS'MYA'
p6855
tp6856
Rp6857
g1
(g13
S'\n\x00\x00\x00\x00\x00\x00\x00'
p6858
tp6859
Rp6860
sg1
(g2
(S'S3'
p6861
I0
I1
tp6862
Rp6863
(I3
S'|'
p6864
NNNI3
I1
I0
tp6865
bS'NNR'
p6866
tp6867
Rp6868
g1
(g13
S'\x05\x00\x00\x00\x00\x00\x00\x00'
p6869
tp6870
Rp6871
sg1
(g2
(S'S4'
p6872
I0
I1
tp6873
Rp6874
(I3
S'|'
p6875
NNNI4
I1
I0
tp6876
bS'CAER'
p6877
tp6878
Rp6879
g1
(g13
S'\x06\x00\x00\x00\x00\x00\x00\x00'
p6880
tp6881
Rp6882
sg1
(g2
(S'S3'
p6883
I0
I1
tp6884
Rp6885
(I3
S'|'
p6886
NNNI3
I1
I0
tp6887
bS'RKB'
p6888
tp6889
Rp6890
g1
(g13
S'\x07\x00\x00\x00\x00\x00\x00\x00'
p6891
tp6892
Rp6893
sg1
(g2
(S'S3'
p6894
I0
I1
tp6895
Rp6896
(I3
S'|'
p6897
NNNI3
I1
I0
tp6898
bS'BQA'
p6899
tp6900
Rp6901
g1
(g13
S'\x08\x00\x00\x00\x00\x00\x00\x00'
p6902
tp6903
Rp6904
sg1
(g2
(S'S3'
p6905
I0
I1
tp6906
Rp6907
(I3
S'|'
p6908
NNNI3
I1
I0
tp6909
bS'NPS'
p6910
tp6911
Rp6912
g1
(g13
S'\x03\x00\x00\x00\x00\x00\x00\x00'
p6913
tp6914
Rp6915
sg1
(g2
(S'S3'
p6916
I0
I1
tp6917
Rp6918
(I3
S'|'
p6919
NNNI3
I1
I0
tp6920
bS'SMR'
p6921
tp6922
Rp6923
g1
(g13
S'\x04\x00\x00\x00\x00\x00\x00\x00'
p6924
tp6925
Rp6926
sg1
(g2
(S'S3'
p6927
I0
I1
tp6928
Rp6929
(I3
S'|'
p6930
NNNI3
I1
I0
tp6931
bS'MTJ'
p6932
tp6933
Rp6934
g1
(g13
S'\x1c\x00\x00\x00\x00\x00\x00\x00'
p6935
tp6936
Rp6937
sg1
(g2
(S'S3'
p6938
I0
I1
tp6939
Rp6940
(I3
S'|'
p6941
NNNI3
I1
I0
tp6942
bS'JVN'
p6943
tp6944
Rp6945
g1
(g13
S'\t\x00\x00\x00\x00\x00\x00\x00'
p6946
tp6947
Rp6948
sg1
(g2
(S'S4'
p6949
I0
I1
tp6950
Rp6951
(I3
S'|'
p6952
NNNI4
I1
I0
tp6953
bS'PPTA'
p6954
tp6955
Rp6956
g1
(g13
S'\x08\x00\x00\x00\x00\x00\x00\x00'
p6957
tp6958
Rp6959
sg1
(g2
(S'S3'
p6960
I0
I1
tp6961
Rp6962
(I3
S'|'
p6963
NNNI3
I1
I0
tp6964
bS'NXN'
p6965
tp6966
Rp6967
g1
(g13
S'\x04\x00\x00\x00\x00\x00\x00\x00'
p6968
tp6969
Rp6970
sg1
(g2
(S'S2'
p6971
I0
I1
tp6972
Rp6973
(I3
S'|'
p6974
NNNI2
I1
I0
tp6975
bS'ON'
p6976
tp6977
Rp6978
g1
(g13
S'\t\x00\x00\x00\x00\x00\x00\x00'
p6979
tp6980
Rp6981
sg1
(g2
(S'S3'
p6982
I0
I1
tp6983
Rp6984
(I3
S'|'
p6985
NNNI3
I1
I0
tp6986
bS'RPJ'
p6987
tp6988
Rp6989
g1
(g13
S'\n\x00\x00\x00\x00\x00\x00\x00'
p6990
tp6991
Rp6992
sg1
(g2
(S'S3'
p6993
I0
I1
tp6994
Rp6995
(I3
S'|'
p6996
NNNI3
I1
I0
tp6997
bS'AKJ'
p6998
tp6999
Rp7000
g1
(g13
S'\x02\x00\x00\x00\x00\x00\x00\x00'
p7001
tp7002
Rp7003
sg1
(g2
(S'S4'
p7004
I0
I1
tp7005
Rp7006
(I3
S'|'
p7007
NNNI4
I1
I0
tp7008
bS'PHLG'
p7009
tp7010
Rp7011
g1
(g13
S'\x02\x00\x00\x00\x00\x00\x00\x00'
p7012
tp7013
Rp7014
sg1
(g2
(S'S3'
p7015
I0
I1
tp7016
Rp7017
(I3
S'|'
p7018
NNNI3
I1
I0
tp7019
bS'BVC'
p7020
tp7021
Rp7022
g1
(g13
S'\t\x00\x00\x00\x00\x00\x00\x00'
p7023
tp7024
Rp7025
sg1
(g2
(S'S3'
p7026
I0
I1
tp7027
Rp7028
(I3
S'|'
p7029
NNNI3
I1
I0
tp7030
bS'UBC'
p7031
tp7032
Rp7033
g1
(g13
S'\x08\x00\x00\x00\x00\x00\x00\x00'
p7034
tp7035
Rp7036
sg1
(g2
(S'S4'
p7037
I0
I1
tp7038
Rp7039
(I3
S'|'
p7040
NNNI4
I1
I0
tp7041
bS'BRPT'
p7042
tp7043
Rp7044
g1
(g13
S'\x02\x00\x00\x00\x00\x00\x00\x00'
p7045
tp7046
Rp7047
sg1
(g2
(S'S3'
p7048
I0
I1
tp7049
Rp7050
(I3
S'|'
p7051
NNNI3
I1
I0
tp7052
bS'BVI'
p7053
tp7054
Rp7055
g1
(g13
S'\x17\x00\x00\x00\x00\x00\x00\x00'
p7056
tp7057
Rp7058
sg1
(g2
(S'S3'
p7059
I0
I1
tp7060
Rp7061
(I3
S'|'
p7062
NNNI3
I1
I0
tp7063
bS'BVH'
p7064
tp7065
Rp7066
g1
(g13
S'\t\x00\x00\x00\x00\x00\x00\x00'
p7067
tp7068
Rp7069
sg1
(g2
(S'S3'
p7070
I0
I1
tp7071
Rp7072
(I3
S'|'
p7073
NNNI3
I1
I0
tp7074
bS'RSI'
p7075
tp7076
Rp7077
g1
(g13
S'\x03\x00\x00\x00\x00\x00\x00\x00'
p7078
tp7079
Rp7080
sg1
(g2
(S'S3'
p7081
I0
I1
tp7082
Rp7083
(I3
S'|'
p7084
NNNI3
I1
I0
tp7085
bS'LKN'
p7086
tp7087
Rp7088
g1
(g13
S'\x06\x00\x00\x00\x00\x00\x00\x00'
p7089
tp7090
Rp7091
sg1
(g2
(S'S3'
p7092
I0
I1
tp7093
Rp7094
(I3
S'|'
p7095
NNNI3
I1
I0
tp7096
bS'LKO'
p7097
tp7098
Rp7099
g1
(g13
S'#\x00\x00\x00\x00\x00\x00\x00'
p7100
tp7101
Rp7102
sg1
(g2
(S'S3'
p7103
I0
I1
tp7104
Rp7105
(I3
S'|'
p7106
NNNI3
I1
I0
tp7107
bS'VDS'
p7108
tp7109
Rp7110
g1
(g13
S'\x04\x00\x00\x00\x00\x00\x00\x00'
p7111
tp7112
Rp7113
sg1
(g2
(S'S4'
p7114
I0
I1
tp7115
Rp7116
(I3
S'|'
p7117
NNNI4
I1
I0
tp7118
bS'KANJ'
p7119
tp7120
Rp7121
g1
(g13
S'\x04\x00\x00\x00\x00\x00\x00\x00'
p7122
tp7123
Rp7124
sg1
(g2
(S'S4'
p7125
I0
I1
tp7126
Rp7127
(I3
S'|'
p7128
NNNI4
I1
I0
tp7129
bS'PAIL'
p7130
tp7131
Rp7132
g1
(g13
S'\x02\x00\x00\x00\x00\x00\x00\x00'
p7133
tp7134
Rp7135
sg1
(g2
(S'S4'
p7136
I0
I1
tp7137
Rp7138
(I3
S'|'
p7139
NNNI4
I1
I0
tp7140
bS'RDRA'
p7141
tp7142
Rp7143
g1
(g13
S'\x06\x00\x00\x00\x00\x00\x00\x00'
p7144
tp7145
Rp7146
sg1
(g2
(S'S3'
p7147
I0
I1
tp7148
Rp7149
(I3
S'|'
p7150
NNNI3
I1
I0
tp7151
bS'DER'
p7152
tp7153
Rp7154
g1
(g13
S'\x03\x00\x00\x00\x00\x00\x00\x00'
p7155
tp7156
Rp7157
sg1
(g2
(S'S3'
p7158
I0
I1
tp7159
Rp7160
(I3
S'|'
p7161
NNNI3
I1
I0
tp7162
bS'MWX'
p7163
tp7164
Rp7165
g1
(g13
S'\x02\x00\x00\x00\x00\x00\x00\x00'
p7166
tp7167
Rp7168
sg1
(g2
(S'S2'
p7169
I0
I1
tp7170
Rp7171
(I3
S'|'
p7172
NNNI2
I1
I0
tp7173
bS'HW'
p7174
tp7175
Rp7176
g1
(g13
S'\t\x00\x00\x00\x00\x00\x00\x00'
p7177
tp7178
Rp7179
sg1
(g2
(S'S3'
p7180
I0
I1
tp7181
Rp7182
(I3
S'|'
p7183
NNNI3
I1
I0
tp7184
bS'LKA'
p7185
tp7186
Rp7187
g1
(g13
S'\x05\x00\x00\x00\x00\x00\x00\x00'
p7188
tp7189
Rp7190
sg1
(g2
(S'S3'
p7191
I0
I1
tp7192
Rp7193
(I3
S'|'
p7194
NNNI3
I1
I0
tp7195
bS'BCT'
p7196
tp7197
Rp7198
g1
(g13
S'\x0b\x00\x00\x00\x00\x00\x00\x00'
p7199
tp7200
Rp7201
sg1
(g2
(S'S3'
p7202
I0
I1
tp7203
Rp7204
(I3
S'|'
p7205
NNNI3
I1
I0
tp7206
bS'FLK'
p7207
tp7208
Rp7209
g1
(g13
S'\x03\x00\x00\x00\x00\x00\x00\x00'
p7210
tp7211
Rp7212
sg1
(g2
(S'S4'
p7213
I0
I1
tp7214
Rp7215
(I3
S'|'
p7216
NNNI4
I1
I0
tp7217
bS'SMBJ'
p7218
tp7219
Rp7220
g1
(g13
S'\x05\x00\x00\x00\x00\x00\x00\x00'
p7221
tp7222
Rp7223
sg1
(g2
(S'S3'
p7224
I0
I1
tp7225
Rp7226
(I3
S'|'
p7227
NNNI3
I1
I0
tp7228
bS'GJD'
p7229
tp7230
Rp7231
g1
(g13
S'\x04\x00\x00\x00\x00\x00\x00\x00'
p7232
tp7233
Rp7234
sg1
(g2
(S'S3'
p7235
I0
I1
tp7236
Rp7237
(I3
S'|'
p7238
NNNI3
I1
I0
tp7239
bS'DEC'
p7240
tp7241
Rp7242
g1
(g13
S'\r\x00\x00\x00\x00\x00\x00\x00'
p7243
tp7244
Rp7245
sg1
(g2
(S'S3'
p7246
I0
I1
tp7247
Rp7248
(I3
S'|'
p7249
NNNI3
I1
I0
tp7250
bS'LKR'
p7251
tp7252
Rp7253
g1
(g13
S'\t\x00\x00\x00\x00\x00\x00\x00'
p7254
tp7255
Rp7256
sg1
(g2
(S'S2'
p7257
I0
I1
tp7258
Rp7259
(I3
S'|'
p7260
NNNI2
I1
I0
tp7261
bS'HD'
p7262
tp7263
Rp7264
g1
(g13
S'\t\x00\x00\x00\x00\x00\x00\x00'
p7265
tp7266
Rp7267
sg1
(g2
(S'S3'
p7268
I0
I1
tp7269
Rp7270
(I3
S'|'
p7271
NNNI3
I1
I0
tp7272
bS'KLA'
p7273
tp7274
Rp7275
g1
(g13
S'\x02\x00\x00\x00\x00\x00\x00\x00'
p7276
tp7277
Rp7278
sg1
(g2
(S'S3'
p7279
I0
I1
tp7280
Rp7281
(I3
S'|'
p7282
NNNI3
I1
I0
tp7283
bS'ROK'
p7284
tp7285
Rp7286
g1
(g13
S'\r\x00\x00\x00\x00\x00\x00\x00'
p7287
tp7288
Rp7289
sg1
(g2
(S'S3'
p7290
I0
I1
tp7291
Rp7292
(I3
S'|'
p7293
NNNI3
I1
I0
tp7294
bS'PTH'
p7295
tp7296
Rp7297
g1
(g13
S'\x02\x00\x00\x00\x00\x00\x00\x00'
p7298
tp7299
Rp7300
sg1
(g2
(S'S3'
p7301
I0
I1
tp7302
Rp7303
(I3
S'|'
p7304
NNNI3
I1
I0
tp7305
bS'MNP'
p7306
tp7307
Rp7308
g1
(g13
S'\x04\x00\x00\x00\x00\x00\x00\x00'
p7309
tp7310
Rp7311
sg1
(g2
(S'S3'
p7312
I0
I1
tp7313
Rp7314
(I3
S'|'
p7315
NNNI3
I1
I0
tp7316
bS'JMP'
p7317
tp7318
Rp7319
g1
(g13
S'\x07\x00\x00\x00\x00\x00\x00\x00'
p7320
tp7321
Rp7322
sg1
(g2
(S'S3'
p7323
I0
I1
tp7324
Rp7325
(I3
S'|'
p7326
NNNI3
I1
I0
tp7327
bS'AME'
p7328
tp7329
Rp7330
g1
(g13
S'\x08\x00\x00\x00\x00\x00\x00\x00'
p7331
tp7332
Rp7333
sg1
(g2
(S'S3'
p7334
I0
I1
tp7335
Rp7336
(I3
S'|'
p7337
NNNI3
I1
I0
tp7338
bS'AMG'
p7339
tp7340
Rp7341
g1
(g13
S'\x04\x00\x00\x00\x00\x00\x00\x00'
p7342
tp7343
Rp7344
sg1
(g2
(S'S3'
p7345
I0
I1
tp7346
Rp7347
(I3
S'|'
p7348
NNNI3
I1
I0
tp7349
bS'JMU'
p7350
tp7351
Rp7352
g1
(g13
S'\x07\x00\x00\x00\x00\x00\x00\x00'
p7353
tp7354
Rp7355
sg1
(g2
(S'S3'
p7356
I0
I1
tp7357
Rp7358
(I3
S'|'
p7359
NNNI3
I1
I0
tp7360
bS'JMK'
p7361
tp7362
Rp7363
g1
(g13
S'\x03\x00\x00\x00\x00\x00\x00\x00'
p7364
tp7365
Rp7366
sg1
(g2
(S'S3'
p7367
I0
I1
tp7368
Rp7369
(I3
S'|'
p7370
NNNI3
I1
I0
tp7371
bS'MNJ'
p7372
tp7373
Rp7374
g1
(g13
S'\x04\x00\x00\x00\x00\x00\x00\x00'
p7375
tp7376
Rp7377
sg1
(g2
(S'S3'
p7378
I0
I1
tp7379
Rp7380
(I3
S'|'
p7381
NNNI3
I1
I0
tp7382
bS'SCY'
p7383
tp7384
Rp7385
g1
(g13
S'\x02\x00\x00\x00\x00\x00\x00\x00'
p7386
tp7387
Rp7388
sg1
(g2
(S'S3'
p7389
I0
I1
tp7390
Rp7391
(I3
S'|'
p7392
NNNI3
I1
I0
tp7393
bS'KSG'
p7394
tp7395
Rp7396
g1
(g13
S'\n\x00\x00\x00\x00\x00\x00\x00'
p7397
tp7398
Rp7399
sg1
(g2
(S'S3'
p7400
I0
I1
tp7401
Rp7402
(I3
S'|'
p7403
NNNI3
I1
I0
tp7404
bS'AMP'
p7405
tp7406
Rp7407
g1
(g13
S'\x07\x00\x00\x00\x00\x00\x00\x00'
p7408
tp7409
Rp7410
sg1
(g2
(S'S3'
p7411
I0
I1
tp7412
Rp7413
(I3
S'|'
p7414
NNNI3
I1
I0
tp7415
bS'MNE'
p7416
tp7417
Rp7418
g1
(g13
S'\x08\x00\x00\x00\x00\x00\x00\x00'
p7419
tp7420
Rp7421
sg1
(g2
(S'S3'
p7422
I0
I1
tp7423
Rp7424
(I3
S'|'
p7425
NNNI3
I1
I0
tp7426
bS'MNF'
p7427
tp7428
Rp7429
g1
(g13
S'\x05\x00\x00\x00\x00\x00\x00\x00'
p7430
tp7431
Rp7432
sg1
(g2
(S'S3'
p7433
I0
I1
tp7434
Rp7435
(I3
S'|'
p7436
NNNI3
I1
I0
tp7437
bS'SIQ'
p7438
tp7439
Rp7440
g1
(g13
S'\x02\x00\x00\x00\x00\x00\x00\x00'
p7441
tp7442
Rp7443
sg1
(g2
(S'S3'
p7444
I0
I1
tp7445
Rp7446
(I3
S'|'
p7447
NNNI3
I1
I0
tp7448
bS'SLW'
p7449
tp7450
Rp7451
g1
(g13
S'\x02\x00\x00\x00\x00\x00\x00\x00'
p7452
tp7453
Rp7454
sg1
(g2
(S'S3'
p7455
I0
I1
tp7456
Rp7457
(I3
S'|'
p7458
NNNI3
I1
I0
tp7459
bS'BDC'
p7460
tp7461
Rp7462
g1
(g13
S'\x11\x00\x00\x00\x00\x00\x00\x00'
p7463
tp7464
Rp7465
sg1
(g2
(S'S3'
p7466
I0
I1
tp7467
Rp7468
(I3
S'|'
p7469
NNNI3
I1
I0
tp7470
bS'BDL'
p7471
tp7472
Rp7473
g1
(g13
S'\x08\x00\x00\x00\x00\x00\x00\x00'
p7474
tp7475
Rp7476
sg1
(g2
(S'S3'
p7477
I0
I1
tp7478
Rp7479
(I3
S'|'
p7480
NNNI3
I1
I0
tp7481
bS'BDN'
p7482
tp7483
Rp7484
g1
(g13
S'\x02\x00\x00\x00\x00\x00\x00\x00'
p7485
tp7486
Rp7487
sg1
(g2
(S'S4'
p7488
I0
I1
tp7489
Rp7490
(I3
S'|'
p7491
NNNI4
I1
I0
tp7492
bS'SUNR'
p7493
tp7494
Rp7495
g1
(g13
S'\r\x00\x00\x00\x00\x00\x00\x00'
p7496
tp7497
Rp7498
sg1
(g2
(S'S3'
p7499
I0
I1
tp7500
Rp7501
(I3
S'|'
p7502
NNNI3
I1
I0
tp7503
bS'ULT'
p7504
tp7505
Rp7506
g1
(g13
S'\x06\x00\x00\x00\x00\x00\x00\x00'
p7507
tp7508
Rp7509
sg1
(g2
(S'S4'
p7510
I0
I1
tp7511
Rp7512
(I3
S'|'
p7513
NNNI4
I1
I0
tp7514
bS'KOAA'
p7515
tp7516
Rp7517
g1
(g13
S'\r\x00\x00\x00\x00\x00\x00\x00'
p7518
tp7519
Rp7520
sg1
(g2
(S'S4'
p7521
I0
I1
tp7522
Rp7523
(I3
S'|'
p7524
NNNI4
I1
I0
tp7525
bS'BEAS'
p7526
tp7527
Rp7528
g1
(g13
S'\n\x00\x00\x00\x00\x00\x00\x00'
p7529
tp7530
Rp7531
sg1
(g2
(S'S3'
p7532
I0
I1
tp7533
Rp7534
(I3
S'|'
p7535
NNNI3
I1
I0
tp7536
bS'PBH'
p7537
tp7538
Rp7539
g1
(g13
S'\x0f\x00\x00\x00\x00\x00\x00\x00'
p7540
tp7541
Rp7542
sg1
(g2
(S'S4'
p7543
I0
I1
tp7544
Rp7545
(I3
S'|'
p7546
NNNI4
I1
I0
tp7547
bS'MLDT'
p7548
tp7549
Rp7550
g1
(g13
S'\x14\x00\x00\x00\x00\x00\x00\x00'
p7551
tp7552
Rp7553
sg1
(g2
(S'S3'
p7554
I0
I1
tp7555
Rp7556
(I3
S'|'
p7557
NNNI3
I1
I0
tp7558
bS'HTE'
p7559
tp7560
Rp7561
g1
(g13
S'\x05\x00\x00\x00\x00\x00\x00\x00'
p7562
tp7563
Rp7564
sg1
(g2
(S'S3'
p7565
I0
I1
tp7566
Rp7567
(I3
S'|'
p7568
NNNI3
I1
I0
tp7569
bS'KCA'
p7570
tp7571
Rp7572
g1
(g13
S'\x02\x00\x00\x00\x00\x00\x00\x00'
p7573
tp7574
Rp7575
sg1
(g2
(S'S4'
p7576
I0
I1
tp7577
Rp7578
(I3
S'|'
p7579
NNNI4
I1
I0
tp7580
bS'SDLP'
p7581
tp7582
Rp7583
g1
(g13
S'\x06\x00\x00\x00\x00\x00\x00\x00'
p7584
tp7585
Rp7586
sg1
(g2
(S'S4'
p7587
I0
I1
tp7588
Rp7589
(I3
S'|'
p7590
NNNI4
I1
I0
tp7591
bS'KTHU'
p7592
tp7593
Rp7594
g1
(g13
S'\x0e\x00\x00\x00\x00\x00\x00\x00'
p7595
tp7596
Rp7597
sg1
(g2
(S'S4'
p7598
I0
I1
tp7599
Rp7600
(I3
S'|'
p7601
NNNI4
I1
I0
tp7602
bS'CDMR'
p7603
tp7604
Rp7605
g1
(g13
S'\x03\x00\x00\x00\x00\x00\x00\x00'
p7606
tp7607
Rp7608
sg1
(g2
(S'S3'
p7609
I0
I1
tp7610
Rp7611
(I3
S'|'
p7612
NNNI3
I1
I0
tp7613
bS'KCN'
p7614
tp7615
Rp7616
g1
(g13
S'\x02\x00\x00\x00\x00\x00\x00\x00'
p7617
tp7618
Rp7619
sg1
(g2
(S'S3'
p7620
I0
I1
tp7621
Rp7622
(I3
S'|'
p7623
NNNI3
I1
I0
tp7624
bS'SLN'
p7625
tp7626
Rp7627
g1
(g13
S'\n\x00\x00\x00\x00\x00\x00\x00'
p7628
tp7629
Rp7630
sg1
(g2
(S'S4'
p7631
I0
I1
tp7632
Rp7633
(I3
S'|'
p7634
NNNI4
I1
I0
tp7635
bS'MNAE'
p7636
tp7637
Rp7638
g1
(g13
S'\x04\x00\x00\x00\x00\x00\x00\x00'
p7639
tp7640
Rp7641
sg1
(g2
(S'S4'
p7642
I0
I1
tp7643
Rp7644
(I3
S'|'
p7645
NNNI4
I1
I0
tp7646
bS'BPRD'
p7647
tp7648
Rp7649
g1
(g13
S'\x07\x00\x00\x00\x00\x00\x00\x00'
p7650
tp7651
Rp7652
sg1
(g2
(S'S4'
p7653
I0
I1
tp7654
Rp7655
(I3
S'|'
p7656
NNNI4
I1
I0
tp7657
bS'BRYC'
p7658
tp7659
Rp7660
g1
(g13
S'\x01\x00\x00\x00\x00\x00\x00\x00'
p7661
tp7662
Rp7663
sg1
(g2
(S'S3'
p7664
I0
I1
tp7665
Rp7666
(I3
S'|'
p7667
NNNI3
I1
I0
tp7668
bS'SMK'
p7669
tp7670
Rp7671
g1
(g13
S'\x03\x00\x00\x00\x00\x00\x00\x00'
p7672
tp7673
Rp7674
sg1
(g2
(S'S3'
p7675
I0
I1
tp7676
Rp7677
(I3
S'|'
p7678
NNNI3
I1
I0
tp7679
bS'KLP'
p7680
tp7681
Rp7682
g1
(g13
S'\x02\x00\x00\x00\x00\x00\x00\x00'
p7683
tp7684
Rp7685
sg1
(g2
(S'S3'
p7686
I0
I1
tp7687
Rp7688
(I3
S'|'
p7689
NNNI3
I1
I0
tp7690
bS'HTZ'
p7691
tp7692
Rp7693
g1
(g13
S'\t\x00\x00\x00\x00\x00\x00\x00'
p7694
tp7695
Rp7696
sg1
(g2
(S'S4'
p7697
I0
I1
tp7698
Rp7699
(I3
S'|'
p7700
NNNI4
I1
I0
tp7701
bS'KLRE'
p7702
tp7703
Rp7704
g1
(g13
S'\x04\x00\x00\x00\x00\x00\x00\x00'
p7705
tp7706
Rp7707
sg1
(g2
(S'S3'
p7708
I0
I1
tp7709
Rp7710
(I3
S'|'
p7711
NNNI3
I1
I0
tp7712
bS'MPY'
p7713
tp7714
Rp7715
g1
(g13
S'\x02\x00\x00\x00\x00\x00\x00\x00'
p7716
tp7717
Rp7718
sg1
(g2
(S'S3'
p7719
I0
I1
tp7720
Rp7721
(I3
S'|'
p7722
NNNI3
I1
I0
tp7723
bS'NEO'
p7724
tp7725
Rp7726
g1
(g13
S'\x02\x00\x00\x00\x00\x00\x00\x00'
p7727
tp7728
Rp7729
sg1
(g2
(S'S4'
p7730
I0
I1
tp7731
Rp7732
(I3
S'|'
p7733
NNNI4
I1
I0
tp7734
bS'OKHA'
p7735
tp7736
Rp7737
g1
(g13
S'\x05\x00\x00\x00\x00\x00\x00\x00'
p7738
tp7739
Rp7740
sg1
(g2
(S'S4'
p7741
I0
I1
tp7742
Rp7743
(I3
S'|'
p7744
NNNI4
I1
I0
tp7745
bS'SMBX'
p7746
tp7747
Rp7748
g1
(g13
S'\t\x00\x00\x00\x00\x00\x00\x00'
p7749
tp7750
Rp7751
sg1
(g2
(S'S3'
p7752
I0
I1
tp7753
Rp7754
(I3
S'|'
p7755
NNNI3
I1
I0
tp7756
bS'KUR'
p7757
tp7758
Rp7759
g1
(g13
S'\x0e\x00\x00\x00\x00\x00\x00\x00'
p7760
tp7761
Rp7762
sg1
(g2
(S'S3'
p7763
I0
I1
tp7764
Rp7765
(I3
S'|'
p7766
NNNI3
I1
I0
tp7767
bS'KUN'
p7768
tp7769
Rp7770
g1
(g13
S'\x07\x00\x00\x00\x00\x00\x00\x00'
p7771
tp7772
Rp7773
sg1
(g2
(S'S3'
p7774
I0
I1
tp7775
Rp7776
(I3
S'|'
p7777
NNNI3
I1
I0
tp7778
bS'NGG'
p7779
tp7780
Rp7781
g1
(g13
S'\x05\x00\x00\x00\x00\x00\x00\x00'
p7782
tp7783
Rp7784
sg1
(g2
(S'S3'
p7785
I0
I1
tp7786
Rp7787
(I3
S'|'
p7788
NNNI3
I1
I0
tp7789
bS'IDH'
p7790
tp7791
Rp7792
g1
(g13
S'\x06\x00\x00\x00\x00\x00\x00\x00'
p7793
tp7794
Rp7795
sg1
(g2
(S'S3'
p7796
I0
I1
tp7797
Rp7798
(I3
S'|'
p7799
NNNI3
I1
I0
tp7800
bS'IDG'
p7801
tp7802
Rp7803
g1
(g13
S'\x04\x00\x00\x00\x00\x00\x00\x00'
p7804
tp7805
Rp7806
sg1
(g2
(S'S3'
p7807
I0
I1
tp7808
Rp7809
(I3
S'|'
p7810
NNNI3
I1
I0
tp7811
bS'KUE'
p7812
tp7813
Rp7814
g1
(g13
S'\x04\x00\x00\x00\x00\x00\x00\x00'
p7815
tp7816
Rp7817
sg1
(g2
(S'S3'
p7818
I0
I1
tp7819
Rp7820
(I3
S'|'
p7821
NNNI3
I1
I0
tp7822
bS'KUA'
p7823
tp7824
Rp7825
g1
(g13
S'\x02\x00\x00\x00\x00\x00\x00\x00'
p7826
tp7827
Rp7828
sg1
(g2
(S'S4'
p7829
I0
I1
tp7830
Rp7831
(I3
S'|'
p7832
NNNI4
I1
I0
tp7833
bS'SILO'
p7834
tp7835
Rp7836
g1
(g13
S'\x02\x00\x00\x00\x00\x00\x00\x00'
p7837
tp7838
Rp7839
sg1
(g2
(S'S2'
p7840
I0
I1
tp7841
Rp7842
(I3
S'|'
p7843
NNNI2
I1
I0
tp7844
bS'NH'
p7845
tp7846
Rp7847
g1
(g13
S'\x0b\x00\x00\x00\x00\x00\x00\x00'
p7848
tp7849
Rp7850
sg1
(g2
(S'S3'
p7851
I0
I1
tp7852
Rp7853
(I3
S'|'
p7854
NNNI3
I1
I0
tp7855
bS'BKG'
p7856
tp7857
Rp7858
g1
(g13
S'\x02\x00\x00\x00\x00\x00\x00\x00'
p7859
tp7860
Rp7861
sg1
(g2
(S'S3'
p7862
I0
I1
tp7863
Rp7864
(I3
S'|'
p7865
NNNI3
I1
I0
tp7866
bS'CGL'
p7867
tp7868
Rp7869
g1
(g13
S'\x07\x00\x00\x00\x00\x00\x00\x00'
p7870
tp7871
Rp7872
sg1
(g2
(S'S3'
p7873
I0
I1
tp7874
Rp7875
(I3
S'|'
p7876
NNNI3
I1
I0
tp7877
bS'PMR'
p7878
tp7879
Rp7880
g1
(g13
S'\x06\x00\x00\x00\x00\x00\x00\x00'
p7881
tp7882
Rp7883
sg1
(g2
(S'S3'
p7884
I0
I1
tp7885
Rp7886
(I3
S'|'
p7887
NNNI3
I1
I0
tp7888
bS'BKN'
p7889
tp7890
Rp7891
g1
(g13
S'\x0e\x00\x00\x00\x00\x00\x00\x00'
p7892
tp7893
Rp7894
sg1
(g2
(S'S3'
p7895
I0
I1
tp7896
Rp7897
(I3
S'|'
p7898
NNNI3
I1
I0
tp7899
bS'BKO'
p7900
tp7901
Rp7902
g1
(g13
S'\x04\x00\x00\x00\x00\x00\x00\x00'
p7903
tp7904
Rp7905
sg1
(g2
(S'S3'
p7906
I0
I1
tp7907
Rp7908
(I3
S'|'
p7909
NNNI3
I1
I0
tp7910
bS'BKH'
p7911
tp7912
Rp7913
g1
(g13
S'\x03\x00\x00\x00\x00\x00\x00\x00'
p7914
tp7915
Rp7916
sg1
(g2
(S'S3'
p7917
I0
I1
tp7918
Rp7919
(I3
S'|'
p7920
NNNI3
I1
I0
tp7921
bS'BKI'
p7922
tp7923
Rp7924
g1
(g13
S'\r\x00\x00\x00\x00\x00\x00\x00'
p7925
tp7926
Rp7927
sg1
(g2
(S'S3'
p7928
I0
I1
tp7929
Rp7930
(I3
S'|'
p7931
NNNI3
I1
I0
tp7932
bS'CNK'
p7933
tp7934
Rp7935
g1
(g13
S'\x04\x00\x00\x00\x00\x00\x00\x00'
p7936
tp7937
Rp7938
sg1
(g2
(S'S3'
p7939
I0
I1
tp7940
Rp7941
(I3
S'|'
p7942
NNNI3
I1
I0
tp7943
bS'BKP'
p7944
tp7945
Rp7946
g1
(g13
S'\x0e\x00\x00\x00\x00\x00\x00\x00'
p7947
tp7948
Rp7949
sg1
(g2
(S'S3'
p7950
I0
I1
tp7951
Rp7952
(I3
S'|'
p7953
NNNI3
I1
I0
tp7954
bS'ULD'
p7955
tp7956
Rp7957
g1
(g13
S'\x02\x00\x00\x00\x00\x00\x00\x00'
p7958
tp7959
Rp7960
sg1
(g2
(S'S2'
p7961
I0
I1
tp7962
Rp7963
(I3
S'|'
p7964
NNNI2
I1
I0
tp7965
bS'NR'
p7966
tp7967
Rp7968
g1
(g13
S'\x03\x00\x00\x00\x00\x00\x00\x00'
p7969
tp7970
Rp7971
sg1
(g2
(S'S3'
p7972
I0
I1
tp7973
Rp7974
(I3
S'|'
p7975
NNNI3
I1
I0
tp7976
bS'CGR'
p7977
tp7978
Rp7979
g1
(g13
S'\x06\x00\x00\x00\x00\x00\x00\x00'
p7980
tp7981
Rp7982
sg1
(g2
(S'S3'
p7983
I0
I1
tp7984
Rp7985
(I3
S'|'
p7986
NNNI3
I1
I0
tp7987
bS'NBG'
p7988
tp7989
Rp7990
g1
(g13
S'\x05\x00\x00\x00\x00\x00\x00\x00'
p7991
tp7992
Rp7993
sg1
(g2
(S'S2'
p7994
I0
I1
tp7995
Rp7996
(I3
S'|'
p7997
NNNI2
I1
I0
tp7998
bS'NU'
p7999
tp8000
Rp8001
g1
(g13
S'\n\x00\x00\x00\x00\x00\x00\x00'
p8002
tp8003
Rp8004
sg1
(g2
(S'S3'
p8005
I0
I1
tp8006
Rp8007
(I3
S'|'
p8008
NNNI3
I1
I0
tp8009
bS'NBD'
p8010
tp8011
Rp8012
g1
(g13
S'\x0e\x00\x00\x00\x00\x00\x00\x00'
p8013
tp8014
Rp8015
sg1
(g2
(S'S4'
p8016
I0
I1
tp8017
Rp8018
(I3
S'|'
p8019
NNNI4
I1
I0
tp8020
bS'BRWD'
p8021
tp8022
Rp8023
g1
(g13
S'\x07\x00\x00\x00\x00\x00\x00\x00'
p8024
tp8025
Rp8026
sg1
(g2
(S'S3'
p8027
I0
I1
tp8028
Rp8029
(I3
S'|'
p8030
NNNI3
I1
I0
tp8031
bS'GMO'
p8032
tp8033
Rp8034
g1
(g13
S'\x14\x00\x00\x00\x00\x00\x00\x00'
p8035
tp8036
Rp8037
sg1
(g2
(S'S3'
p8038
I0
I1
tp8039
Rp8040
(I3
S'|'
p8041
NNNI3
I1
I0
tp8042
bS'CUR'
p8043
tp8044
Rp8045
g1
(g13
S'\x02\x00\x00\x00\x00\x00\x00\x00'
p8046
tp8047
Rp8048
sg1
(g2
(S'S4'
p8049
I0
I1
tp8050
Rp8051
(I3
S'|'
p8052
NNNI4
I1
I0
tp8053
bS'BCOB'
p8054
tp8055
Rp8056
g1
(g13
S'\x02\x00\x00\x00\x00\x00\x00\x00'
p8057
tp8058
Rp8059
sg1
(g2
(S'S3'
p8060
I0
I1
tp8061
Rp8062
(I3
S'|'
p8063
NNNI3
I1
I0
tp8064
bS'SJP'
p8065
tp8066
Rp8067
g1
(g13
S'\r\x00\x00\x00\x00\x00\x00\x00'
p8068
tp8069
Rp8070
sg1
(g2
(S'S3'
p8071
I0
I1
tp8072
Rp8073
(I3
S'|'
p8074
NNNI3
I1
I0
tp8075
bS'SJT'
p8076
tp8077
Rp8078
g1
(g13
S'\x05\x00\x00\x00\x00\x00\x00\x00'
p8079
tp8080
Rp8081
sg1
(g2
(S'S3'
p8082
I0
I1
tp8083
Rp8084
(I3
S'|'
p8085
NNNI3
I1
I0
tp8086
bS'DNR'
p8087
tp8088
Rp8089
g1
(g13
S'\r\x00\x00\x00\x00\x00\x00\x00'
p8090
tp8091
Rp8092
sg1
(g2
(S'S3'
p8093
I0
I1
tp8094
Rp8095
(I3
S'|'
p8096
NNNI3
I1
I0
tp8097
bS'RDM'
p8098
tp8099
Rp8100
g1
(g13
S'\t\x00\x00\x00\x00\x00\x00\x00'
p8101
tp8102
Rp8103
sg1
(g2
(S'S3'
p8104
I0
I1
tp8105
Rp8106
(I3
S'|'
p8107
NNNI3
I1
I0
tp8108
bS'GMR'
p8109
tp8110
Rp8111
g1
(g13
S'\x07\x00\x00\x00\x00\x00\x00\x00'
p8112
tp8113
Rp8114
sg1
(g2
(S'S3'
p8115
I0
I1
tp8116
Rp8117
(I3
S'|'
p8118
NNNI3
I1
I0
tp8119
bS'ADI'
p8120
tp8121
Rp8122
g1
(g13
S'\x1a\x00\x00\x00\x00\x00\x00\x00'
p8123
tp8124
Rp8125
sg1
(g2
(S'S3'
p8126
I0
I1
tp8127
Rp8128
(I3
S'|'
p8129
NNNI3
I1
I0
tp8130
bS'PNC'
p8131
tp8132
Rp8133
g1
(g13
S'\x18\x00\x00\x00\x00\x00\x00\x00'
p8134
tp8135
Rp8136
sg1
(g2
(S'S3'
p8137
I0
I1
tp8138
Rp8139
(I3
S'|'
p8140
NNNI3
I1
I0
tp8141
bS'GDR'
p8142
tp8143
Rp8144
g1
(g13
S'\x15\x00\x00\x00\x00\x00\x00\x00'
p8145
tp8146
Rp8147
sg1
(g2
(S'S3'
p8148
I0
I1
tp8149
Rp8150
(I3
S'|'
p8151
NNNI3
I1
I0
tp8152
bS'JRC'
p8153
tp8154
Rp8155
g1
(g13
S'\r\x00\x00\x00\x00\x00\x00\x00'
p8156
tp8157
Rp8158
sg1
(g2
(S'S4'
p8159
I0
I1
tp8160
Rp8161
(I3
S'|'
p8162
NNNI4
I1
I0
tp8163
bS'TATA'
p8164
tp8165
Rp8166
g1
(g13
S'\x1a\x00\x00\x00\x00\x00\x00\x00'
p8167
tp8168
Rp8169
sg1
(g2
(S'S3'
p8170
I0
I1
tp8171
Rp8172
(I3
S'|'
p8173
NNNI3
I1
I0
tp8174
bS'BRR'
p8175
tp8176
Rp8177
g1
(g13
S'\x05\x00\x00\x00\x00\x00\x00\x00'
p8178
tp8179
Rp8180
sg1
(g2
(S'S3'
p8181
I0
I1
tp8182
Rp8183
(I3
S'|'
p8184
NNNI3
I1
I0
tp8185
bS'BRN'
p8186
tp8187
Rp8188
g1
(g13
S'\x02\x00\x00\x00\x00\x00\x00\x00'
p8189
tp8190
Rp8191
sg1
(g2
(S'S3'
p8192
I0
I1
tp8193
Rp8194
(I3
S'|'
p8195
NNNI3
I1
I0
tp8196
bS'GDB'
p8197
tp8198
Rp8199
g1
(g13
S'\x08\x00\x00\x00\x00\x00\x00\x00'
p8200
tp8201
Rp8202
sg1
(g2
(S'S3'
p8203
I0
I1
tp8204
Rp8205
(I3
S'|'
p8206
NNNI3
I1
I0
tp8207
bS'FBD'
p8208
tp8209
Rp8210
g1
(g13
S'\x08\x00\x00\x00\x00\x00\x00\x00'
p8211
tp8212
Rp8213
sg1
(g2
(S'S4'
p8214
I0
I1
tp8215
Rp8216
(I3
S'|'
p8217
NNNI4
I1
I0
tp8218
bS'SCKR'
p8219
tp8220
Rp8221
g1
(g13
S'\x03\x00\x00\x00\x00\x00\x00\x00'
p8222
tp8223
Rp8224
sg1
(g2
(S'S3'
p8225
I0
I1
tp8226
Rp8227
(I3
S'|'
p8228
NNNI3
I1
I0
tp8229
bS'BRE'
p8230
tp8231
Rp8232
g1
(g13
S'\x07\x00\x00\x00\x00\x00\x00\x00'
p8233
tp8234
Rp8235
sg1
(g2
(S'S3'
p8236
I0
I1
tp8237
Rp8238
(I3
S'|'
p8239
NNNI3
I1
I0
tp8240
bS'MDU'
p8241
tp8242
Rp8243
g1
(g13
S'\x0c\x00\x00\x00\x00\x00\x00\x00'
p8244
tp8245
Rp8246
sg1
(g2
(S'S3'
p8247
I0
I1
tp8248
Rp8249
(I3
S'|'
p8250
NNNI3
I1
I0
tp8251
bS'BRC'
p8252
tp8253
Rp8254
g1
(g13
S'\x1a\x00\x00\x00\x00\x00\x00\x00'
p8255
tp8256
Rp8257
sg1
(g2
(S'S3'
p8258
I0
I1
tp8259
Rp8260
(I3
S'|'
p8261
NNNI3
I1
I0
tp8262
bS'MEX'
p8263
tp8264
Rp8265
g1
(g13
S'\x07\x00\x00\x00\x00\x00\x00\x00'
p8266
tp8267
Rp8268
sg1
(g2
(S'S4'
p8269
I0
I1
tp8270
Rp8271
(I3
S'|'
p8272
NNNI4
I1
I0
tp8273
bS'PTRU'
p8274
tp8275
Rp8276
g1
(g13
S'\x05\x00\x00\x00\x00\x00\x00\x00'
p8277
tp8278
Rp8279
sg1
(g2
(S'S3'
p8280
I0
I1
tp8281
Rp8282
(I3
S'|'
p8283
NNNI3
I1
I0
tp8284
bS'MSZ'
p8285
tp8286
Rp8287
g1
(g13
S'\x07\x00\x00\x00\x00\x00\x00\x00'
p8288
tp8289
Rp8290
sg1
(g2
(S'S4'
p8291
I0
I1
tp8292
Rp8293
(I3
S'|'
p8294
NNNI4
I1
I0
tp8295
bS'SEGM'
p8296
tp8297
Rp8298
g1
(g13
S'\r\x00\x00\x00\x00\x00\x00\x00'
p8299
tp8300
Rp8301
sg1
(g2
(S'S3'
p8302
I0
I1
tp8303
Rp8304
(I3
S'|'
p8305
NNNI3
I1
I0
tp8306
bS'SGO'
p8307
tp8308
Rp8309
g1
(g13
S'\x0e\x00\x00\x00\x00\x00\x00\x00'
p8310
tp8311
Rp8312
sg1
(g2
(S'S4'
p8313
I0
I1
tp8314
Rp8315
(I3
S'|'
p8316
NNNI4
I1
I0
tp8317
bS'ANVT'
p8318
tp8319
Rp8320
g1
(g13
S'\n\x00\x00\x00\x00\x00\x00\x00'
p8321
tp8322
Rp8323
sg1
(g2
(S'S3'
p8324
I0
I1
tp8325
Rp8326
(I3
S'|'
p8327
NNNI3
I1
I0
tp8328
bS'MSK'
p8329
tp8330
Rp8331
g1
(g13
S'\x05\x00\x00\x00\x00\x00\x00\x00'
p8332
tp8333
Rp8334
sg1
(g2
(S'S3'
p8335
I0
I1
tp8336
Rp8337
(I3
S'|'
p8338
NNNI3
I1
I0
tp8339
bS'RNG'
p8340
tp8341
Rp8342
g1
(g13
S'\x05\x00\x00\x00\x00\x00\x00\x00'
p8343
tp8344
Rp8345
sg1
(g2
(S'S3'
p8346
I0
I1
tp8347
Rp8348
(I3
S'|'
p8349
NNNI3
I1
I0
tp8350
bS'MSH'
p8351
tp8352
Rp8353
g1
(g13
S'\r\x00\x00\x00\x00\x00\x00\x00'
p8354
tp8355
Rp8356
sg1
(g2
(S'S3'
p8357
I0
I1
tp8358
Rp8359
(I3
S'|'
p8360
NNNI3
I1
I0
tp8361
bS'AZR'
p8362
tp8363
Rp8364
g1
(g13
S'\x06\x00\x00\x00\x00\x00\x00\x00'
p8365
tp8366
Rp8367
sg1
(g2
(S'S3'
p8368
I0
I1
tp8369
Rp8370
(I3
S'|'
p8371
NNNI3
I1
I0
tp8372
bS'NCB'
p8373
tp8374
Rp8375
g1
(g13
S'\x0c\x00\x00\x00\x00\x00\x00\x00'
p8376
tp8377
Rp8378
sg1
(g2
(S'S3'
p8379
I0
I1
tp8380
Rp8381
(I3
S'|'
p8382
NNNI3
I1
I0
tp8383
bS'LKU'
p8384
tp8385
Rp8386
g1
(g13
S'\x05\x00\x00\x00\x00\x00\x00\x00'
p8387
tp8388
Rp8389
sg1
(g2
(S'S3'
p8390
I0
I1
tp8391
Rp8392
(I3
S'|'
p8393
NNNI3
I1
I0
tp8394
bS'DAA'
p8395
tp8396
Rp8397
g1
(g13
S'\x08\x00\x00\x00\x00\x00\x00\x00'
p8398
tp8399
Rp8400
sg1
(g2
(S'S3'
p8401
I0
I1
tp8402
Rp8403
(I3
S'|'
p8404
NNNI3
I1
I0
tp8405
bS'SGP'
p8406
tp8407
Rp8408
g1
(g13
S'\x06\x00\x00\x00\x00\x00\x00\x00'
p8409
tp8410
Rp8411
sg1
(g2
(S'S3'
p8412
I0
I1
tp8413
Rp8414
(I3
S'|'
p8415
NNNI3
I1
I0
tp8416
bS'SGJ'
p8417
tp8418
Rp8419
g1
(g13
S'\x03\x00\x00\x00\x00\x00\x00\x00'
p8420
tp8421
Rp8422
sg1
(g2
(S'S3'
p8423
I0
I1
tp8424
Rp8425
(I3
S'|'
p8426
NNNI3
I1
I0
tp8427
bS'DAP'
p8428
tp8429
Rp8430
g1
(g13
S'\x02\x00\x00\x00\x00\x00\x00\x00'
p8431
tp8432
Rp8433
sg1
(g2
(S'S3'
p8434
I0
I1
tp8435
Rp8436
(I3
S'|'
p8437
NNNI3
I1
I0
tp8438
bS'DAQ'
p8439
tp8440
Rp8441
g1
(g13
S'\x02\x00\x00\x00\x00\x00\x00\x00'
p8442
tp8443
Rp8444
sg1
(g2
(S'S3'
p8445
I0
I1
tp8446
Rp8447
(I3
S'|'
p8448
NNNI3
I1
I0
tp8449
bS'DAR'
p8450
tp8451
Rp8452
g1
(g13
S'\x02\x00\x00\x00\x00\x00\x00\x00'
p8453
tp8454
Rp8455
sg1
(g2
(S'S3'
p8456
I0
I1
tp8457
Rp8458
(I3
S'|'
p8459
NNNI3
I1
I0
tp8460
bS'KRS'
p8461
tp8462
Rp8463
g1
(g13
S'\x02\x00\x00\x00\x00\x00\x00\x00'
p8464
tp8465
Rp8466
sg1
(g2
(S'S3'
p8467
I0
I1
tp8468
Rp8469
(I3
S'|'
p8470
NNNI3
I1
I0
tp8471
bS'RKL'
p8472
tp8473
Rp8474
g1
(g13
S'\x02\x00\x00\x00\x00\x00\x00\x00'
p8475
tp8476
Rp8477
sg1
(g2
(S'S3'
p8478
I0
I1
tp8479
Rp8480
(I3
S'|'
p8481
NNNI3
I1
I0
tp8482
bS'RKM'
p8483
tp8484
Rp8485
g1
(g13
S'\t\x00\x00\x00\x00\x00\x00\x00'
p8486
tp8487
Rp8488
sg1
(g2
(S'S4'
p8489
I0
I1
tp8490
Rp8491
(I3
S'|'
p8492
NNNI4
I1
I0
tp8493
bS'MFKA'
p8494
tp8495
Rp8496
g1
(g13
S'\x03\x00\x00\x00\x00\x00\x00\x00'
p8497
tp8498
Rp8499
sg1
(g2
(S'S3'
p8500
I0
I1
tp8501
Rp8502
(I3
S'|'
p8503
NNNI3
I1
I0
tp8504
bS'SGG'
p8505
tp8506
Rp8507
g1
(g13
S'\x07\x00\x00\x00\x00\x00\x00\x00'
p8508
tp8509
Rp8510
sg1
(g2
(S'S3'
p8511
I0
I1
tp8512
Rp8513
(I3
S'|'
p8514
NNNI3
I1
I0
tp8515
bS'PWL'
p8516
tp8517
Rp8518
g1
(g13
S'\n\x00\x00\x00\x00\x00\x00\x00'
p8519
tp8520
Rp8521
sg1
(g2
(S'S3'
p8522
I0
I1
tp8523
Rp8524
(I3
S'|'
p8525
NNNI3
I1
I0
tp8526
bS'CNS'
p8527
tp8528
Rp8529
g1
(g13
S'\x03\x00\x00\x00\x00\x00\x00\x00'
p8530
tp8531
Rp8532
sg1
(g2
(S'S2'
p8533
I0
I1
tp8534
Rp8535
(I3
S'|'
p8536
NNNI2
I1
I0
tp8537
bS'AF'
p8538
tp8539
Rp8540
g1
(g13
S'\x0f\x00\x00\x00\x00\x00\x00\x00'
p8541
tp8542
Rp8543
sg1
(g2
(S'S2'
p8544
I0
I1
tp8545
Rp8546
(I3
S'|'
p8547
NNNI2
I1
I0
tp8548
bS'AH'
p8549
tp8550
Rp8551
g1
(g13
S'\x04\x00\x00\x00\x00\x00\x00\x00'
p8552
tp8553
Rp8554
sg1
(g2
(S'S3'
p8555
I0
I1
tp8556
Rp8557
(I3
S'|'
p8558
NNNI3
I1
I0
tp8559
bS'DWX'
p8560
tp8561
Rp8562
g1
(g13
S'\t\x00\x00\x00\x00\x00\x00\x00'
p8563
tp8564
Rp8565
sg1
(g2
(S'S3'
p8566
I0
I1
tp8567
Rp8568
(I3
S'|'
p8569
NNNI3
I1
I0
tp8570
bS'VSG'
p8571
tp8572
Rp8573
g1
(g13
S'\x05\x00\x00\x00\x00\x00\x00\x00'
p8574
tp8575
Rp8576
sg1
(g2
(S'S3'
p8577
I0
I1
tp8578
Rp8579
(I3
S'|'
p8580
NNNI3
I1
I0
tp8581
bS'GVG'
p8582
tp8583
Rp8584
g1
(g13
S'\x03\x00\x00\x00\x00\x00\x00\x00'
p8585
tp8586
Rp8587
sg1
(g2
(S'S2'
p8588
I0
I1
tp8589
Rp8590
(I3
S'|'
p8591
NNNI2
I1
I0
tp8592
bS'AO'
p8593
tp8594
Rp8595
g1
(g13
S'\t\x00\x00\x00\x00\x00\x00\x00'
p8596
tp8597
Rp8598
sg1
(g2
(S'S3'
p8599
I0
I1
tp8600
Rp8601
(I3
S'|'
p8602
NNNI3
I1
I0
tp8603
bS'KLK'
p8604
tp8605
Rp8606
g1
(g13
S'\x0b\x00\x00\x00\x00\x00\x00\x00'
p8607
tp8608
Rp8609
sg1
(g2
(S'S3'
p8610
I0
I1
tp8611
Rp8612
(I3
S'|'
p8613
NNNI3
I1
I0
tp8614
bS'CNB'
p8615
tp8616
Rp8617
g1
(g13
S'-\x00\x00\x00\x00\x00\x00\x00'
p8618
tp8619
Rp8620
sg1
(g2
(S'S4'
p8621
I0
I1
tp8622
Rp8623
(I3
S'|'
p8624
NNNI4
I1
I0
tp8625
bS'GOGH'
p8626
tp8627
Rp8628
g1
(g13
S'\x05\x00\x00\x00\x00\x00\x00\x00'
p8629
tp8630
Rp8631
sg1
(g2
(S'S2'
p8632
I0
I1
tp8633
Rp8634
(I3
S'|'
p8635
NNNI2
I1
I0
tp8636
bS'AY'
p8637
tp8638
Rp8639
g1
(g13
S'\t\x00\x00\x00\x00\x00\x00\x00'
p8640
tp8641
Rp8642
sg1
(g2
(S'S3'
p8643
I0
I1
tp8644
Rp8645
(I3
S'|'
p8646
NNNI3
I1
I0
tp8647
bS'DWK'
p8648
tp8649
Rp8650
g1
(g13
S'\x07\x00\x00\x00\x00\x00\x00\x00'
p8651
tp8652
Rp8653
sg1
(g2
(S'S3'
p8654
I0
I1
tp8655
Rp8656
(I3
S'|'
p8657
NNNI3
I1
I0
tp8658
bS'DWO'
p8659
tp8660
Rp8661
g1
(g13
S'\x04\x00\x00\x00\x00\x00\x00\x00'
p8662
tp8663
Rp8664
sg1
(g2
(S'S3'
p8665
I0
I1
tp8666
Rp8667
(I3
S'|'
p8668
NNNI3
I1
I0
tp8669
bS'DND'
p8670
tp8671
Rp8672
g1
(g13
S'\x05\x00\x00\x00\x00\x00\x00\x00'
p8673
tp8674
Rp8675
sg1
(g2
(S'S3'
p8676
I0
I1
tp8677
Rp8678
(I3
S'|'
p8679
NNNI3
I1
I0
tp8680
bS'CNI'
p8681
tp8682
Rp8683
g1
(g13
S'\r\x00\x00\x00\x00\x00\x00\x00'
p8684
tp8685
Rp8686
sg1
(g2
(S'S3'
p8687
I0
I1
tp8688
Rp8689
(I3
S'|'
p8690
NNNI3
I1
I0
tp8691
bS'KGP'
p8692
tp8693
Rp8694
g1
(g13
S'\x17\x00\x00\x00\x00\x00\x00\x00'
p8695
tp8696
Rp8697
sg1
(g2
(S'S3'
p8698
I0
I1
tp8699
Rp8700
(I3
S'|'
p8701
NNNI3
I1
I0
tp8702
bS'MWH'
p8703
tp8704
Rp8705
g1
(g13
S'\x02\x00\x00\x00\x00\x00\x00\x00'
p8706
tp8707
Rp8708
sg1
(g2
(S'S3'
p8709
I0
I1
tp8710
Rp8711
(I3
S'|'
p8712
NNNI3
I1
I0
tp8713
bS'VSU'
p8714
tp8715
Rp8716
g1
(g13
S'\x07\x00\x00\x00\x00\x00\x00\x00'
p8717
tp8718
Rp8719
sg1
(g2
(S'S3'
p8720
I0
I1
tp8721
Rp8722
(I3
S'|'
p8723
NNNI3
I1
I0
tp8724
bS'NLV'
p8725
tp8726
Rp8727
g1
(g13
S'\x03\x00\x00\x00\x00\x00\x00\x00'
p8728
tp8729
Rp8730
sg1
(g2
(S'S3'
p8731
I0
I1
tp8732
Rp8733
(I3
S'|'
p8734
NNNI3
I1
I0
tp8735
bS'KGA'
p8736
tp8737
Rp8738
g1
(g13
S'\x04\x00\x00\x00\x00\x00\x00\x00'
p8739
tp8740
Rp8741
sg1
(g2
(S'S3'
p8742
I0
I1
tp8743
Rp8744
(I3
S'|'
p8745
NNNI3
I1
I0
tp8746
bS'TKN'
p8747
tp8748
Rp8749
g1
(g13
S'\x02\x00\x00\x00\x00\x00\x00\x00'
p8750
tp8751
Rp8752
sg1
(g2
(S'S3'
p8753
I0
I1
tp8754
Rp8755
(I3
S'|'
p8756
NNNI3
I1
I0
tp8757
bS'RWL'
p8758
tp8759
Rp8760
g1
(g13
S'\x06\x00\x00\x00\x00\x00\x00\x00'
p8761
tp8762
Rp8763
sg1
(g2
(S'S3'
p8764
I0
I1
tp8765
Rp8766
(I3
S'|'
p8767
NNNI3
I1
I0
tp8768
bS'KGG'
p8769
tp8770
Rp8771
g1
(g13
S'\x0c\x00\x00\x00\x00\x00\x00\x00'
p8772
tp8773
Rp8774
sg1
(g2
(S'S4'
p8775
I0
I1
tp8776
Rp8777
(I3
S'|'
p8778
NNNI4
I1
I0
tp8779
bS'INDB'
p8780
tp8781
Rp8782
g1
(g13
S'\x08\x00\x00\x00\x00\x00\x00\x00'
p8783
tp8784
Rp8785
sg1
(g2
(S'S3'
p8786
I0
I1
tp8787
Rp8788
(I3
S'|'
p8789
NNNI3
I1
I0
tp8790
bS'KGI'
p8791
tp8792
Rp8793
g1
(g13
S'\x07\x00\x00\x00\x00\x00\x00\x00'
p8794
tp8795
Rp8796
s.