(dp0
cnumpy.core.multiarray
scalar
p1
(cnumpy
dtype
p2
(S'S3'
p3
I0
I1
tp4
Rp5
(I3
S'|'
p6
NNNI3
I1
I0
tp7
bS'SIR'
p8
tp9
Rp10
I48
sg1
(g2
(S'S3'
p11
I0
I1
tp12
Rp13
(I3
S'|'
p14
NNNI3
I1
I0
tp15
bS'CPJ'
p16
tp17
Rp18
I16
sg1
(g2
(S'S3'
p19
I0
I1
tp20
Rp21
(I3
S'|'
p22
NNNI3
I1
I0
tp23
bS'CPK'
p24
tp25
Rp26
I31
sg1
(g2
(S'S3'
p27
I0
I1
tp28
Rp29
(I3
S'|'
p30
NNNI3
I1
I0
tp31
bS'SRT'
p32
tp33
Rp34
I51
sg1
(g2
(S'S3'
p35
I0
I1
tp36
Rp37
(I3
S'|'
p38
NNNI3
I1
I0
tp39
bS'JWP'
p40
tp41
Rp42
I13
sg1
(g2
(S'S3'
p43
I0
I1
tp44
Rp45
(I3
S'|'
p46
NNNI3
I1
I0
tp47
bS'CPA'
p48
tp49
Rp50
I26
sg1
(g2
(S'S3'
p51
I0
I1
tp52
Rp53
(I3
S'|'
p54
NNNI3
I1
I0
tp55
bS'AGC'
p56
tp57
Rp58
I154
sg1
(g2
(S'S3'
p59
I0
I1
tp60
Rp61
(I3
S'|'
p62
NNNI3
I1
I0
tp63
bS'OYR'
p64
tp65
Rp66
I9
sg1
(g2
(S'S3'
p67
I0
I1
tp68
Rp69
(I3
S'|'
p70
NNNI3
I1
I0
tp71
bS'NYN'
p72
tp73
Rp74
I28
sg1
(g2
(S'S3'
p75
I0
I1
tp76
Rp77
(I3
S'|'
p78
NNNI3
I1
I0
tp79
bS'JMT'
p80
tp81
Rp82
I25
sg1
(g2
(S'S3'
p83
I0
I1
tp84
Rp85
(I3
S'|'
p86
NNNI3
I1
I0
tp87
bS'CPR'
p88
tp89
Rp90
I119
sg1
(g2
(S'S4'
p91
I0
I1
tp92
Rp93
(I3
S'|'
p94
NNNI4
I1
I0
tp95
bS'KOTA'
p96
tp97
Rp98
I161
sg1
(g2
(S'S3'
p99
I0
I1
tp100
Rp101
(I3
S'|'
p102
NNNI3
I1
I0
tp103
bS'BWR'
p104
tp105
Rp106
I6
sg1
(g2
(S'S3'
p107
I0
I1
tp108
Rp109
(I3
S'|'
p110
NNNI3
I1
I0
tp111
bS'BWT'
p112
tp113
Rp114
I70
sg1
(g2
(S'S3'
p115
I0
I1
tp116
Rp117
(I3
S'|'
p118
NNNI3
I1
I0
tp119
bS'KYN'
p120
tp121
Rp122
I254
sg1
(g2
(S'S3'
p123
I0
I1
tp124
Rp125
(I3
S'|'
p126
NNNI3
I1
I0
tp127
bS'KYF'
p128
tp129
Rp130
I6
sg1
(g2
(S'S3'
p131
I0
I1
tp132
Rp133
(I3
S'|'
p134
NNNI3
I1
I0
tp135
bS'KYE'
p136
tp137
Rp138
I24
sg1
(g2
(S'S3'
p139
I0
I1
tp140
Rp141
(I3
S'|'
p142
NNNI3
I1
I0
tp143
bS'SPJ'
p144
tp145
Rp146
I101
sg1
(g2
(S'S4'
p147
I0
I1
tp148
Rp149
(I3
S'|'
p150
NNNI4
I1
I0
tp151
bS'NTSK'
p152
tp153
Rp154
I29
sg1
(g2
(S'S3'
p155
I0
I1
tp156
Rp157
(I3
S'|'
p158
NNNI3
I1
I0
tp159
bS'SPN'
p160
tp161
Rp162
I94
sg1
(g2
(S'S3'
p163
I0
I1
tp164
Rp165
(I3
S'|'
p166
NNNI3
I1
I0
tp167
bS'BWH'
p168
tp169
Rp170
I12
sg1
(g2
(S'S3'
p171
I0
I1
tp172
Rp173
(I3
S'|'
p174
NNNI3
I1
I0
tp175
bS'BWI'
p176
tp177
Rp178
I4
sg1
(g2
(S'S3'
p179
I0
I1
tp180
Rp181
(I3
S'|'
p182
NNNI3
I1
I0
tp183
bS'KYQ'
p184
tp185
Rp186
I90
sg1
(g2
(S'S3'
p187
I0
I1
tp188
Rp189
(I3
S'|'
p190
NNNI3
I1
I0
tp191
bS'KRE'
p192
tp193
Rp194
I16
sg1
(g2
(S'S3'
p195
I0
I1
tp196
Rp197
(I3
S'|'
p198
NNNI3
I1
I0
tp199
bS'BWM'
p200
tp201
Rp202
I39
sg1
(g2
(S'S3'
p203
I0
I1
tp204
Rp205
(I3
S'|'
p206
NNNI3
I1
I0
tp207
bS'BWN'
p208
tp209
Rp210
I152
sg1
(g2
(S'S3'
p211
I0
I1
tp212
Rp213
(I3
S'|'
p214
NNNI3
I1
I0
tp215
bS'KYT'
p216
tp217
Rp218
I2
sg1
(g2
(S'S4'
p219
I0
I1
tp220
Rp221
(I3
S'|'
p222
NNNI4
I1
I0
tp223
bS'BGTA'
p224
tp225
Rp226
I6
sg1
(g2
(S'S3'
p227
I0
I1
tp228
Rp229
(I3
S'|'
p230
NNNI3
I1
I0
tp231
bS'HZD'
p232
tp233
Rp234
I24
sg1
(g2
(S'S3'
p235
I0
I1
tp236
Rp237
(I3
S'|'
p238
NNNI3
I1
I0
tp239
bS'JID'
p240
tp241
Rp242
I29
sg1
(g2
(S'S3'
p243
I0
I1
tp244
Rp245
(I3
S'|'
p246
NNNI3
I1
I0
tp247
bS'MJG'
p248
tp249
Rp250
I9
sg1
(g2
(S'S3'
p251
I0
I1
tp252
Rp253
(I3
S'|'
p254
NNNI3
I1
I0
tp255
bS'MJA'
p256
tp257
Rp258
I13
sg1
(g2
(S'S3'
p259
I0
I1
tp260
Rp261
(I3
S'|'
p262
NNNI3
I1
I0
tp263
bS'JIA'
p264
tp265
Rp266
I1
sg1
(g2
(S'S3'
p267
I0
I1
tp268
Rp269
(I3
S'|'
p270
NNNI3
I1
I0
tp271
bS'VAA'
p272
tp273
Rp274
I2
sg1
(g2
(S'S3'
p275
I0
I1
tp276
Rp277
(I3
S'|'
p278
NNNI3
I1
I0
tp279
bS'BYN'
p280
tp281
Rp282
I10
sg1
(g2
(S'S2'
p283
I0
I1
tp284
Rp285
(I3
S'|'
p286
NNNI2
I1
I0
tp287
bS'GD'
p288
tp289
Rp290
I96
sg1
(g2
(S'S4'
p291
I0
I1
tp292
Rp293
(I3
S'|'
p294
NNNI4
I1
I0
tp295
bS'KNHP'
p296
tp297
Rp298
I4
sg1
(g2
(S'S2'
p299
I0
I1
tp300
Rp301
(I3
S'|'
p302
NNNI2
I1
I0
tp303
bS'JL'
p304
tp305
Rp306
I141
sg1
(g2
(S'S3'
p307
I0
I1
tp308
Rp309
(I3
S'|'
p310
NNNI3
I1
I0
tp311
bS'MAS'
p312
tp313
Rp314
I176
sg1
(g2
(S'S3'
p315
I0
I1
tp316
Rp317
(I3
S'|'
p318
NNNI3
I1
I0
tp319
bS'AHA'
p320
tp321
Rp322
I53
sg1
(g2
(S'S3'
p323
I0
I1
tp324
Rp325
(I3
S'|'
p326
NNNI3
I1
I0
tp327
bS'MAU'
p328
tp329
Rp330
I49
sg1
(g2
(S'S3'
p331
I0
I1
tp332
Rp333
(I3
S'|'
p334
NNNI3
I1
I0
tp335
bS'JNU'
p336
tp337
Rp338
I40
sg1
(g2
(S'S3'
p339
I0
I1
tp340
Rp341
(I3
S'|'
p342
NNNI3
I1
I0
tp343
bS'ROU'
p344
tp345
Rp346
I86
sg1
(g2
(S'S3'
p347
I0
I1
tp348
Rp349
(I3
S'|'
p350
NNNI3
I1
I0
tp351
bS'JNA'
p352
tp353
Rp354
I7
sg1
(g2
(S'S4'
p355
I0
I1
tp356
Rp357
(I3
S'|'
p358
NNNI4
I1
I0
tp359
bS'JJKR'
p360
tp361
Rp362
I93
sg1
(g2
(S'S3'
p363
I0
I1
tp364
Rp365
(I3
S'|'
p366
NNNI3
I1
I0
tp367
bS'SNS'
p368
tp369
Rp370
I1
sg1
(g2
(S'S3'
p371
I0
I1
tp372
Rp373
(I3
S'|'
p374
NNNI3
I1
I0
tp375
bS'SNP'
p376
tp377
Rp378
I37
sg1
(g2
(S'S3'
p379
I0
I1
tp380
Rp381
(I3
S'|'
p382
NNNI3
I1
I0
tp383
bS'LAV'
p384
tp385
Rp386
I10
sg1
(g2
(S'S3'
p387
I0
I1
tp388
Rp389
(I3
S'|'
p390
NNNI3
I1
I0
tp391
bS'JNH'
p392
tp393
Rp394
I38
sg1
(g2
(S'S3'
p395
I0
I1
tp396
Rp397
(I3
S'|'
p398
NNNI3
I1
I0
tp399
bS'LAR'
p400
tp401
Rp402
I65
sg1
(g2
(S'S4'
p403
I0
I1
tp404
Rp405
(I3
S'|'
p406
NNNI4
I1
I0
tp407
bS'SGUJ'
p408
tp409
Rp410
I21
sg1
(g2
(S'S3'
p411
I0
I1
tp412
Rp413
(I3
S'|'
p414
NNNI3
I1
I0
tp415
bS'DTO'
p416
tp417
Rp418
I30
sg1
(g2
(S'S4'
p419
I0
I1
tp420
Rp421
(I3
S'|'
p422
NNNI4
I1
I0
tp423
bS'SVRP'
p424
tp425
Rp426
I6
sg1
(g2
(S'S3'
p427
I0
I1
tp428
Rp429
(I3
S'|'
p430
NNNI3
I1
I0
tp431
bS'BEA'
p432
tp433
Rp434
I24
sg1
(g2
(S'S4'
p435
I0
I1
tp436
Rp437
(I3
S'|'
p438
NNNI4
I1
I0
tp439
bS'PNVL'
p440
tp441
Rp442
I80
sg1
(g2
(S'S4'
p443
I0
I1
tp444
Rp445
(I3
S'|'
p446
NNNI4
I1
I0
tp447
bS'PDRD'
p448
tp449
Rp450
I2
sg1
(g2
(S'S3'
p451
I0
I1
tp452
Rp453
(I3
S'|'
p454
NNNI3
I1
I0
tp455
bS'BEP'
p456
tp457
Rp458
I0
sg1
(g2
(S'S2'
p459
I0
I1
tp460
Rp461
(I3
S'|'
p462
NNNI2
I1
I0
tp463
bS'ST'
p464
tp465
Rp466
I265
sg1
(g2
(S'S4'
p467
I0
I1
tp468
Rp469
(I3
S'|'
p470
NNNI4
I1
I0
tp471
bS'MAUR'
p472
tp473
Rp474
I12
sg1
(g2
(S'S3'
p475
I0
I1
tp476
Rp477
(I3
S'|'
p478
NNNI3
I1
I0
tp479
bS'KBN'
p480
tp481
Rp482
I1
sg1
(g2
(S'S3'
p483
I0
I1
tp484
Rp485
(I3
S'|'
p486
NNNI3
I1
I0
tp487
bS'SBC'
p488
tp489
Rp490
I117
sg1
(g2
(S'S3'
p491
I0
I1
tp492
Rp493
(I3
S'|'
p494
NNNI3
I1
I0
tp495
bS'LSI'
p496
tp497
Rp498
I24
sg1
(g2
(S'S2'
p499
I0
I1
tp500
Rp501
(I3
S'|'
p502
NNNI2
I1
I0
tp503
bS'VM'
p504
tp505
Rp506
I94
sg1
(g2
(S'S3'
p507
I0
I1
tp508
Rp509
(I3
S'|'
p510
NNNI3
I1
I0
tp511
bS'TEN'
p512
tp513
Rp514
I50
sg1
(g2
(S'S3'
p515
I0
I1
tp516
Rp517
(I3
S'|'
p518
NNNI3
I1
I0
tp519
bS'PAN'
p520
tp521
Rp522
I25
sg1
(g2
(S'S4'
p523
I0
I1
tp524
Rp525
(I3
S'|'
p526
NNNI4
I1
I0
tp527
bS'BSYA'
p528
tp529
Rp530
I3
sg1
(g2
(S'S3'
p531
I0
I1
tp532
Rp533
(I3
S'|'
p534
NNNI3
I1
I0
tp535
bS'SIL'
p536
tp537
Rp538
I30
sg1
(g2
(S'S3'
p539
I0
I1
tp540
Rp541
(I3
S'|'
p542
NNNI3
I1
I0
tp543
bS'JTW'
p544
tp545
Rp546
I14
sg1
(g2
(S'S3'
p547
I0
I1
tp548
Rp549
(I3
S'|'
p550
NNNI3
I1
I0
tp551
bS'FTP'
p552
tp553
Rp554
I33
sg1
(g2
(S'S3'
p555
I0
I1
tp556
Rp557
(I3
S'|'
p558
NNNI3
I1
I0
tp559
bS'IGP'
p560
tp561
Rp562
I105
sg1
(g2
(S'S3'
p563
I0
I1
tp564
Rp565
(I3
S'|'
p566
NNNI3
I1
I0
tp567
bS'BLT'
p568
tp569
Rp570
I10
sg1
(g2
(S'S3'
p571
I0
I1
tp572
Rp573
(I3
S'|'
p574
NNNI3
I1
I0
tp575
bS'RFJ'
p576
tp577
Rp578
I17
sg1
(g2
(S'S3'
p579
I0
I1
tp580
Rp581
(I3
S'|'
p582
NNNI3
I1
I0
tp583
bS'NFK'
p584
tp585
Rp586
I69
sg1
(g2
(S'S3'
p587
I0
I1
tp588
Rp589
(I3
S'|'
p590
NNNI3
I1
I0
tp591
bS'SPZ'
p592
tp593
Rp594
I11
sg1
(g2
(S'S3'
p595
I0
I1
tp596
Rp597
(I3
S'|'
p598
NNNI3
I1
I0
tp599
bS'BLS'
p600
tp601
Rp602
I123
sg1
(g2
(S'S3'
p603
I0
I1
tp604
Rp605
(I3
S'|'
p606
NNNI3
I1
I0
tp607
bS'BLM'
p608
tp609
Rp610
I29
sg1
(g2
(S'S3'
p611
I0
I1
tp612
Rp613
(I3
S'|'
p614
NNNI3
I1
I0
tp615
bS'DSO'
p616
tp617
Rp618
I18
sg1
(g2
(S'S3'
p619
I0
I1
tp620
Rp621
(I3
S'|'
p622
NNNI3
I1
I0
tp623
bS'KPD'
p624
tp625
Rp626
I177
sg1
(g2
(S'S3'
p627
I0
I1
tp628
Rp629
(I3
S'|'
p630
NNNI3
I1
I0
tp631
bS'KPG'
p632
tp633
Rp634
I69
sg1
(g2
(S'S3'
p635
I0
I1
tp636
Rp637
(I3
S'|'
p638
NNNI3
I1
I0
tp639
bS'BLG'
p640
tp641
Rp642
I1
sg1
(g2
(S'S3'
p643
I0
I1
tp644
Rp645
(I3
S'|'
p646
NNNI3
I1
I0
tp647
bS'DSB'
p648
tp649
Rp650
I3
sg1
(g2
(S'S3'
p651
I0
I1
tp652
Rp653
(I3
S'|'
p654
NNNI3
I1
I0
tp655
bS'KPN'
p656
tp657
Rp658
I25
sg1
(g2
(S'S3'
p659
I0
I1
tp660
Rp661
(I3
S'|'
p662
NNNI3
I1
I0
tp663
bS'DSA'
p664
tp665
Rp666
I32
sg1
(g2
(S'S3'
p667
I0
I1
tp668
Rp669
(I3
S'|'
p670
NNNI3
I1
I0
tp671
bS'HLZ'
p672
tp673
Rp674
I4
sg1
(g2
(S'S2'
p675
I0
I1
tp676
Rp677
(I3
S'|'
p678
NNNI2
I1
I0
tp679
bS'MB'
p680
tp681
Rp682
I191
sg1
(g2
(S'S3'
p683
I0
I1
tp684
Rp685
(I3
S'|'
p686
NNNI3
I1
I0
tp687
bS'CBJ'
p688
tp689
Rp690
I4
sg1
(g2
(S'S3'
p691
I0
I1
tp692
Rp693
(I3
S'|'
p694
NNNI3
I1
I0
tp695
bS'CBH'
p696
tp697
Rp698
I0
sg1
(g2
(S'S4'
p699
I0
I1
tp700
Rp701
(I3
S'|'
p702
NNNI4
I1
I0
tp703
bS'DEOS'
p704
tp705
Rp706
I70
sg1
(g2
(S'S4'
p707
I0
I1
tp708
Rp709
(I3
S'|'
p710
NNNI4
I1
I0
tp711
bS'RUPC'
p712
tp713
Rp714
I18
sg1
(g2
(S'S2'
p715
I0
I1
tp716
Rp717
(I3
S'|'
p718
NNNI2
I1
I0
tp719
bS'MJ'
p720
tp721
Rp722
I86
sg1
(g2
(S'S3'
p723
I0
I1
tp724
Rp725
(I3
S'|'
p726
NNNI3
I1
I0
tp727
bS'MXN'
p728
tp729
Rp730
I39
sg1
(g2
(S'S4'
p731
I0
I1
tp732
Rp733
(I3
S'|'
p734
NNNI4
I1
I0
tp735
bS'SKZR'
p736
tp737
Rp738
I81
sg1
(g2
(S'S3'
p739
I0
I1
tp740
Rp741
(I3
S'|'
p742
NNNI3
I1
I0
tp743
bS'KKN'
p744
tp745
Rp746
I15
sg1
(g2
(S'S3'
p747
I0
I1
tp748
Rp749
(I3
S'|'
p750
NNNI3
I1
I0
tp751
bS'MXK'
p752
tp753
Rp754
I2
sg1
(g2
(S'S2'
p755
I0
I1
tp756
Rp757
(I3
S'|'
p758
NNNI2
I1
I0
tp759
bS'MS'
p760
tp761
Rp762
I87
sg1
(g2
(S'S4'
p763
I0
I1
tp764
Rp765
(I3
S'|'
p766
NNNI4
I1
I0
tp767
bS'APDJ'
p768
tp769
Rp770
I28
sg1
(g2
(S'S4'
p771
I0
I1
tp772
Rp773
(I3
S'|'
p774
NNNI4
I1
I0
tp775
bS'MRPR'
p776
tp777
Rp778
I15
sg1
(g2
(S'S3'
p779
I0
I1
tp780
Rp781
(I3
S'|'
p782
NNNI3
I1
I0
tp783
bS'NOQ'
p784
tp785
Rp786
I62
sg1
(g2
(S'S4'
p787
I0
I1
tp788
Rp789
(I3
S'|'
p790
NNNI4
I1
I0
tp791
bS'PURI'
p792
tp793
Rp794
I82
sg1
(g2
(S'S3'
p795
I0
I1
tp796
Rp797
(I3
S'|'
p798
NNNI3
I1
I0
tp799
bS'BZU'
p800
tp801
Rp802
I83
sg1
(g2
(S'S3'
p803
I0
I1
tp804
Rp805
(I3
S'|'
p806
NNNI3
I1
I0
tp807
bS'EKL'
p808
tp809
Rp810
I0
sg1
(g2
(S'S4'
p811
I0
I1
tp812
Rp813
(I3
S'|'
p814
NNNI4
I1
I0
tp815
bS'VAPI'
p816
tp817
Rp818
I132
sg1
(g2
(S'S3'
p819
I0
I1
tp820
Rp821
(I3
S'|'
p822
NNNI3
I1
I0
tp823
bS'DOA'
p824
tp825
Rp826
I8
sg1
(g2
(S'S3'
p827
I0
I1
tp828
Rp829
(I3
S'|'
p830
NNNI3
I1
I0
tp831
bS'EKC'
p832
tp833
Rp834
I10
sg1
(g2
(S'S4'
p835
I0
I1
tp836
Rp837
(I3
S'|'
p838
NNNI4
I1
I0
tp839
bS'GIMB'
p840
tp841
Rp842
I34
sg1
(g2
(S'S3'
p843
I0
I1
tp844
Rp845
(I3
S'|'
p846
NNNI3
I1
I0
tp847
bS'BZG'
p848
tp849
Rp850
I2
sg1
(g2
(S'S2'
p851
I0
I1
tp852
Rp853
(I3
S'|'
p854
NNNI2
I1
I0
tp855
bS'FA'
p856
tp857
Rp858
I77
sg1
(g2
(S'S3'
p859
I0
I1
tp860
Rp861
(I3
S'|'
p862
NNNI3
I1
I0
tp863
bS'KOJ'
p864
tp865
Rp866
I53
sg1
(g2
(S'S2'
p867
I0
I1
tp868
Rp869
(I3
S'|'
p870
NNNI2
I1
I0
tp871
bS'FD'
p872
tp873
Rp874
I59
sg1
(g2
(S'S3'
p875
I0
I1
tp876
Rp877
(I3
S'|'
p878
NNNI3
I1
I0
tp879
bS'AKN'
p880
tp881
Rp882
I18
sg1
(g2
(S'S3'
p883
I0
I1
tp884
Rp885
(I3
S'|'
p886
NNNI3
I1
I0
tp887
bS'BZA'
p888
tp889
Rp890
I312
sg1
(g2
(S'S3'
p891
I0
I1
tp892
Rp893
(I3
S'|'
p894
NNNI3
I1
I0
tp895
bS'CTC'
p896
tp897
Rp898
I140
sg1
(g2
(S'S3'
p899
I0
I1
tp900
Rp901
(I3
S'|'
p902
NNNI3
I1
I0
tp903
bS'DOS'
p904
tp905
Rp906
I65
sg1
(g2
(S'S3'
p907
I0
I1
tp908
Rp909
(I3
S'|'
p910
NNNI3
I1
I0
tp911
bS'EKR'
p912
tp913
Rp914
I4
sg1
(g2
(S'S3'
p915
I0
I1
tp916
Rp917
(I3
S'|'
p918
NNNI3
I1
I0
tp919
bS'MDJ'
p920
tp921
Rp922
I10
sg1
(g2
(S'S4'
p923
I0
I1
tp924
Rp925
(I3
S'|'
p926
NNNI4
I1
I0
tp927
bS'KEPR'
p928
tp929
Rp930
I7
sg1
(g2
(S'S3'
p931
I0
I1
tp932
Rp933
(I3
S'|'
p934
NNNI3
I1
I0
tp935
bS'JSG'
p936
tp937
Rp938
I94
sg1
(g2
(S'S3'
p939
I0
I1
tp940
Rp941
(I3
S'|'
p942
NNNI3
I1
I0
tp943
bS'MDN'
p944
tp945
Rp946
I36
sg1
(g2
(S'S3'
p947
I0
I1
tp948
Rp949
(I3
S'|'
p950
NNNI3
I1
I0
tp951
bS'KOO'
p952
tp953
Rp954
I38
sg1
(g2
(S'S3'
p955
I0
I1
tp956
Rp957
(I3
S'|'
p958
NNNI3
I1
I0
tp959
bS'BST'
p960
tp961
Rp962
I78
sg1
(g2
(S'S3'
p963
I0
I1
tp964
Rp965
(I3
S'|'
p966
NNNI3
I1
I0
tp967
bS'JSM'
p968
tp969
Rp970
I15
sg1
(g2
(S'S4'
p971
I0
I1
tp972
Rp973
(I3
S'|'
p974
NNNI4
I1
I0
tp975
bS'BRYA'
p976
tp977
Rp978
I51
sg1
(g2
(S'S3'
p979
I0
I1
tp980
Rp981
(I3
S'|'
p982
NNNI3
I1
I0
tp983
bS'BAQ'
p984
tp985
Rp986
I47
sg1
(g2
(S'S3'
p987
I0
I1
tp988
Rp989
(I3
S'|'
p990
NNNI3
I1
I0
tp991
bS'MQS'
p992
tp993
Rp994
I2
sg1
(g2
(S'S3'
p995
I0
I1
tp996
Rp997
(I3
S'|'
p998
NNNI3
I1
I0
tp999
bS'BSL'
p1000
tp1001
Rp1002
I246
sg1
(g2
(S'S3'
p1003
I0
I1
tp1004
Rp1005
(I3
S'|'
p1006
NNNI3
I1
I0
tp1007
bS'GGA'
p1008
tp1009
Rp1010
I12
sg1
(g2
(S'S3'
p1011
I0
I1
tp1012
Rp1013
(I3
S'|'
p1014
NNNI3
I1
I0
tp1015
bS'GGC'
p1016
tp1017
Rp1018
I49
sg1
(g2
(S'S3'
p1019
I0
I1
tp1020
Rp1021
(I3
S'|'
p1022
NNNI3
I1
I0
tp1023
bS'BSE'
p1024
tp1025
Rp1026
I11
sg1
(g2
(S'S3'
p1027
I0
I1
tp1028
Rp1029
(I3
S'|'
p1030
NNNI3
I1
I0
tp1031
bS'MDP'
p1032
tp1033
Rp1034
I107
sg1
(g2
(S'S3'
p1035
I0
I1
tp1036
Rp1037
(I3
S'|'
p1038
NNNI3
I1
I0
tp1039
bS'GGN'
p1040
tp1041
Rp1042
I61
sg1
(g2
(S'S3'
p1043
I0
I1
tp1044
Rp1045
(I3
S'|'
p1046
NNNI3
I1
I0
tp1047
bS'MRR'
p1048
tp1049
Rp1050
I15
sg1
(g2
(S'S3'
p1051
I0
I1
tp1052
Rp1053
(I3
S'|'
p1054
NNNI3
I1
I0
tp1055
bS'BSB'
p1056
tp1057
Rp1058
I201
sg1
(g2
(S'S3'
p1059
I0
I1
tp1060
Rp1061
(I3
S'|'
p1062
NNNI3
I1
I0
tp1063
bS'GGJ'
p1064
tp1065
Rp1066
I21
sg1
(g2
(S'S3'
p1067
I0
I1
tp1068
Rp1069
(I3
S'|'
p1070
NNNI3
I1
I0
tp1071
bS'JER'
p1072
tp1073
Rp1074
I32
sg1
(g2
(S'S3'
p1075
I0
I1
tp1076
Rp1077
(I3
S'|'
p1078
NNNI3
I1
I0
tp1079
bS'AUB'
p1080
tp1081
Rp1082
I24
sg1
(g2
(S'S3'
p1083
I0
I1
tp1084
Rp1085
(I3
S'|'
p1086
NNNI3
I1
I0
tp1087
bS'LTT'
p1088
tp1089
Rp1090
I127
sg1
(g2
(S'S3'
p1091
I0
I1
tp1092
Rp1093
(I3
S'|'
p1094
NNNI3
I1
I0
tp1095
bS'KQR'
p1096
tp1097
Rp1098
I63
sg1
(g2
(S'S3'
p1099
I0
I1
tp1100
Rp1101
(I3
S'|'
p1102
NNNI3
I1
I0
tp1103
bS'MVI'
p1104
tp1105
Rp1106
I4
sg1
(g2
(S'S4'
p1107
I0
I1
tp1108
Rp1109
(I3
S'|'
p1110
NNNI4
I1
I0
tp1111
bS'RPAR'
p1112
tp1113
Rp1114
I12
sg1
(g2
(S'S3'
p1115
I0
I1
tp1116
Rp1117
(I3
S'|'
p1118
NNNI3
I1
I0
tp1119
bS'SBP'
p1120
tp1121
Rp1122
I59
sg1
(g2
(S'S3'
p1123
I0
I1
tp1124
Rp1125
(I3
S'|'
p1126
NNNI3
I1
I0
tp1127
bS'ALD'
p1128
tp1129
Rp1130
I197
sg1
(g2
(S'S2'
p1131
I0
I1
tp1132
Rp1133
(I3
S'|'
p1134
NNNI2
I1
I0
tp1135
bS'SV'
p1136
tp1137
Rp1138
I61
sg1
(g2
(S'S3'
p1139
I0
I1
tp1140
Rp1141
(I3
S'|'
p1142
NNNI3
I1
I0
tp1143
bS'MMR'
p1144
tp1145
Rp1146
I185
sg1
(g2
(S'S3'
p1147
I0
I1
tp1148
Rp1149
(I3
S'|'
p1150
NNNI3
I1
I0
tp1151
bS'SBB'
p1152
tp1153
Rp1154
I25
sg1
(g2
(S'S3'
p1155
I0
I1
tp1156
Rp1157
(I3
S'|'
p1158
NNNI3
I1
I0
tp1159
bS'MML'
p1160
tp1161
Rp1162
I29
sg1
(g2
(S'S2'
p1163
I0
I1
tp1164
Rp1165
(I3
S'|'
p1166
NNNI2
I1
I0
tp1167
bS'SI'
p1168
tp1169
Rp1170
I4
sg1
(g2
(S'S3'
p1171
I0
I1
tp1172
Rp1173
(I3
S'|'
p1174
NNNI3
I1
I0
tp1175
bS'TOI'
p1176
tp1177
Rp1178
I4
sg1
(g2
(S'S3'
p1179
I0
I1
tp1180
Rp1181
(I3
S'|'
p1182
NNNI3
I1
I0
tp1183
bS'JJK'
p1184
tp1185
Rp1186
I17
sg1
(g2
(S'S3'
p1187
I0
I1
tp1188
Rp1189
(I3
S'|'
p1190
NNNI3
I1
I0
tp1191
bS'SBG'
p1192
tp1193
Rp1194
I30
sg1
(g2
(S'S4'
p1195
I0
I1
tp1196
Rp1197
(I3
S'|'
p1198
NNNI4
I1
I0
tp1199
bS'NPNR'
p1200
tp1201
Rp1202
I17
sg1
(g2
(S'S3'
p1203
I0
I1
tp1204
Rp1205
(I3
S'|'
p1206
NNNI3
I1
I0
tp1207
bS'ALY'
p1208
tp1209
Rp1210
I25
sg1
(g2
(S'S3'
p1211
I0
I1
tp1212
Rp1213
(I3
S'|'
p1214
NNNI3
I1
I0
tp1215
bS'AII'
p1216
tp1217
Rp1218
I125
sg1
(g2
(S'S4'
p1219
I0
I1
tp1220
Rp1221
(I3
S'|'
p1222
NNNI4
I1
I0
tp1223
bS'JUDW'
p1224
tp1225
Rp1226
I21
sg1
(g2
(S'S3'
p1227
I0
I1
tp1228
Rp1229
(I3
S'|'
p1230
NNNI3
I1
I0
tp1231
bS'SBO'
p1232
tp1233
Rp1234
I8
sg1
(g2
(S'S3'
p1235
I0
I1
tp1236
Rp1237
(I3
S'|'
p1238
NNNI3
I1
I0
tp1239
bS'LMG'
p1240
tp1241
Rp1242
I45
sg1
(g2
(S'S3'
p1243
I0
I1
tp1244
Rp1245
(I3
S'|'
p1246
NNNI3
I1
I0
tp1247
bS'DPU'
p1248
tp1249
Rp1250
I43
sg1
(g2
(S'S3'
p1251
I0
I1
tp1252
Rp1253
(I3
S'|'
p1254
NNNI3
I1
I0
tp1255
bS'BAU'
p1256
tp1257
Rp1258
I54
sg1
(g2
(S'S3'
p1259
I0
I1
tp1260
Rp1261
(I3
S'|'
p1262
NNNI3
I1
I0
tp1263
bS'DPR'
p1264
tp1265
Rp1266
I15
sg1
(g2
(S'S3'
p1267
I0
I1
tp1268
Rp1269
(I3
S'|'
p1270
NNNI3
I1
I0
tp1271
bS'BAP'
p1272
tp1273
Rp1274
I42
sg1
(g2
(S'S4'
p1275
I0
I1
tp1276
Rp1277
(I3
S'|'
p1278
NNNI4
I1
I0
tp1279
bS'GLPT'
p1280
tp1281
Rp1282
I37
sg1
(g2
(S'S3'
p1283
I0
I1
tp1284
Rp1285
(I3
S'|'
p1286
NNNI3
I1
I0
tp1287
bS'CAR'
p1288
tp1289
Rp1290
I37
sg1
(g2
(S'S3'
p1291
I0
I1
tp1292
Rp1293
(I3
S'|'
p1294
NNNI3
I1
I0
tp1295
bS'MKP'
p1296
tp1297
Rp1298
I81
sg1
(g2
(S'S4'
p1299
I0
I1
tp1300
Rp1301
(I3
S'|'
p1302
NNNI4
I1
I0
tp1303
bS'BNCE'
p1304
tp1305
Rp1306
I24
sg1
(g2
(S'S4'
p1307
I0
I1
tp1308
Rp1309
(I3
S'|'
p1310
NNNI4
I1
I0
tp1311
bS'SJNP'
p1312
tp1313
Rp1314
I6
sg1
(g2
(S'S4'
p1315
I0
I1
tp1316
Rp1317
(I3
S'|'
p1318
NNNI4
I1
I0
tp1319
bS'SYWN'
p1320
tp1321
Rp1322
I3
sg1
(g2
(S'S4'
p1323
I0
I1
tp1324
Rp1325
(I3
S'|'
p1326
NNNI4
I1
I0
tp1327
bS'HAPA'
p1328
tp1329
Rp1330
I53
sg1
(g2
(S'S3'
p1331
I0
I1
tp1332
Rp1333
(I3
S'|'
p1334
NNNI3
I1
I0
tp1335
bS'DPA'
p1336
tp1337
Rp1338
I44
sg1
(g2
(S'S4'
p1339
I0
I1
tp1340
Rp1341
(I3
S'|'
p1342
NNNI4
I1
I0
tp1343
bS'SRID'
p1344
tp1345
Rp1346
I25
sg1
(g2
(S'S3'
p1347
I0
I1
tp1348
Rp1349
(I3
S'|'
p1350
NNNI3
I1
I0
tp1351
bS'MGS'
p1352
tp1353
Rp1354
I233
sg1
(g2
(S'S2'
p1355
I0
I1
tp1356
Rp1357
(I3
S'|'
p1358
NNNI2
I1
I0
tp1359
bS'GP'
p1360
tp1361
Rp1362
I29
sg1
(g2
(S'S3'
p1363
I0
I1
tp1364
Rp1365
(I3
S'|'
p1366
NNNI3
I1
I0
tp1367
bS'NHH'
p1368
tp1369
Rp1370
I36
sg1
(g2
(S'S4'
p1371
I0
I1
tp1372
Rp1373
(I3
S'|'
p1374
NNNI4
I1
I0
tp1375
bS'BNLW'
p1376
tp1377
Rp1378
I25
sg1
(g2
(S'S3'
p1379
I0
I1
tp1380
Rp1381
(I3
S'|'
p1382
NNNI3
I1
I0
tp1383
bS'NHT'
p1384
tp1385
Rp1386
I17
sg1
(g2
(S'S2'
p1387
I0
I1
tp1388
Rp1389
(I3
S'|'
p1390
NNNI2
I1
I0
tp1391
bS'LS'
p1392
tp1393
Rp1394
I21
sg1
(g2
(S'S3'
p1395
I0
I1
tp1396
Rp1397
(I3
S'|'
p1398
NNNI3
I1
I0
tp1399
bS'DYD'
p1400
tp1401
Rp1402
I19
sg1
(g2
(S'S3'
p1403
I0
I1
tp1404
Rp1405
(I3
S'|'
p1406
NNNI3
I1
I0
tp1407
bS'TBM'
p1408
tp1409
Rp1410
I60
sg1
(g2
(S'S3'
p1411
I0
I1
tp1412
Rp1413
(I3
S'|'
p1414
NNNI3
I1
I0
tp1415
bS'HIL'
p1416
tp1417
Rp1418
I4
sg1
(g2
(S'S4'
p1419
I0
I1
tp1420
Rp1421
(I3
S'|'
p1422
NNNI4
I1
I0
tp1423
bS'JSME'
p1424
tp1425
Rp1426
I116
sg1
(g2
(S'S3'
p1427
I0
I1
tp1428
Rp1429
(I3
S'|'
p1430
NNNI3
I1
I0
tp1431
bS'STA'
p1432
tp1433
Rp1434
I137
sg1
(g2
(S'S3'
p1435
I0
I1
tp1436
Rp1437
(I3
S'|'
p1438
NNNI3
I1
I0
tp1439
bS'VPT'
p1440
tp1441
Rp1442
I58
sg1
(g2
(S'S3'
p1443
I0
I1
tp1444
Rp1445
(I3
S'|'
p1446
NNNI3
I1
I0
tp1447
bS'STL'
p1448
tp1449
Rp1450
I17
sg1
(g2
(S'S3'
p1451
I0
I1
tp1452
Rp1453
(I3
S'|'
p1454
NNNI3
I1
I0
tp1455
bS'STN'
p1456
tp1457
Rp1458
I19
sg1
(g2
(S'S3'
p1459
I0
I1
tp1460
Rp1461
(I3
S'|'
p1462
NNNI3
I1
I0
tp1463
bS'KTQ'
p1464
tp1465
Rp1466
I18
sg1
(g2
(S'S3'
p1467
I0
I1
tp1468
Rp1469
(I3
S'|'
p1470
NNNI3
I1
I0
tp1471
bS'ABP'
p1472
tp1473
Rp1474
I39
sg1
(g2
(S'S3'
p1475
I0
I1
tp1476
Rp1477
(I3
S'|'
p1478
NNNI3
I1
I0
tp1479
bS'ABR'
p1480
tp1481
Rp1482
I93
sg1
(g2
(S'S3'
p1483
I0
I1
tp1484
Rp1485
(I3
S'|'
p1486
NNNI3
I1
I0
tp1487
bS'ABS'
p1488
tp1489
Rp1490
I17
sg1
(g2
(S'S3'
p1491
I0
I1
tp1492
Rp1493
(I3
S'|'
p1494
NNNI3
I1
I0
tp1495
bS'HGH'
p1496
tp1497
Rp1498
I8
sg1
(g2
(S'S3'
p1499
I0
I1
tp1500
Rp1501
(I3
S'|'
p1502
NNNI3
I1
I0
tp1503
bS'KTE'
p1504
tp1505
Rp1506
I139
sg1
(g2
(S'S4'
p1507
I0
I1
tp1508
Rp1509
(I3
S'|'
p1510
NNNI4
I1
I0
tp1511
bS'BANO'
p1512
tp1513
Rp1514
I8
sg1
(g2
(S'S3'
p1515
I0
I1
tp1516
Rp1517
(I3
S'|'
p1518
NNNI3
I1
I0
tp1519
bS'NZM'
p1520
tp1521
Rp1522
I178
sg1
(g2
(S'S4'
p1523
I0
I1
tp1524
Rp1525
(I3
S'|'
p1526
NNNI4
I1
I0
tp1527
bS'JIND'
p1528
tp1529
Rp1530
I37
sg1
(g2
(S'S4'
p1531
I0
I1
tp1532
Rp1533
(I3
S'|'
p1534
NNNI4
I1
I0
tp1535
bS'PNME'
p1536
tp1537
Rp1538
I49
sg1
(g2
(S'S4'
p1539
I0
I1
tp1540
Rp1541
(I3
S'|'
p1542
NNNI4
I1
I0
tp1543
bS'MLPR'
p1544
tp1545
Rp1546
I19
sg1
(g2
(S'S3'
p1547
I0
I1
tp1548
Rp1549
(I3
S'|'
p1550
NNNI3
I1
I0
tp1551
bS'PNP'
p1552
tp1553
Rp1554
I82
sg1
(g2
(S'S3'
p1555
I0
I1
tp1556
Rp1557
(I3
S'|'
p1558
NNNI3
I1
I0
tp1559
bS'BHC'
p1560
tp1561
Rp1562
I109
sg1
(g2
(S'S4'
p1563
I0
I1
tp1564
Rp1565
(I3
S'|'
p1566
NNNI4
I1
I0
tp1567
bS'NLDM'
p1568
tp1569
Rp1570
I12
sg1
(g2
(S'S4'
p1571
I0
I1
tp1572
Rp1573
(I3
S'|'
p1574
NNNI4
I1
I0
tp1575
bS'BINA'
p1576
tp1577
Rp1578
I135
sg1
(g2
(S'S3'
p1579
I0
I1
tp1580
Rp1581
(I3
S'|'
p1582
NNNI3
I1
I0
tp1583
bS'OGL'
p1584
tp1585
Rp1586
I152
sg1
(g2
(S'S3'
p1587
I0
I1
tp1588
Rp1589
(I3
S'|'
p1590
NNNI3
I1
I0
tp1591
bS'PNK'
p1592
tp1593
Rp1594
I18
sg1
(g2
(S'S3'
p1595
I0
I1
tp1596
Rp1597
(I3
S'|'
p1598
NNNI3
I1
I0
tp1599
bS'BHP'
p1600
tp1601
Rp1602
I63
sg1
(g2
(S'S3'
p1603
I0
I1
tp1604
Rp1605
(I3
S'|'
p1606
NNNI3
I1
I0
tp1607
bS'BHS'
p1608
tp1609
Rp1610
I62
sg1
(g2
(S'S3'
p1611
I0
I1
tp1612
Rp1613
(I3
S'|'
p1614
NNNI3
I1
I0
tp1615
bS'PNE'
p1616
tp1617
Rp1618
I18
sg1
(g2
(S'S4'
p1619
I0
I1
tp1620
Rp1621
(I3
S'|'
p1622
NNNI4
I1
I0
tp1623
bS'DRTP'
p1624
tp1625
Rp1626
I6
sg1
(g2
(S'S3'
p1627
I0
I1
tp1628
Rp1629
(I3
S'|'
p1630
NNNI3
I1
I0
tp1631
bS'MIH'
p1632
tp1633
Rp1634
I2
sg1
(g2
(S'S3'
p1635
I0
I1
tp1636
Rp1637
(I3
S'|'
p1638
NNNI3
I1
I0
tp1639
bS'ZNA'
p1640
tp1641
Rp1642
I24
sg1
(g2
(S'S3'
p1643
I0
I1
tp1644
Rp1645
(I3
S'|'
p1646
NNNI3
I1
I0
tp1647
bS'MIL'
p1648
tp1649
Rp1650
I9
sg1
(g2
(S'S3'
p1651
I0
I1
tp1652
Rp1653
(I3
S'|'
p1654
NNNI3
I1
I0
tp1655
bS'GHR'
p1656
tp1657
Rp1658
I21
sg1
(g2
(S'S3'
p1659
I0
I1
tp1660
Rp1661
(I3
S'|'
p1662
NNNI3
I1
I0
tp1663
bS'SOM'
p1664
tp1665
Rp1666
I1
sg1
(g2
(S'S4'
p1667
I0
I1
tp1668
Rp1669
(I3
S'|'
p1670
NNNI4
I1
I0
tp1671
bS'DURE'
p1672
tp1673
Rp1674
I32
sg1
(g2
(S'S3'
p1675
I0
I1
tp1676
Rp1677
(I3
S'|'
p1678
NNNI3
I1
I0
tp1679
bS'DKZ'
p1680
tp1681
Rp1682
I19
sg1
(g2
(S'S3'
p1683
I0
I1
tp1684
Rp1685
(I3
S'|'
p1686
NNNI3
I1
I0
tp1687
bS'GHY'
p1688
tp1689
Rp1690
I86
sg1
(g2
(S'S3'
p1691
I0
I1
tp1692
Rp1693
(I3
S'|'
p1694
NNNI3
I1
I0
tp1695
bS'MBA'
p1696
tp1697
Rp1698
I17
sg1
(g2
(S'S3'
p1699
I0
I1
tp1700
Rp1701
(I3
S'|'
p1702
NNNI3
I1
I0
tp1703
bS'GHD'
p1704
tp1705
Rp1706
I32
sg1
(g2
(S'S3'
p1707
I0
I1
tp1708
Rp1709
(I3
S'|'
p1710
NNNI3
I1
I0
tp1711
bS'MUV'
p1712
tp1713
Rp1714
I25
sg1
(g2
(S'S4'
p1715
I0
I1
tp1716
Rp1717
(I3
S'|'
p1718
NNNI4
I1
I0
tp1719
bS'ROZA'
p1720
tp1721
Rp1722
I20
sg1
(g2
(S'S3'
p1723
I0
I1
tp1724
Rp1725
(I3
S'|'
p1726
NNNI3
I1
I0
tp1727
bS'THE'
p1728
tp1729
Rp1730
I4
sg1
(g2
(S'S3'
p1731
I0
I1
tp1732
Rp1733
(I3
S'|'
p1734
NNNI3
I1
I0
tp1735
bS'JOP'
p1736
tp1737
Rp1738
I24
sg1
(g2
(S'S2'
p1739
I0
I1
tp1740
Rp1741
(I3
S'|'
p1742
NNNI2
I1
I0
tp1743
bS'RV'
p1744
tp1745
Rp1746
I12
sg1
(g2
(S'S3'
p1747
I0
I1
tp1748
Rp1749
(I3
S'|'
p1750
NNNI3
I1
I0
tp1751
bS'SAN'
p1752
tp1753
Rp1754
I24
sg1
(g2
(S'S3'
p1755
I0
I1
tp1756
Rp1757
(I3
S'|'
p1758
NNNI3
I1
I0
tp1759
bS'PGW'
p1760
tp1761
Rp1762
I76
sg1
(g2
(S'S3'
p1763
I0
I1
tp1764
Rp1765
(I3
S'|'
p1766
NNNI3
I1
I0
tp1767
bS'MUR'
p1768
tp1769
Rp1770
I53
sg1
(g2
(S'S3'
p1771
I0
I1
tp1772
Rp1773
(I3
S'|'
p1774
NNNI3
I1
I0
tp1775
bS'LBA'
p1776
tp1777
Rp1778
I12
sg1
(g2
(S'S2'
p1779
I0
I1
tp1780
Rp1781
(I3
S'|'
p1782
NNNI2
I1
I0
tp1783
bS'RE'
p1784
tp1785
Rp1786
I78
sg1
(g2
(S'S3'
p1787
I0
I1
tp1788
Rp1789
(I3
S'|'
p1790
NNNI3
I1
I0
tp1791
bS'PRP'
p1792
tp1793
Rp1794
I12
sg1
(g2
(S'S3'
p1795
I0
I1
tp1796
Rp1797
(I3
S'|'
p1798
NNNI3
I1
I0
tp1799
bS'PRR'
p1800
tp1801
Rp1802
I49
sg1
(g2
(S'S2'
p1803
I0
I1
tp1804
Rp1805
(I3
S'|'
p1806
NNNI2
I1
I0
tp1807
bS'RN'
p1808
tp1809
Rp1810
I62
sg1
(g2
(S'S3'
p1811
I0
I1
tp1812
Rp1813
(I3
S'|'
p1814
NNNI3
I1
I0
tp1815
bS'SSM'
p1816
tp1817
Rp1818
I57
sg1
(g2
(S'S3'
p1819
I0
I1
tp1820
Rp1821
(I3
S'|'
p1822
NNNI3
I1
I0
tp1823
bS'SZM'
p1824
tp1825
Rp1826
I36
sg1
(g2
(S'S3'
p1827
I0
I1
tp1828
Rp1829
(I3
S'|'
p1830
NNNI3
I1
I0
tp1831
bS'RAY'
p1832
tp1833
Rp1834
I9
sg1
(g2
(S'S3'
p1835
I0
I1
tp1836
Rp1837
(I3
S'|'
p1838
NNNI3
I1
I0
tp1839
bS'URD'
p1840
tp1841
Rp1842
I10
sg1
(g2
(S'S4'
p1843
I0
I1
tp1844
Rp1845
(I3
S'|'
p1846
NNNI4
I1
I0
tp1847
bS'MURI'
p1848
tp1849
Rp1850
I65
sg1
(g2
(S'S4'
p1851
I0
I1
tp1852
Rp1853
(I3
S'|'
p1854
NNNI4
I1
I0
tp1855
bS'GRRU'
p1856
tp1857
Rp1858
I13
sg1
(g2
(S'S4'
p1859
I0
I1
tp1860
Rp1861
(I3
S'|'
p1862
NNNI4
I1
I0
tp1863
bS'DAKE'
p1864
tp1865
Rp1866
I14
sg1
(g2
(S'S3'
p1867
I0
I1
tp1868
Rp1869
(I3
S'|'
p1870
NNNI3
I1
I0
tp1871
bS'CHH'
p1872
tp1873
Rp1874
I6
sg1
(g2
(S'S3'
p1875
I0
I1
tp1876
Rp1877
(I3
S'|'
p1878
NNNI3
I1
I0
tp1879
bS'CHI'
p1880
tp1881
Rp1882
I38
sg1
(g2
(S'S3'
p1883
I0
I1
tp1884
Rp1885
(I3
S'|'
p1886
NNNI3
I1
I0
tp1887
bS'CHJ'
p1888
tp1889
Rp1890
I9
sg1
(g2
(S'S3'
p1891
I0
I1
tp1892
Rp1893
(I3
S'|'
p1894
NNNI3
I1
I0
tp1895
bS'PPT'
p1896
tp1897
Rp1898
I18
sg1
(g2
(S'S3'
p1899
I0
I1
tp1900
Rp1901
(I3
S'|'
p1902
NNNI3
I1
I0
tp1903
bS'CHL'
p1904
tp1905
Rp1906
I5
sg1
(g2
(S'S3'
p1907
I0
I1
tp1908
Rp1909
(I3
S'|'
p1910
NNNI3
I1
I0
tp1911
bS'TPJ'
p1912
tp1913
Rp1914
I85
sg1
(g2
(S'S3'
p1915
I0
I1
tp1916
Rp1917
(I3
S'|'
p1918
NNNI3
I1
I0
tp1919
bS'BFM'
p1920
tp1921
Rp1922
I10
sg1
(g2
(S'S3'
p1923
I0
I1
tp1924
Rp1925
(I3
S'|'
p1926
NNNI3
I1
I0
tp1927
bS'TPH'
p1928
tp1929
Rp1930
I14
sg1
(g2
(S'S3'
p1931
I0
I1
tp1932
Rp1933
(I3
S'|'
p1934
NNNI3
I1
I0
tp1935
bS'JAM'
p1936
tp1937
Rp1938
I47
sg1
(g2
(S'S3'
p1939
I0
I1
tp1940
Rp1941
(I3
S'|'
p1942
NNNI3
I1
I0
tp1943
bS'HRI'
p1944
tp1945
Rp1946
I72
sg1
(g2
(S'S3'
p1947
I0
I1
tp1948
Rp1949
(I3
S'|'
p1950
NNNI3
I1
I0
tp1951
bS'MRE'
p1952
tp1953
Rp1954
I3
sg1
(g2
(S'S3'
p1955
I0
I1
tp1956
Rp1957
(I3
S'|'
p1958
NNNI3
I1
I0
tp1959
bS'MRA'
p1960
tp1961
Rp1962
I55
sg1
(g2
(S'S4'
p1963
I0
I1
tp1964
Rp1965
(I3
S'|'
p1966
NNNI4
I1
I0
tp1967
bS'LTHR'
p1968
tp1969
Rp1970
I21
sg1
(g2
(S'S3'
p1971
I0
I1
tp1972
Rp1973
(I3
S'|'
p1974
NNNI3
I1
I0
tp1975
bS'JAA'
p1976
tp1977
Rp1978
I18
sg1
(g2
(S'S4'
p1979
I0
I1
tp1980
Rp1981
(I3
S'|'
p1982
NNNI4
I1
I0
tp1983
bS'BRKA'
p1984
tp1985
Rp1986
I25
sg1
(g2
(S'S3'
p1987
I0
I1
tp1988
Rp1989
(I3
S'|'
p1990
NNNI3
I1
I0
tp1991
bS'DBA'
p1992
tp1993
Rp1994
I35
sg1
(g2
(S'S3'
p1995
I0
I1
tp1996
Rp1997
(I3
S'|'
p1998
NNNI3
I1
I0
tp1999
bS'KAJ'
p2000
tp2001
Rp2002
I4
sg1
(g2
(S'S3'
p2003
I0
I1
tp2004
Rp2005
(I3
S'|'
p2006
NNNI3
I1
I0
tp2007
bS'KAN'
p2008
tp2009
Rp2010
I6
sg1
(g2
(S'S3'
p2011
I0
I1
tp2012
Rp2013
(I3
S'|'
p2014
NNNI3
I1
I0
tp2015
bS'DBG'
p2016
tp2017
Rp2018
I48
sg1
(g2
(S'S4'
p2019
I0
I1
tp2020
Rp2021
(I3
S'|'
p2022
NNNI4
I1
I0
tp2023
bS'RTGH'
p2024
tp2025
Rp2026
I16
sg1
(g2
(S'S3'
p2027
I0
I1
tp2028
Rp2029
(I3
S'|'
p2030
NNNI3
I1
I0
tp2031
bS'IPR'
p2032
tp2033
Rp2034
I4
sg1
(g2
(S'S3'
p2035
I0
I1
tp2036
Rp2037
(I3
S'|'
p2038
NNNI3
I1
I0
tp2039
bS'SYJ'
p2040
tp2041
Rp2042
I8
sg1
(g2
(S'S3'
p2043
I0
I1
tp2044
Rp2045
(I3
S'|'
p2046
NNNI3
I1
I0
tp2047
bS'SFG'
p2048
tp2049
Rp2050
I6
sg1
(g2
(S'S3'
p2051
I0
I1
tp2052
Rp2053
(I3
S'|'
p2054
NNNI3
I1
I0
tp2055
bS'DBR'
p2056
tp2057
Rp2058
I15
sg1
(g2
(S'S3'
p2059
I0
I1
tp2060
Rp2061
(I3
S'|'
p2062
NNNI3
I1
I0
tp2063
bS'PHA'
p2064
tp2065
Rp2066
I21
sg1
(g2
(S'S3'
p2067
I0
I1
tp2068
Rp2069
(I3
S'|'
p2070
NNNI3
I1
I0
tp2071
bS'FUT'
p2072
tp2073
Rp2074
I64
sg1
(g2
(S'S3'
p2075
I0
I1
tp2076
Rp2077
(I3
S'|'
p2078
NNNI3
I1
I0
tp2079
bS'KSV'
p2080
tp2081
Rp2082
I25
sg1
(g2
(S'S3'
p2083
I0
I1
tp2084
Rp2085
(I3
S'|'
p2086
NNNI3
I1
I0
tp2087
bS'LRJ'
p2088
tp2089
Rp2090
I67
sg1
(g2
(S'S4'
p2091
I0
I1
tp2092
Rp2093
(I3
S'|'
p2094
NNNI4
I1
I0
tp2095
bS'CHTI'
p2096
tp2097
Rp2098
I3
sg1
(g2
(S'S3'
p2099
I0
I1
tp2100
Rp2101
(I3
S'|'
p2102
NNNI3
I1
I0
tp2103
bS'NGN'
p2104
tp2105
Rp2106
I21
sg1
(g2
(S'S3'
p2107
I0
I1
tp2108
Rp2109
(I3
S'|'
p2110
NNNI3
I1
I0
tp2111
bS'NGO'
p2112
tp2113
Rp2114
I40
sg1
(g2
(S'S3'
p2115
I0
I1
tp2116
Rp2117
(I3
S'|'
p2118
NNNI3
I1
I0
tp2119
bS'HDE'
p2120
tp2121
Rp2122
I4
sg1
(g2
(S'S3'
p2123
I0
I1
tp2124
Rp2125
(I3
S'|'
p2126
NNNI3
I1
I0
tp2127
bS'KSF'
p2128
tp2129
Rp2130
I8
sg1
(g2
(S'S3'
p2131
I0
I1
tp2132
Rp2133
(I3
S'|'
p2134
NNNI3
I1
I0
tp2135
bS'NGP'
p2136
tp2137
Rp2138
I242
sg1
(g2
(S'S4'
p2139
I0
I1
tp2140
Rp2141
(I3
S'|'
p2142
NNNI4
I1
I0
tp2143
bS'BNGN'
p2144
tp2145
Rp2146
I4
sg1
(g2
(S'S3'
p2147
I0
I1
tp2148
Rp2149
(I3
S'|'
p2150
NNNI3
I1
I0
tp2151
bS'HDN'
p2152
tp2153
Rp2154
I10
sg1
(g2
(S'S3'
p2155
I0
I1
tp2156
Rp2157
(I3
S'|'
p2158
NNNI3
I1
I0
tp2159
bS'KSJ'
p2160
tp2161
Rp2162
I20
sg1
(g2
(S'S3'
p2163
I0
I1
tp2164
Rp2165
(I3
S'|'
p2166
NNNI3
I1
I0
tp2167
bS'PKR'
p2168
tp2169
Rp2170
I47
sg1
(g2
(S'S3'
p2171
I0
I1
tp2172
Rp2173
(I3
S'|'
p2174
NNNI3
I1
I0
tp2175
bS'TKD'
p2176
tp2177
Rp2178
I18
sg1
(g2
(S'S3'
p2179
I0
I1
tp2180
Rp2181
(I3
S'|'
p2182
NNNI3
I1
I0
tp2183
bS'NLR'
p2184
tp2185
Rp2186
I151
sg1
(g2
(S'S4'
p2187
I0
I1
tp2188
Rp2189
(I3
S'|'
p2190
NNNI4
I1
I0
tp2191
bS'HRNR'
p2192
tp2193
Rp2194
I13
sg1
(g2
(S'S3'
p2195
I0
I1
tp2196
Rp2197
(I3
S'|'
p2198
NNNI3
I1
I0
tp2199
bS'BME'
p2200
tp2201
Rp2202
I10
sg1
(g2
(S'S3'
p2203
I0
I1
tp2204
Rp2205
(I3
S'|'
p2206
NNNI3
I1
I0
tp2207
bS'RTM'
p2208
tp2209
Rp2210
I127
sg1
(g2
(S'S3'
p2211
I0
I1
tp2212
Rp2213
(I3
S'|'
p2214
NNNI3
I1
I0
tp2215
bS'TNA'
p2216
tp2217
Rp2218
I146
sg1
(g2
(S'S3'
p2219
I0
I1
tp2220
Rp2221
(I3
S'|'
p2222
NNNI3
I1
I0
tp2223
bS'SNT'
p2224
tp2225
Rp2226
I39
sg1
(g2
(S'S3'
p2227
I0
I1
tp2228
Rp2229
(I3
S'|'
p2230
NNNI3
I1
I0
tp2231
bS'PKF'
p2232
tp2233
Rp2234
I6
sg1
(g2
(S'S3'
p2235
I0
I1
tp2236
Rp2237
(I3
S'|'
p2238
NNNI3
I1
I0
tp2239
bS'NLD'
p2240
tp2241
Rp2242
I7
sg1
(g2
(S'S3'
p2243
I0
I1
tp2244
Rp2245
(I3
S'|'
p2246
NNNI3
I1
I0
tp2247
bS'BMU'
p2248
tp2249
Rp2250
I2
sg1
(g2
(S'S4'
p2251
I0
I1
tp2252
Rp2253
(I3
S'|'
p2254
NNNI4
I1
I0
tp2255
bS'ANND'
p2256
tp2257
Rp2258
I169
sg1
(g2
(S'S3'
p2259
I0
I1
tp2260
Rp2261
(I3
S'|'
p2262
NNNI3
I1
I0
tp2263
bS'SHR'
p2264
tp2265
Rp2266
I33
sg1
(g2
(S'S3'
p2267
I0
I1
tp2268
Rp2269
(I3
S'|'
p2270
NNNI3
I1
I0
tp2271
bS'CSN'
p2272
tp2273
Rp2274
I44
sg1
(g2
(S'S3'
p2275
I0
I1
tp2276
Rp2277
(I3
S'|'
p2278
NNNI3
I1
I0
tp2279
bS'CSA'
p2280
tp2281
Rp2282
I14
sg1
(g2
(S'S3'
p2283
I0
I1
tp2284
Rp2285
(I3
S'|'
p2286
NNNI3
I1
I0
tp2287
bS'DLK'
p2288
tp2289
Rp2290
I29
sg1
(g2
(S'S3'
p2291
I0
I1
tp2292
Rp2293
(I3
S'|'
p2294
NNNI3
I1
I0
tp2295
bS'DLJ'
p2296
tp2297
Rp2298
I17
sg1
(g2
(S'S3'
p2299
I0
I1
tp2300
Rp2301
(I3
S'|'
p2302
NNNI3
I1
I0
tp2303
bS'DLI'
p2304
tp2305
Rp2306
I125
sg1
(g2
(S'S3'
p2307
I0
I1
tp2308
Rp2309
(I3
S'|'
p2310
NNNI3
I1
I0
tp2311
bS'DLO'
p2312
tp2313
Rp2314
I14
sg1
(g2
(S'S3'
p2315
I0
I1
tp2316
Rp2317
(I3
S'|'
p2318
NNNI3
I1
I0
tp2319
bS'DLN'
p2320
tp2321
Rp2322
I41
sg1
(g2
(S'S4'
p2323
I0
I1
tp2324
Rp2325
(I3
S'|'
p2326
NNNI4
I1
I0
tp2327
bS'KIUL'
p2328
tp2329
Rp2330
I134
sg1
(g2
(S'S3'
p2331
I0
I1
tp2332
Rp2333
(I3
S'|'
p2334
NNNI3
I1
I0
tp2335
bS'PNU'
p2336
tp2337
Rp2338
I96
sg1
(g2
(S'S2'
p2339
I0
I1
tp2340
Rp2341
(I3
S'|'
p2342
NNNI2
I1
I0
tp2343
bS'NK'
p2344
tp2345
Rp2346
I133
sg1
(g2
(S'S4'
p2347
I0
I1
tp2348
Rp2349
(I3
S'|'
p2350
NNNI4
I1
I0
tp2351
bS'BKSL'
p2352
tp2353
Rp2354
I4
sg1
(g2
(S'S3'
p2355
I0
I1
tp2356
Rp2357
(I3
S'|'
p2358
NNNI3
I1
I0
tp2359
bS'SHE'
p2360
tp2361
Rp2362
I12
sg1
(g2
(S'S3'
p2363
I0
I1
tp2364
Rp2365
(I3
S'|'
p2366
NNNI3
I1
I0
tp2367
bS'JTJ'
p2368
tp2369
Rp2370
I160
sg1
(g2
(S'S2'
p2371
I0
I1
tp2372
Rp2373
(I3
S'|'
p2374
NNNI2
I1
I0
tp2375
bS'ET'
p2376
tp2377
Rp2378
I260
sg1
(g2
(S'S4'
p2379
I0
I1
tp2380
Rp2381
(I3
S'|'
p2382
NNNI4
I1
I0
tp2383
bS'LUNI'
p2384
tp2385
Rp2386
I48
sg1
(g2
(S'S4'
p2387
I0
I1
tp2388
Rp2389
(I3
S'|'
p2390
NNNI4
I1
I0
tp2391
bS'BKSC'
p2392
tp2393
Rp2394
I56
sg1
(g2
(S'S3'
p2395
I0
I1
tp2396
Rp2397
(I3
S'|'
p2398
NNNI3
I1
I0
tp2399
bS'SHM'
p2400
tp2401
Rp2402
I26
sg1
(g2
(S'S3'
p2403
I0
I1
tp2404
Rp2405
(I3
S'|'
p2406
NNNI3
I1
I0
tp2407
bS'BTT'
p2408
tp2409
Rp2410
I50
sg1
(g2
(S'S4'
p2411
I0
I1
tp2412
Rp2413
(I3
S'|'
p2414
NNNI4
I1
I0
tp2415
bS'RPUR'
p2416
tp2417
Rp2418
I8
sg1
(g2
(S'S3'
p2419
I0
I1
tp2420
Rp2421
(I3
S'|'
p2422
NNNI3
I1
I0
tp2423
bS'BTP'
p2424
tp2425
Rp2426
I12
sg1
(g2
(S'S3'
p2427
I0
I1
tp2428
Rp2429
(I3
S'|'
p2430
NNNI3
I1
I0
tp2431
bS'GZH'
p2432
tp2433
Rp2434
I12
sg1
(g2
(S'S4'
p2435
I0
I1
tp2436
Rp2437
(I3
S'|'
p2438
NNNI4
I1
I0
tp2439
bS'RJPB'
p2440
tp2441
Rp2442
I78
sg1
(g2
(S'S3'
p2443
I0
I1
tp2444
Rp2445
(I3
S'|'
p2446
NNNI3
I1
I0
tp2447
bS'GZB'
p2448
tp2449
Rp2450
I169
sg1
(g2
(S'S3'
p2451
I0
I1
tp2452
Rp2453
(I3
S'|'
p2454
NNNI3
I1
I0
tp2455
bS'BTE'
p2456
tp2457
Rp2458
I79
sg1
(g2
(S'S3'
p2459
I0
I1
tp2460
Rp2461
(I3
S'|'
p2462
NNNI3
I1
I0
tp2463
bS'BTD'
p2464
tp2465
Rp2466
I19
sg1
(g2
(S'S3'
p2467
I0
I1
tp2468
Rp2469
(I3
S'|'
p2470
NNNI3
I1
I0
tp2471
bS'BTA'
p2472
tp2473
Rp2474
I24
sg1
(g2
(S'S3'
p2475
I0
I1
tp2476
Rp2477
(I3
S'|'
p2478
NNNI3
I1
I0
tp2479
bS'MAO'
p2480
tp2481
Rp2482
I85
sg1
(g2
(S'S3'
p2483
I0
I1
tp2484
Rp2485
(I3
S'|'
p2486
NNNI3
I1
I0
tp2487
bS'TBN'
p2488
tp2489
Rp2490
I15
sg1
(g2
(S'S3'
p2491
I0
I1
tp2492
Rp2493
(I3
S'|'
p2494
NNNI3
I1
I0
tp2495
bS'BTI'
p2496
tp2497
Rp2498
I48
sg1
(g2
(S'S3'
p2499
I0
I1
tp2500
Rp2501
(I3
S'|'
p2502
NNNI3
I1
I0
tp2503
bS'NBQ'
p2504
tp2505
Rp2506
I94
sg1
(g2
(S'S3'
p2507
I0
I1
tp2508
Rp2509
(I3
S'|'
p2510
NNNI3
I1
I0
tp2511
bS'SSB'
p2512
tp2513
Rp2514
I31
sg1
(g2
(S'S3'
p2515
I0
I1
tp2516
Rp2517
(I3
S'|'
p2518
NNNI3
I1
I0
tp2519
bS'MUW'
p2520
tp2521
Rp2522
I6
sg1
(g2
(S'S3'
p2523
I0
I1
tp2524
Rp2525
(I3
S'|'
p2526
NNNI3
I1
I0
tp2527
bS'ATE'
p2528
tp2529
Rp2530
I19
sg1
(g2
(S'S3'
p2531
I0
I1
tp2532
Rp2533
(I3
S'|'
p2534
NNNI3
I1
I0
tp2535
bS'JBP'
p2536
tp2537
Rp2538
I163
sg1
(g2
(S'S2'
p2539
I0
I1
tp2540
Rp2541
(I3
S'|'
p2542
NNNI2
I1
I0
tp2543
bS'ND'
p2544
tp2545
Rp2546
I143
sg1
(g2
(S'S3'
p2547
I0
I1
tp2548
Rp2549
(I3
S'|'
p2550
NNNI3
I1
I0
tp2551
bS'ATL'
p2552
tp2553
Rp2554
I18
sg1
(g2
(S'S3'
p2555
I0
I1
tp2556
Rp2557
(I3
S'|'
p2558
NNNI3
I1
I0
tp2559
bS'PMY'
p2560
tp2561
Rp2562
I39
sg1
(g2
(S'S3'
p2563
I0
I1
tp2564
Rp2565
(I3
S'|'
p2566
NNNI3
I1
I0
tp2567
bS'MTC'
p2568
tp2569
Rp2570
I54
sg1
(g2
(S'S3'
p2571
I0
I1
tp2572
Rp2573
(I3
S'|'
p2574
NNNI3
I1
I0
tp2575
bS'SKQ'
p2576
tp2577
Rp2578
I1
sg1
(g2
(S'S4'
p2579
I0
I1
tp2580
Rp2581
(I3
S'|'
p2582
NNNI4
I1
I0
tp2583
bS'KMME'
p2584
tp2585
Rp2586
I14
sg1
(g2
(S'S3'
p2587
I0
I1
tp2588
Rp2589
(I3
S'|'
p2590
NNNI3
I1
I0
tp2591
bS'ASR'
p2592
tp2593
Rp2594
I82
sg1
(g2
(S'S3'
p2595
I0
I1
tp2596
Rp2597
(I3
S'|'
p2598
NNNI3
I1
I0
tp2599
bS'RMT'
p2600
tp2601
Rp2602
I11
sg1
(g2
(S'S3'
p2603
I0
I1
tp2604
Rp2605
(I3
S'|'
p2606
NNNI3
I1
I0
tp2607
bS'RMU'
p2608
tp2609
Rp2610
I65
sg1
(g2
(S'S3'
p2611
I0
I1
tp2612
Rp2613
(I3
S'|'
p2614
NNNI3
I1
I0
tp2615
bS'DGO'
p2616
tp2617
Rp2618
I12
sg1
(g2
(S'S4'
p2619
I0
I1
tp2620
Rp2621
(I3
S'|'
p2622
NNNI4
I1
I0
tp2623
bS'SDAH'
p2624
tp2625
Rp2626
I54
sg1
(g2
(S'S3'
p2627
I0
I1
tp2628
Rp2629
(I3
S'|'
p2630
NNNI3
I1
I0
tp2631
bS'DGR'
p2632
tp2633
Rp2634
I130
sg1
(g2
(S'S3'
p2635
I0
I1
tp2636
Rp2637
(I3
S'|'
p2638
NNNI3
I1
I0
tp2639
bS'SEE'
p2640
tp2641
Rp2642
I71
sg1
(g2
(S'S3'
p2643
I0
I1
tp2644
Rp2645
(I3
S'|'
p2646
NNNI3
I1
I0
tp2647
bS'RMA'
p2648
tp2649
Rp2650
I46
sg1
(g2
(S'S3'
p2651
I0
I1
tp2652
Rp2653
(I3
S'|'
p2654
NNNI3
I1
I0
tp2655
bS'SEB'
p2656
tp2657
Rp2658
I15
sg1
(g2
(S'S3'
p2659
I0
I1
tp2660
Rp2661
(I3
S'|'
p2662
NNNI3
I1
I0
tp2663
bS'LNK'
p2664
tp2665
Rp2666
I6
sg1
(g2
(S'S3'
p2667
I0
I1
tp2668
Rp2669
(I3
S'|'
p2670
NNNI3
I1
I0
tp2671
bS'DGU'
p2672
tp2673
Rp2674
I4
sg1
(g2
(S'S3'
p2675
I0
I1
tp2676
Rp2677
(I3
S'|'
p2678
NNNI3
I1
I0
tp2679
bS'SEO'
p2680
tp2681
Rp2682
I11
sg1
(g2
(S'S3'
p2683
I0
I1
tp2684
Rp2685
(I3
S'|'
p2686
NNNI3
I1
I0
tp2687
bS'JKE'
p2688
tp2689
Rp2690
I13
sg1
(g2
(S'S3'
p2691
I0
I1
tp2692
Rp2693
(I3
S'|'
p2694
NNNI3
I1
I0
tp2695
bS'ASN'
p2696
tp2697
Rp2698
I190
sg1
(g2
(S'S3'
p2699
I0
I1
tp2700
Rp2701
(I3
S'|'
p2702
NNNI3
I1
I0
tp2703
bS'SEH'
p2704
tp2705
Rp2706
I49
sg1
(g2
(S'S3'
p2707
I0
I1
tp2708
Rp2709
(I3
S'|'
p2710
NNNI3
I1
I0
tp2711
bS'BBK'
p2712
tp2713
Rp2714
I78
sg1
(g2
(S'S3'
p2715
I0
I1
tp2716
Rp2717
(I3
S'|'
p2718
NNNI3
I1
I0
tp2719
bS'TLV'
p2720
tp2721
Rp2722
I6
sg1
(g2
(S'S4'
p2723
I0
I1
tp2724
Rp2725
(I3
S'|'
p2726
NNNI4
I1
I0
tp2727
bS'CSTM'
p2728
tp2729
Rp2730
I101
sg1
(g2
(S'S3'
p2731
I0
I1
tp2732
Rp2733
(I3
S'|'
p2734
NNNI3
I1
I0
tp2735
bS'DUB'
p2736
tp2737
Rp2738
I8
sg1
(g2
(S'S3'
p2739
I0
I1
tp2740
Rp2741
(I3
S'|'
p2742
NNNI3
I1
I0
tp2743
bS'CLG'
p2744
tp2745
Rp2746
I24
sg1
(g2
(S'S3'
p2747
I0
I1
tp2748
Rp2749
(I3
S'|'
p2750
NNNI3
I1
I0
tp2751
bS'KJM'
p2752
tp2753
Rp2754
I81
sg1
(g2
(S'S3'
p2755
I0
I1
tp2756
Rp2757
(I3
S'|'
p2758
NNNI3
I1
I0
tp2759
bS'GTS'
p2760
tp2761
Rp2762
I17
sg1
(g2
(S'S3'
p2763
I0
I1
tp2764
Rp2765
(I3
S'|'
p2766
NNNI3
I1
I0
tp2767
bS'UND'
p2768
tp2769
Rp2770
I1
sg1
(g2
(S'S4'
p2771
I0
I1
tp2772
Rp2773
(I3
S'|'
p2774
NNNI4
I1
I0
tp2775
bS'VJPJ'
p2776
tp2777
Rp2778
I18
sg1
(g2
(S'S4'
p2779
I0
I1
tp2780
Rp2781
(I3
S'|'
p2782
NNNI4
I1
I0
tp2783
bS'ORAI'
p2784
tp2785
Rp2786
I53
sg1
(g2
(S'S3'
p2787
I0
I1
tp2788
Rp2789
(I3
S'|'
p2790
NNNI3
I1
I0
tp2791
bS'TLJ'
p2792
tp2793
Rp2794
I4
sg1
(g2
(S'S3'
p2795
I0
I1
tp2796
Rp2797
(I3
S'|'
p2798
NNNI3
I1
I0
tp2799
bS'BBU'
p2800
tp2801
Rp2802
I55
sg1
(g2
(S'S3'
p2803
I0
I1
tp2804
Rp2805
(I3
S'|'
p2806
NNNI3
I1
I0
tp2807
bS'TLH'
p2808
tp2809
Rp2810
I18
sg1
(g2
(S'S3'
p2811
I0
I1
tp2812
Rp2813
(I3
S'|'
p2814
NNNI3
I1
I0
tp2815
bS'BBS'
p2816
tp2817
Rp2818
I209
sg1
(g2
(S'S4'
p2819
I0
I1
tp2820
Rp2821
(I3
S'|'
p2822
NNNI4
I1
I0
tp2823
bS'BSQP'
p2824
tp2825
Rp2826
I14
sg1
(g2
(S'S3'
p2827
I0
I1
tp2828
Rp2829
(I3
S'|'
p2830
NNNI3
I1
I0
tp2831
bS'RJR'
p2832
tp2833
Rp2834
I8
sg1
(g2
(S'S3'
p2835
I0
I1
tp2836
Rp2837
(I3
S'|'
p2838
NNNI3
I1
I0
tp2839
bS'KEI'
p2840
tp2841
Rp2842
I25
sg1
(g2
(S'S3'
p2843
I0
I1
tp2844
Rp2845
(I3
S'|'
p2846
NNNI3
I1
I0
tp2847
bS'TET'
p2848
tp2849
Rp2850
I4
sg1
(g2
(S'S2'
p2851
I0
I1
tp2852
Rp2853
(I3
S'|'
p2854
NNNI2
I1
I0
tp2855
bS'KS'
p2856
tp2857
Rp2858
I10
sg1
(g2
(S'S3'
p2859
I0
I1
tp2860
Rp2861
(I3
S'|'
p2862
NNNI3
I1
I0
tp2863
bS'TUN'
p2864
tp2865
Rp2866
I23
sg1
(g2
(S'S4'
p2867
I0
I1
tp2868
Rp2869
(I3
S'|'
p2870
NNNI4
I1
I0
tp2871
bS'SLGR'
p2872
tp2873
Rp2874
I29
sg1
(g2
(S'S3'
p2875
I0
I1
tp2876
Rp2877
(I3
S'|'
p2878
NNNI3
I1
I0
tp2879
bS'RGD'
p2880
tp2881
Rp2882
I7
sg1
(g2
(S'S2'
p2883
I0
I1
tp2884
Rp2885
(I3
S'|'
p2886
NNNI2
I1
I0
tp2887
bS'KY'
p2888
tp2889
Rp2890
I23
sg1
(g2
(S'S3'
p2891
I0
I1
tp2892
Rp2893
(I3
S'|'
p2894
NNNI3
I1
I0
tp2895
bS'SWM'
p2896
tp2897
Rp2898
I126
sg1
(g2
(S'S3'
p2899
I0
I1
tp2900
Rp2901
(I3
S'|'
p2902
NNNI3
I1
I0
tp2903
bS'DMV'
p2904
tp2905
Rp2906
I43
sg1
(g2
(S'S3'
p2907
I0
I1
tp2908
Rp2909
(I3
S'|'
p2910
NNNI3
I1
I0
tp2911
bS'BPF'
p2912
tp2913
Rp2914
I13
sg1
(g2
(S'S2'
p2915
I0
I1
tp2916
Rp2917
(I3
S'|'
p2918
NNNI2
I1
I0
tp2919
bS'DG'
p2920
tp2921
Rp2922
I74
sg1
(g2
(S'S2'
p2923
I0
I1
tp2924
Rp2925
(I3
S'|'
p2926
NNNI2
I1
I0
tp2927
bS'DD'
p2928
tp2929
Rp2930
I116
sg1
(g2
(S'S3'
p2931
I0
I1
tp2932
Rp2933
(I3
S'|'
p2934
NNNI3
I1
I0
tp2935
bS'BPL'
p2936
tp2937
Rp2938
I231
sg1
(g2
(S'S4'
p2939
I0
I1
tp2940
Rp2941
(I3
S'|'
p2942
NNNI4
I1
I0
tp2943
bS'WAIR'
p2944
tp2945
Rp2946
I1
sg1
(g2
(S'S3'
p2947
I0
I1
tp2948
Rp2949
(I3
S'|'
p2950
NNNI3
I1
I0
tp2951
bS'BPQ'
p2952
tp2953
Rp2954
I115
sg1
(g2
(S'S3'
p2955
I0
I1
tp2956
Rp2957
(I3
S'|'
p2958
NNNI3
I1
I0
tp2959
bS'JYG'
p2960
tp2961
Rp2962
I16
sg1
(g2
(S'S4'
p2963
I0
I1
tp2964
Rp2965
(I3
S'|'
p2966
NNNI4
I1
I0
tp2967
bS'BEHS'
p2968
tp2969
Rp2970
I7
sg1
(g2
(S'S4'
p2971
I0
I1
tp2972
Rp2973
(I3
S'|'
p2974
NNNI4
I1
I0
tp2975
bS'AUBR'
p2976
tp2977
Rp2978
I35
sg1
(g2
(S'S3'
p2979
I0
I1
tp2980
Rp2981
(I3
S'|'
p2982
NNNI3
I1
I0
tp2983
bS'DNA'
p2984
tp2985
Rp2986
I54
sg1
(g2
(S'S4'
p2987
I0
I1
tp2988
Rp2989
(I3
S'|'
p2990
NNNI4
I1
I0
tp2991
bS'ANSB'
p2992
tp2993
Rp2994
I10
sg1
(g2
(S'S2'
p2995
I0
I1
tp2996
Rp2997
(I3
S'|'
p2998
NNNI2
I1
I0
tp2999
bS'DR'
p3000
tp3001
Rp3002
I110
sg1
(g2
(S'S3'
p3003
I0
I1
tp3004
Rp3005
(I3
S'|'
p3006
NNNI3
I1
I0
tp3007
bS'RDP'
p3008
tp3009
Rp3010
I4
sg1
(g2
(S'S3'
p3011
I0
I1
tp3012
Rp3013
(I3
S'|'
p3014
NNNI3
I1
I0
tp3015
bS'RPR'
p3016
tp3017
Rp3018
I16
sg1
(g2
(S'S3'
p3019
I0
I1
tp3020
Rp3021
(I3
S'|'
p3022
NNNI3
I1
I0
tp3023
bS'BIH'
p3024
tp3025
Rp3026
I43
sg1
(g2
(S'S3'
p3027
I0
I1
tp3028
Rp3029
(I3
S'|'
p3030
NNNI3
I1
I0
tp3031
bS'SDE'
p3032
tp3033
Rp3034
I10
sg1
(g2
(S'S3'
p3035
I0
I1
tp3036
Rp3037
(I3
S'|'
p3038
NNNI3
I1
I0
tp3039
bS'GYN'
p3040
tp3041
Rp3042
I32
sg1
(g2
(S'S4'
p3043
I0
I1
tp3044
Rp3045
(I3
S'|'
p3046
NNNI4
I1
I0
tp3047
bS'JAIS'
p3048
tp3049
Rp3050
I19
sg1
(g2
(S'S3'
p3051
I0
I1
tp3052
Rp3053
(I3
S'|'
p3054
NNNI3
I1
I0
tp3055
bS'KWM'
p3056
tp3057
Rp3058
I10
sg1
(g2
(S'S3'
p3059
I0
I1
tp3060
Rp3061
(I3
S'|'
p3062
NNNI3
I1
I0
tp3063
bS'KWO'
p3064
tp3065
Rp3066
I13
sg1
(g2
(S'S4'
p3067
I0
I1
tp3068
Rp3069
(I3
S'|'
p3070
NNNI4
I1
I0
tp3071
bS'DMRX'
p3072
tp3073
Rp3074
I8
sg1
(g2
(S'S3'
p3075
I0
I1
tp3076
Rp3077
(I3
S'|'
p3078
NNNI3
I1
I0
tp3079
bS'KWR'
p3080
tp3081
Rp3082
I8
sg1
(g2
(S'S3'
p3083
I0
I1
tp3084
Rp3085
(I3
S'|'
p3086
NNNI3
I1
I0
tp3087
bS'UCA'
p3088
tp3089
Rp3090
I7
sg1
(g2
(S'S3'
p3091
I0
I1
tp3092
Rp3093
(I3
S'|'
p3094
NNNI3
I1
I0
tp3095
bS'RPH'
p3096
tp3097
Rp3098
I85
sg1
(g2
(S'S3'
p3099
I0
I1
tp3100
Rp3101
(I3
S'|'
p3102
NNNI3
I1
I0
tp3103
bS'POE'
p3104
tp3105
Rp3106
I7
sg1
(g2
(S'S3'
p3107
I0
I1
tp3108
Rp3109
(I3
S'|'
p3110
NNNI3
I1
I0
tp3111
bS'KJH'
p3112
tp3113
Rp3114
I26
sg1
(g2
(S'S4'
p3115
I0
I1
tp3116
Rp3117
(I3
S'|'
p3118
NNNI4
I1
I0
tp3119
bS'ALJN'
p3120
tp3121
Rp3122
I73
sg1
(g2
(S'S3'
p3123
I0
I1
tp3124
Rp3125
(I3
S'|'
p3126
NNNI3
I1
I0
tp3127
bS'DHN'
p3128
tp3129
Rp3130
I102
sg1
(g2
(S'S3'
p3131
I0
I1
tp3132
Rp3133
(I3
S'|'
p3134
NNNI3
I1
I0
tp3135
bS'FKM'
p3136
tp3137
Rp3138
I17
sg1
(g2
(S'S3'
p3139
I0
I1
tp3140
Rp3141
(I3
S'|'
p3142
NNNI3
I1
I0
tp3143
bS'MLD'
p3144
tp3145
Rp3146
I8
sg1
(g2
(S'S3'
p3147
I0
I1
tp3148
Rp3149
(I3
S'|'
p3150
NNNI3
I1
I0
tp3151
bS'JUC'
p3152
tp3153
Rp3154
I90
sg1
(g2
(S'S3'
p3155
I0
I1
tp3156
Rp3157
(I3
S'|'
p3158
NNNI3
I1
I0
tp3159
bS'DHG'
p3160
tp3161
Rp3162
I20
sg1
(g2
(S'S3'
p3163
I0
I1
tp3164
Rp3165
(I3
S'|'
p3166
NNNI3
I1
I0
tp3167
bS'DHD'
p3168
tp3169
Rp3170
I68
sg1
(g2
(S'S3'
p3171
I0
I1
tp3172
Rp3173
(I3
S'|'
p3174
NNNI3
I1
I0
tp3175
bS'DHA'
p3176
tp3177
Rp3178
I2
sg1
(g2
(S'S3'
p3179
I0
I1
tp3180
Rp3181
(I3
S'|'
p3182
NNNI3
I1
I0
tp3183
bS'FKG'
p3184
tp3185
Rp3186
I29
sg1
(g2
(S'S3'
p3187
I0
I1
tp3188
Rp3189
(I3
S'|'
p3190
NNNI3
I1
I0
tp3191
bS'AJI'
p3192
tp3193
Rp3194
I15
sg1
(g2
(S'S3'
p3195
I0
I1
tp3196
Rp3197
(I3
S'|'
p3198
NNNI3
I1
I0
tp3199
bS'AJJ'
p3200
tp3201
Rp3202
I110
sg1
(g2
(S'S3'
p3203
I0
I1
tp3204
Rp3205
(I3
S'|'
p3206
NNNI3
I1
I0
tp3207
bS'RBL'
p3208
tp3209
Rp3210
I59
sg1
(g2
(S'S3'
p3211
I0
I1
tp3212
Rp3213
(I3
S'|'
p3214
NNNI3
I1
I0
tp3215
bS'GOY'
p3216
tp3217
Rp3218
I14
sg1
(g2
(S'S3'
p3219
I0
I1
tp3220
Rp3221
(I3
S'|'
p3222
NNNI3
I1
I0
tp3223
bS'SLJ'
p3224
tp3225
Rp3226
I2
sg1
(g2
(S'S3'
p3227
I0
I1
tp3228
Rp3229
(I3
S'|'
p3230
NNNI3
I1
I0
tp3231
bS'SLD'
p3232
tp3233
Rp3234
I8
sg1
(g2
(S'S4'
p3235
I0
I1
tp3236
Rp3237
(I3
S'|'
p3238
NNNI4
I1
I0
tp3239
bS'MMKB'
p3240
tp3241
Rp3242
I1
sg1
(g2
(S'S3'
p3243
I0
I1
tp3244
Rp3245
(I3
S'|'
p3246
NNNI3
I1
I0
tp3247
bS'ARJ'
p3248
tp3249
Rp3250
I39
sg1
(g2
(S'S3'
p3251
I0
I1
tp3252
Rp3253
(I3
S'|'
p3254
NNNI3
I1
I0
tp3255
bS'NRO'
p3256
tp3257
Rp3258
I2
sg1
(g2
(S'S3'
p3259
I0
I1
tp3260
Rp3261
(I3
S'|'
p3262
NNNI3
I1
I0
tp3263
bS'JPL'
p3264
tp3265
Rp3266
I12
sg1
(g2
(S'S3'
p3267
I0
I1
tp3268
Rp3269
(I3
S'|'
p3270
NNNI3
I1
I0
tp3271
bS'NRM'
p3272
tp3273
Rp3274
I2
sg1
(g2
(S'S3'
p3275
I0
I1
tp3276
Rp3277
(I3
S'|'
p3278
NNNI3
I1
I0
tp3279
bS'JPE'
p3280
tp3281
Rp3282
I17
sg1
(g2
(S'S4'
p3283
I0
I1
tp3284
Rp3285
(I3
S'|'
p3286
NNNI4
I1
I0
tp3287
bS'PTKC'
p3288
tp3289
Rp3290
I91
sg1
(g2
(S'S3'
p3291
I0
I1
tp3292
Rp3293
(I3
S'|'
p3294
NNNI3
I1
I0
tp3295
bS'BHW'
p3296
tp3297
Rp3298
I26
sg1
(g2
(S'S3'
p3299
I0
I1
tp3300
Rp3301
(I3
S'|'
p3302
NNNI3
I1
I0
tp3303
bS'NRS'
p3304
tp3305
Rp3306
I6
sg1
(g2
(S'S3'
p3307
I0
I1
tp3308
Rp3309
(I3
S'|'
p3310
NNNI3
I1
I0
tp3311
bS'WKR'
p3312
tp3313
Rp3314
I51
sg1
(g2
(S'S3'
p3315
I0
I1
tp3316
Rp3317
(I3
S'|'
p3318
NNNI3
I1
I0
tp3319
bS'NRW'
p3320
tp3321
Rp3322
I29
sg1
(g2
(S'S3'
p3323
I0
I1
tp3324
Rp3325
(I3
S'|'
p3326
NNNI3
I1
I0
tp3327
bS'DZA'
p3328
tp3329
Rp3330
I27
sg1
(g2
(S'S3'
p3331
I0
I1
tp3332
Rp3333
(I3
S'|'
p3334
NNNI3
I1
I0
tp3335
bS'PAR'
p3336
tp3337
Rp3338
I63
sg1
(g2
(S'S3'
p3339
I0
I1
tp3340
Rp3341
(I3
S'|'
p3342
NNNI3
I1
I0
tp3343
bS'LDH'
p3344
tp3345
Rp3346
I175
sg1
(g2
(S'S3'
p3347
I0
I1
tp3348
Rp3349
(I3
S'|'
p3350
NNNI3
I1
I0
tp3351
bS'BOY'
p3352
tp3353
Rp3354
I37
sg1
(g2
(S'S2'
p3355
I0
I1
tp3356
Rp3357
(I3
S'|'
p3358
NNNI2
I1
I0
tp3359
bS'JU'
p3360
tp3361
Rp3362
I86
sg1
(g2
(S'S2'
p3363
I0
I1
tp3364
Rp3365
(I3
S'|'
p3366
NNNI2
I1
I0
tp3367
bS'WL'
p3368
tp3369
Rp3370
I135
sg1
(g2
(S'S2'
p3371
I0
I1
tp3372
Rp3373
(I3
S'|'
p3374
NNNI2
I1
I0
tp3375
bS'JP'
p3376
tp3377
Rp3378
I171
sg1
(g2
(S'S3'
p3379
I0
I1
tp3380
Rp3381
(I3
S'|'
p3382
NNNI3
I1
I0
tp3383
bS'BGP'
p3384
tp3385
Rp3386
I56
sg1
(g2
(S'S3'
p3387
I0
I1
tp3388
Rp3389
(I3
S'|'
p3390
NNNI3
I1
I0
tp3391
bS'BGS'
p3392
tp3393
Rp3394
I50
sg1
(g2
(S'S3'
p3395
I0
I1
tp3396
Rp3397
(I3
S'|'
p3398
NNNI3
I1
I0
tp3399
bS'RDL'
p3400
tp3401
Rp3402
I26
sg1
(g2
(S'S4'
p3403
I0
I1
tp3404
Rp3405
(I3
S'|'
p3406
NNNI4
I1
I0
tp3407
bS'BARH'
p3408
tp3409
Rp3410
I60
sg1
(g2
(S'S3'
p3411
I0
I1
tp3412
Rp3413
(I3
S'|'
p3414
NNNI3
I1
I0
tp3415
bS'BGZ'
p3416
tp3417
Rp3418
I33
sg1
(g2
(S'S4'
p3419
I0
I1
tp3420
Rp3421
(I3
S'|'
p3422
NNNI4
I1
I0
tp3423
bS'MHRG'
p3424
tp3425
Rp3426
I12
sg1
(g2
(S'S3'
p3427
I0
I1
tp3428
Rp3429
(I3
S'|'
p3430
NNNI3
I1
I0
tp3431
bS'HSA'
p3432
tp3433
Rp3434
I10
sg1
(g2
(S'S3'
p3435
I0
I1
tp3436
Rp3437
(I3
S'|'
p3438
NNNI3
I1
I0
tp3439
bS'NAD'
p3440
tp3441
Rp3442
I107
sg1
(g2
(S'S4'
p3443
I0
I1
tp3444
Rp3445
(I3
S'|'
p3446
NNNI4
I1
I0
tp3447
bS'WENA'
p3448
tp3449
Rp3450
I4
sg1
(g2
(S'S4'
p3451
I0
I1
tp3452
Rp3453
(I3
S'|'
p3454
NNNI4
I1
I0
tp3455
bS'DKDE'
p3456
tp3457
Rp3458
I1
sg1
(g2
(S'S3'
p3459
I0
I1
tp3460
Rp3461
(I3
S'|'
p3462
NNNI3
I1
I0
tp3463
bS'KNN'
p3464
tp3465
Rp3466
I31
sg1
(g2
(S'S3'
p3467
I0
I1
tp3468
Rp3469
(I3
S'|'
p3470
NNNI3
I1
I0
tp3471
bS'BNZ'
p3472
tp3473
Rp3474
I44
sg1
(g2
(S'S3'
p3475
I0
I1
tp3476
Rp3477
(I3
S'|'
p3478
NNNI3
I1
I0
tp3479
bS'HAN'
p3480
tp3481
Rp3482
I33
sg1
(g2
(S'S3'
p3483
I0
I1
tp3484
Rp3485
(I3
S'|'
p3486
NNNI3
I1
I0
tp3487
bS'KNF'
p3488
tp3489
Rp3490
I0
sg1
(g2
(S'S2'
p3491
I0
I1
tp3492
Rp3493
(I3
S'|'
p3494
NNNI2
I1
I0
tp3495
bS'BH'
p3496
tp3497
Rp3498
I127
sg1
(g2
(S'S4'
p3499
I0
I1
tp3500
Rp3501
(I3
S'|'
p3502
NNNI4
I1
I0
tp3503
bS'SGNR'
p3504
tp3505
Rp3506
I17
sg1
(g2
(S'S3'
p3507
I0
I1
tp3508
Rp3509
(I3
S'|'
p3510
NNNI3
I1
I0
tp3511
bS'KNE'
p3512
tp3513
Rp3514
I117
sg1
(g2
(S'S3'
p3515
I0
I1
tp3516
Rp3517
(I3
S'|'
p3518
NNNI3
I1
I0
tp3519
bS'BNV'
p3520
tp3521
Rp3522
I8
sg1
(g2
(S'S3'
p3523
I0
I1
tp3524
Rp3525
(I3
S'|'
p3526
NNNI3
I1
I0
tp3527
bS'BNT'
p3528
tp3529
Rp3530
I18
sg1
(g2
(S'S3'
p3531
I0
I1
tp3532
Rp3533
(I3
S'|'
p3534
NNNI3
I1
I0
tp3535
bS'SKI'
p3536
tp3537
Rp3538
I16
sg1
(g2
(S'S4'
p3539
I0
I1
tp3540
Rp3541
(I3
S'|'
p3542
NNNI4
I1
I0
tp3543
bS'BNDA'
p3544
tp3545
Rp3546
I21
sg1
(g2
(S'S3'
p3547
I0
I1
tp3548
Rp3549
(I3
S'|'
p3550
NNNI3
I1
I0
tp3551
bS'UJN'
p3552
tp3553
Rp3554
I106
sg1
(g2
(S'S3'
p3555
I0
I1
tp3556
Rp3557
(I3
S'|'
p3558
NNNI3
I1
I0
tp3559
bS'DQG'
p3560
tp3561
Rp3562
I33
sg1
(g2
(S'S3'
p3563
I0
I1
tp3564
Rp3565
(I3
S'|'
p3566
NNNI3
I1
I0
tp3567
bS'BNC'
p3568
tp3569
Rp3570
I70
sg1
(g2
(S'S3'
p3571
I0
I1
tp3572
Rp3573
(I3
S'|'
p3574
NNNI3
I1
I0
tp3575
bS'KNW'
p3576
tp3577
Rp3578
I124
sg1
(g2
(S'S3'
p3579
I0
I1
tp3580
Rp3581
(I3
S'|'
p3582
NNNI3
I1
I0
tp3583
bS'KNT'
p3584
tp3585
Rp3586
I8
sg1
(g2
(S'S3'
p3587
I0
I1
tp3588
Rp3589
(I3
S'|'
p3590
NNNI3
I1
I0
tp3591
bS'THB'
p3592
tp3593
Rp3594
I19
sg1
(g2
(S'S3'
p3595
I0
I1
tp3596
Rp3597
(I3
S'|'
p3598
NNNI3
I1
I0
tp3599
bS'PHK'
p3600
tp3601
Rp3602
I20
sg1
(g2
(S'S3'
p3603
I0
I1
tp3604
Rp3605
(I3
S'|'
p3606
NNNI3
I1
I0
tp3607
bS'MZP'
p3608
tp3609
Rp3610
I144
sg1
(g2
(S'S3'
p3611
I0
I1
tp3612
Rp3613
(I3
S'|'
p3614
NNNI3
I1
I0
tp3615
bS'HJP'
p3616
tp3617
Rp3618
I97
sg1
(g2
(S'S3'
p3619
I0
I1
tp3620
Rp3621
(I3
S'|'
p3622
NNNI3
I1
I0
tp3623
bS'KIR'
p3624
tp3625
Rp3626
I75
sg1
(g2
(S'S4'
p3627
I0
I1
tp3628
Rp3629
(I3
S'|'
p3630
NNNI4
I1
I0
tp3631
bS'GAYA'
p3632
tp3633
Rp3634
I100
sg1
(g2
(S'S4'
p3635
I0
I1
tp3636
Rp3637
(I3
S'|'
p3638
NNNI4
I1
I0
tp3639
bS'PLCJ'
p3640
tp3641
Rp3642
I17
sg1
(g2
(S'S3'
p3643
I0
I1
tp3644
Rp3645
(I3
S'|'
p3646
NNNI3
I1
I0
tp3647
bS'PHD'
p3648
tp3649
Rp3650
I24
sg1
(g2
(S'S3'
p3651
I0
I1
tp3652
Rp3653
(I3
S'|'
p3654
NNNI3
I1
I0
tp3655
bS'MZC'
p3656
tp3657
Rp3658
I8
sg1
(g2
(S'S3'
p3659
I0
I1
tp3660
Rp3661
(I3
S'|'
p3662
NNNI3
I1
I0
tp3663
bS'PHR'
p3664
tp3665
Rp3666
I37
sg1
(g2
(S'S3'
p3667
I0
I1
tp3668
Rp3669
(I3
S'|'
p3670
NNNI3
I1
I0
tp3671
bS'HJI'
p3672
tp3673
Rp3674
I31
sg1
(g2
(S'S4'
p3675
I0
I1
tp3676
Rp3677
(I3
S'|'
p3678
NNNI4
I1
I0
tp3679
bS'ANAH'
p3680
tp3681
Rp3682
I0
sg1
(g2
(S'S4'
p3683
I0
I1
tp3684
Rp3685
(I3
S'|'
p3686
NNNI4
I1
I0
tp3687
bS'DNWH'
p3688
tp3689
Rp3690
I4
sg1
(g2
(S'S3'
p3691
I0
I1
tp3692
Rp3693
(I3
S'|'
p3694
NNNI3
I1
I0
tp3695
bS'CRR'
p3696
tp3697
Rp3698
I16
sg1
(g2
(S'S3'
p3699
I0
I1
tp3700
Rp3701
(I3
S'|'
p3702
NNNI3
I1
I0
tp3703
bS'CRP'
p3704
tp3705
Rp3706
I36
sg1
(g2
(S'S3'
p3707
I0
I1
tp3708
Rp3709
(I3
S'|'
p3710
NNNI3
I1
I0
tp3711
bS'FDB'
p3712
tp3713
Rp3714
I73
sg1
(g2
(S'S4'
p3715
I0
I1
tp3716
Rp3717
(I3
S'|'
p3718
NNNI4
I1
I0
tp3719
bS'KLAR'
p3720
tp3721
Rp3722
I11
sg1
(g2
(S'S3'
p3723
I0
I1
tp3724
Rp3725
(I3
S'|'
p3726
NNNI3
I1
I0
tp3727
bS'NAT'
p3728
tp3729
Rp3730
I8
sg1
(g2
(S'S4'
p3731
I0
I1
tp3732
Rp3733
(I3
S'|'
p3734
NNNI4
I1
I0
tp3735
bS'SSNR'
p3736
tp3737
Rp3738
I0
sg1
(g2
(S'S3'
p3739
I0
I1
tp3740
Rp3741
(I3
S'|'
p3742
NNNI3
I1
I0
tp3743
bS'DMO'
p3744
tp3745
Rp3746
I55
sg1
(g2
(S'S3'
p3747
I0
I1
tp3748
Rp3749
(I3
S'|'
p3750
NNNI3
I1
I0
tp3751
bS'NAC'
p3752
tp3753
Rp3754
I17
sg1
(g2
(S'S4'
p3755
I0
I1
tp3756
Rp3757
(I3
S'|'
p3758
NNNI4
I1
I0
tp3759
bS'BNXR'
p3760
tp3761
Rp3762
I13
sg1
(g2
(S'S3'
p3763
I0
I1
tp3764
Rp3765
(I3
S'|'
p3766
NNNI3
I1
I0
tp3767
bS'SKB'
p3768
tp3769
Rp3770
I42
sg1
(g2
(S'S3'
p3771
I0
I1
tp3772
Rp3773
(I3
S'|'
p3774
NNNI3
I1
I0
tp3775
bS'CRJ'
p3776
tp3777
Rp3778
I88
sg1
(g2
(S'S3'
p3779
I0
I1
tp3780
Rp3781
(I3
S'|'
p3782
NNNI3
I1
I0
tp3783
bS'RGJ'
p3784
tp3785
Rp3786
I4
sg1
(g2
(S'S3'
p3787
I0
I1
tp3788
Rp3789
(I3
S'|'
p3790
NNNI3
I1
I0
tp3791
bS'SKN'
p3792
tp3793
Rp3794
I8
sg1
(g2
(S'S3'
p3795
I0
I1
tp3796
Rp3797
(I3
S'|'
p3798
NNNI3
I1
I0
tp3799
bS'RGL'
p3800
tp3801
Rp3802
I15
sg1
(g2
(S'S3'
p3803
I0
I1
tp3804
Rp3805
(I3
S'|'
p3806
NNNI3
I1
I0
tp3807
bS'SMO'
p3808
tp3809
Rp3810
I12
sg1
(g2
(S'S3'
p3811
I0
I1
tp3812
Rp3813
(I3
S'|'
p3814
NNNI3
I1
I0
tp3815
bS'SKJ'
p3816
tp3817
Rp3818
I8
sg1
(g2
(S'S4'
p3819
I0
I1
tp3820
Rp3821
(I3
S'|'
p3822
NNNI4
I1
I0
tp3823
bS'BDTS'
p3824
tp3825
Rp3826
I81
sg1
(g2
(S'S3'
p3827
I0
I1
tp3828
Rp3829
(I3
S'|'
p3830
NNNI3
I1
I0
tp3831
bS'JUD'
p3832
tp3833
Rp3834
I63
sg1
(g2
(S'S3'
p3835
I0
I1
tp3836
Rp3837
(I3
S'|'
p3838
NNNI3
I1
I0
tp3839
bS'GDA'
p3840
tp3841
Rp3842
I56
sg1
(g2
(S'S3'
p3843
I0
I1
tp3844
Rp3845
(I3
S'|'
p3846
NNNI3
I1
I0
tp3847
bS'BUP'
p3848
tp3849
Rp3850
I34
sg1
(g2
(S'S3'
p3851
I0
I1
tp3852
Rp3853
(I3
S'|'
p3854
NNNI3
I1
I0
tp3855
bS'BLZ'
p3856
tp3857
Rp3858
I12
sg1
(g2
(S'S4'
p3859
I0
I1
tp3860
Rp3861
(I3
S'|'
p3862
NNNI4
I1
I0
tp3863
bS'KSRA'
p3864
tp3865
Rp3866
I24
sg1
(g2
(S'S4'
p3867
I0
I1
tp3868
Rp3869
(I3
S'|'
p3870
NNNI4
I1
I0
tp3871
bS'MALB'
p3872
tp3873
Rp3874
I14
sg1
(g2
(S'S4'
p3875
I0
I1
tp3876
Rp3877
(I3
S'|'
p3878
NNNI4
I1
I0
tp3879
bS'RNPR'
p3880
tp3881
Rp3882
I8
sg1
(g2
(S'S4'
p3883
I0
I1
tp3884
Rp3885
(I3
S'|'
p3886
NNNI4
I1
I0
tp3887
bS'RDUM'
p3888
tp3889
Rp3890
I8
sg1
(g2
(S'S3'
p3891
I0
I1
tp3892
Rp3893
(I3
S'|'
p3894
NNNI3
I1
I0
tp3895
bS'LJN'
p3896
tp3897
Rp3898
I79
sg1
(g2
(S'S3'
p3899
I0
I1
tp3900
Rp3901
(I3
S'|'
p3902
NNNI3
I1
I0
tp3903
bS'GKP'
p3904
tp3905
Rp3906
I136
sg1
(g2
(S'S3'
p3907
I0
I1
tp3908
Rp3909
(I3
S'|'
p3910
NNNI3
I1
I0
tp3911
bS'MHA'
p3912
tp3913
Rp3914
I0
sg1
(g2
(S'S3'
p3915
I0
I1
tp3916
Rp3917
(I3
S'|'
p3918
NNNI3
I1
I0
tp3919
bS'GKH'
p3920
tp3921
Rp3922
I20
sg1
(g2
(S'S4'
p3923
I0
I1
tp3924
Rp3925
(I3
S'|'
p3926
NNNI4
I1
I0
tp3927
bS'CKDL'
p3928
tp3929
Rp3930
I6
sg1
(g2
(S'S3'
p3931
I0
I1
tp3932
Rp3933
(I3
S'|'
p3934
NNNI3
I1
I0
tp3935
bS'DDL'
p3936
tp3937
Rp3938
I4
sg1
(g2
(S'S3'
p3939
I0
I1
tp3940
Rp3941
(I3
S'|'
p3942
NNNI3
I1
I0
tp3943
bS'JGR'
p3944
tp3945
Rp3946
I4
sg1
(g2
(S'S3'
p3947
I0
I1
tp3948
Rp3949
(I3
S'|'
p3950
NNNI3
I1
I0
tp3951
bS'MHQ'
p3952
tp3953
Rp3954
I4
sg1
(g2
(S'S3'
p3955
I0
I1
tp3956
Rp3957
(I3
S'|'
p3958
NNNI3
I1
I0
tp3959
bS'MOZ'
p3960
tp3961
Rp3962
I44
sg1
(g2
(S'S3'
p3963
I0
I1
tp3964
Rp3965
(I3
S'|'
p3966
NNNI3
I1
I0
tp3967
bS'ANG'
p3968
tp3969
Rp3970
I58
sg1
(g2
(S'S3'
p3971
I0
I1
tp3972
Rp3973
(I3
S'|'
p3974
NNNI3
I1
I0
tp3975
bS'JLS'
p3976
tp3977
Rp3978
I6
sg1
(g2
(S'S3'
p3979
I0
I1
tp3980
Rp3981
(I3
S'|'
p3982
NNNI3
I1
I0
tp3983
bS'PSB'
p3984
tp3985
Rp3986
I9
sg1
(g2
(S'S3'
p3987
I0
I1
tp3988
Rp3989
(I3
S'|'
p3990
NNNI3
I1
I0
tp3991
bS'MOR'
p3992
tp3993
Rp3994
I14
sg1
(g2
(S'S4'
p3995
I0
I1
tp3996
Rp3997
(I3
S'|'
p3998
NNNI4
I1
I0
tp3999
bS'ACND'
p4000
tp4001
Rp4002
I13
sg1
(g2
(S'S3'
p4003
I0
I1
tp4004
Rp4005
(I3
S'|'
p4006
NNNI3
I1
I0
tp4007
bS'RAA'
p4008
tp4009
Rp4010
I11
sg1
(g2
(S'S3'
p4011
I0
I1
tp4012
Rp4013
(I3
S'|'
p4014
NNNI3
I1
I0
tp4015
bS'ANH'
p4016
tp4017
Rp4018
I10
sg1
(g2
(S'S3'
p4019
I0
I1
tp4020
Rp4021
(I3
S'|'
p4022
NNNI3
I1
I0
tp4023
bS'MOT'
p4024
tp4025
Rp4026
I15
sg1
(g2
(S'S3'
p4027
I0
I1
tp4028
Rp4029
(I3
S'|'
p4030
NNNI3
I1
I0
tp4031
bS'RNY'
p4032
tp4033
Rp4034
I58
sg1
(g2
(S'S4'
p4035
I0
I1
tp4036
Rp4037
(I3
S'|'
p4038
NNNI4
I1
I0
tp4039
bS'CKTD'
p4040
tp4041
Rp4042
I21
sg1
(g2
(S'S3'
p4043
I0
I1
tp4044
Rp4045
(I3
S'|'
p4046
NNNI3
I1
I0
tp4047
bS'PSR'
p4048
tp4049
Rp4050
I4
sg1
(g2
(S'S3'
p4051
I0
I1
tp4052
Rp4053
(I3
S'|'
p4054
NNNI3
I1
I0
tp4055
bS'JLL'
p4056
tp4057
Rp4058
I14
sg1
(g2
(S'S4'
p4059
I0
I1
tp4060
Rp4061
(I3
S'|'
p4062
NNNI4
I1
I0
tp4063
bS'GDYA'
p4064
tp4065
Rp4066
I43
sg1
(g2
(S'S3'
p4067
I0
I1
tp4068
Rp4069
(I3
S'|'
p4070
NNNI3
I1
I0
tp4071
bS'DDN'
p4072
tp4073
Rp4074
I36
sg1
(g2
(S'S3'
p4075
I0
I1
tp4076
Rp4077
(I3
S'|'
p4078
NNNI3
I1
I0
tp4079
bS'DVL'
p4080
tp4081
Rp4082
I42
sg1
(g2
(S'S3'
p4083
I0
I1
tp4084
Rp4085
(I3
S'|'
p4086
NNNI3
I1
I0
tp4087
bS'BCN'
p4088
tp4089
Rp4090
I27
sg1
(g2
(S'S3'
p4091
I0
I1
tp4092
Rp4093
(I3
S'|'
p4094
NNNI3
I1
I0
tp4095
bS'ETW'
p4096
tp4097
Rp4098
I61
sg1
(g2
(S'S3'
p4099
I0
I1
tp4100
Rp4101
(I3
S'|'
p4102
NNNI3
I1
I0
tp4103
bS'HNG'
p4104
tp4105
Rp4106
I0
sg1
(g2
(S'S3'
p4107
I0
I1
tp4108
Rp4109
(I3
S'|'
p4110
NNNI3
I1
I0
tp4111
bS'GWL'
p4112
tp4113
Rp4114
I141
sg1
(g2
(S'S3'
p4115
I0
I1
tp4116
Rp4117
(I3
S'|'
p4118
NNNI3
I1
I0
tp4119
bS'TMZ'
p4120
tp4121
Rp4122
I18
sg1
(g2
(S'S3'
p4123
I0
I1
tp4124
Rp4125
(I3
S'|'
p4126
NNNI3
I1
I0
tp4127
bS'PES'
p4128
tp4129
Rp4130
I2
sg1
(g2
(S'S3'
p4131
I0
I1
tp4132
Rp4133
(I3
S'|'
p4134
NNNI3
I1
I0
tp4135
bS'KMS'
p4136
tp4137
Rp4138
I9
sg1
(g2
(S'S3'
p4139
I0
I1
tp4140
Rp4141
(I3
S'|'
p4142
NNNI3
I1
I0
tp4143
bS'UMB'
p4144
tp4145
Rp4146
I204
sg1
(g2
(S'S3'
p4147
I0
I1
tp4148
Rp4149
(I3
S'|'
p4150
NNNI3
I1
I0
tp4151
bS'COI'
p4152
tp4153
Rp4154
I55
sg1
(g2
(S'S4'
p4155
I0
I1
tp4156
Rp4157
(I3
S'|'
p4158
NNNI4
I1
I0
tp4159
bS'KMBL'
p4160
tp4161
Rp4162
I30
sg1
(g2
(S'S3'
p4163
I0
I1
tp4164
Rp4165
(I3
S'|'
p4166
NNNI3
I1
I0
tp4167
bS'TWG'
p4168
tp4169
Rp4170
I8
sg1
(g2
(S'S3'
p4171
I0
I1
tp4172
Rp4173
(I3
S'|'
p4174
NNNI3
I1
I0
tp4175
bS'ZBD'
p4176
tp4177
Rp4178
I20
sg1
(g2
(S'S4'
p4179
I0
I1
tp4180
Rp4181
(I3
S'|'
p4182
NNNI4
I1
I0
tp4183
bS'ANDI'
p4184
tp4185
Rp4186
I5
sg1
(g2
(S'S3'
p4187
I0
I1
tp4188
Rp4189
(I3
S'|'
p4190
NNNI3
I1
I0
tp4191
bS'HWH'
p4192
tp4193
Rp4194
I230
sg1
(g2
(S'S4'
p4195
I0
I1
tp4196
Rp4197
(I3
S'|'
p4198
NNNI4
I1
I0
tp4199
bS'DBRG'
p4200
tp4201
Rp4202
I26
sg1
(g2
(S'S4'
p4203
I0
I1
tp4204
Rp4205
(I3
S'|'
p4206
NNNI4
I1
I0
tp4207
bS'TORI'
p4208
tp4209
Rp4210
I21
sg1
(g2
(S'S4'
p4211
I0
I1
tp4212
Rp4213
(I3
S'|'
p4214
NNNI4
I1
I0
tp4215
bS'KKDE'
p4216
tp4217
Rp4218
I49
sg1
(g2
(S'S3'
p4219
I0
I1
tp4220
Rp4221
(I3
S'|'
p4222
NNNI3
I1
I0
tp4223
bS'NJP'
p4224
tp4225
Rp4226
I125
sg1
(g2
(S'S4'
p4227
I0
I1
tp4228
Rp4229
(I3
S'|'
p4230
NNNI4
I1
I0
tp4231
bS'DBRT'
p4232
tp4233
Rp4234
I4
sg1
(g2
(S'S3'
p4235
I0
I1
tp4236
Rp4237
(I3
S'|'
p4238
NNNI3
I1
I0
tp4239
bS'VRI'
p4240
tp4241
Rp4242
I53
sg1
(g2
(S'S2'
p4243
I0
I1
tp4244
Rp4245
(I3
S'|'
p4246
NNNI2
I1
I0
tp4247
bS'CH'
p4248
tp4249
Rp4250
I26
sg1
(g2
(S'S3'
p4251
I0
I1
tp4252
Rp4253
(I3
S'|'
p4254
NNNI3
I1
I0
tp4255
bS'SRE'
p4256
tp4257
Rp4258
I106
sg1
(g2
(S'S3'
p4259
I0
I1
tp4260
Rp4261
(I3
S'|'
p4262
NNNI3
I1
I0
tp4263
bS'SRJ'
p4264
tp4265
Rp4266
I21
sg1
(g2
(S'S3'
p4267
I0
I1
tp4268
Rp4269
(I3
S'|'
p4270
NNNI3
I1
I0
tp4271
bS'FZR'
p4272
tp4273
Rp4274
I18
sg1
(g2
(S'S3'
p4275
I0
I1
tp4276
Rp4277
(I3
S'|'
p4278
NNNI3
I1
I0
tp4279
bS'SRI'
p4280
tp4281
Rp4282
I4
sg1
(g2
(S'S3'
p4283
I0
I1
tp4284
Rp4285
(I3
S'|'
p4286
NNNI3
I1
I0
tp4287
bS'SRO'
p4288
tp4289
Rp4290
I9
sg1
(g2
(S'S2'
p4291
I0
I1
tp4292
Rp4293
(I3
S'|'
p4294
NNNI2
I1
I0
tp4295
bS'CD'
p4296
tp4297
Rp4298
I69
sg1
(g2
(S'S3'
p4299
I0
I1
tp4300
Rp4301
(I3
S'|'
p4302
NNNI3
I1
I0
tp4303
bS'KRJ'
p4304
tp4305
Rp4306
I30
sg1
(g2
(S'S3'
p4307
I0
I1
tp4308
Rp4309
(I3
S'|'
p4310
NNNI3
I1
I0
tp4311
bS'NNW'
p4312
tp4313
Rp4314
I11
sg1
(g2
(S'S3'
p4315
I0
I1
tp4316
Rp4317
(I3
S'|'
p4318
NNNI3
I1
I0
tp4319
bS'SRP'
p4320
tp4321
Rp4322
I10
sg1
(g2
(S'S3'
p4323
I0
I1
tp4324
Rp4325
(I3
S'|'
p4326
NNNI3
I1
I0
tp4327
bS'SHC'
p4328
tp4329
Rp4330
I12
sg1
(g2
(S'S3'
p4331
I0
I1
tp4332
Rp4333
(I3
S'|'
p4334
NNNI3
I1
I0
tp4335
bS'UDL'
p4336
tp4337
Rp4338
I41
sg1
(g2
(S'S3'
p4339
I0
I1
tp4340
Rp4341
(I3
S'|'
p4342
NNNI3
I1
I0
tp4343
bS'FZD'
p4344
tp4345
Rp4346
I40
sg1
(g2
(S'S4'
p4347
I0
I1
tp4348
Rp4349
(I3
S'|'
p4350
NNNI4
I1
I0
tp4351
bS'BDME'
p4352
tp4353
Rp4354
I0
sg1
(g2
(S'S3'
p4355
I0
I1
tp4356
Rp4357
(I3
S'|'
p4358
NNNI3
I1
I0
tp4359
bS'BJF'
p4360
tp4361
Rp4362
I2
sg1
(g2
(S'S3'
p4363
I0
I1
tp4364
Rp4365
(I3
S'|'
p4366
NNNI3
I1
I0
tp4367
bS'BJE'
p4368
tp4369
Rp4370
I10
sg1
(g2
(S'S3'
p4371
I0
I1
tp4372
Rp4373
(I3
S'|'
p4374
NNNI3
I1
I0
tp4375
bS'CDG'
p4376
tp4377
Rp4378
I63
sg1
(g2
(S'S3'
p4379
I0
I1
tp4380
Rp4381
(I3
S'|'
p4382
NNNI3
I1
I0
tp4383
bS'TDO'
p4384
tp4385
Rp4386
I18
sg1
(g2
(S'S3'
p4387
I0
I1
tp4388
Rp4389
(I3
S'|'
p4390
NNNI3
I1
I0
tp4391
bS'TDL'
p4392
tp4393
Rp4394
I99
sg1
(g2
(S'S3'
p4395
I0
I1
tp4396
Rp4397
(I3
S'|'
p4398
NNNI3
I1
I0
tp4399
bS'RUB'
p4400
tp4401
Rp4402
I1
sg1
(g2
(S'S3'
p4403
I0
I1
tp4404
Rp4405
(I3
S'|'
p4406
NNNI3
I1
I0
tp4407
bS'NOK'
p4408
tp4409
Rp4410
I38
sg1
(g2
(S'S3'
p4411
I0
I1
tp4412
Rp4413
(I3
S'|'
p4414
NNNI3
I1
I0
tp4415
bS'NMZ'
p4416
tp4417
Rp4418
I16
sg1
(g2
(S'S3'
p4419
I0
I1
tp4420
Rp4421
(I3
S'|'
p4422
NNNI3
I1
I0
tp4423
bS'PKU'
p4424
tp4425
Rp4426
I25
sg1
(g2
(S'S3'
p4427
I0
I1
tp4428
Rp4429
(I3
S'|'
p4430
NNNI3
I1
I0
tp4431
bS'RNC'
p4432
tp4433
Rp4434
I62
sg1
(g2
(S'S3'
p4435
I0
I1
tp4436
Rp4437
(I3
S'|'
p4438
NNNI3
I1
I0
tp4439
bS'BJU'
p4440
tp4441
Rp4442
I130
sg1
(g2
(S'S4'
p4443
I0
I1
tp4444
Rp4445
(I3
S'|'
p4446
NNNI4
I1
I0
tp4447
bS'RURA'
p4448
tp4449
Rp4450
I16
sg1
(g2
(S'S2'
p4451
I0
I1
tp4452
Rp4453
(I3
S'|'
p4454
NNNI2
I1
I0
tp4455
bS'RK'
p4456
tp4457
Rp4458
I76
sg1
(g2
(S'S3'
p4459
I0
I1
tp4460
Rp4461
(I3
S'|'
p4462
NNNI3
I1
I0
tp4463
bS'MKB'
p4464
tp4465
Rp4466
I11
sg1
(g2
(S'S3'
p4467
I0
I1
tp4468
Rp4469
(I3
S'|'
p4470
NNNI3
I1
I0
tp4471
bS'MKA'
p4472
tp4473
Rp4474
I106
sg1
(g2
(S'S3'
p4475
I0
I1
tp4476
Rp4477
(I3
S'|'
p4478
NNNI3
I1
I0
tp4479
bS'GNU'
p4480
tp4481
Rp4482
I15
sg1
(g2
(S'S3'
p4483
I0
I1
tp4484
Rp4485
(I3
S'|'
p4486
NNNI3
I1
I0
tp4487
bS'MKN'
p4488
tp4489
Rp4490
I44
sg1
(g2
(S'S3'
p4491
I0
I1
tp4492
Rp4493
(I3
S'|'
p4494
NNNI3
I1
I0
tp4495
bS'BXR'
p4496
tp4497
Rp4498
I84
sg1
(g2
(S'S3'
p4499
I0
I1
tp4500
Rp4501
(I3
S'|'
p4502
NNNI3
I1
I0
tp4503
bS'JHL'
p4504
tp4505
Rp4506
I39
sg1
(g2
(S'S3'
p4507
I0
I1
tp4508
Rp4509
(I3
S'|'
p4510
NNNI3
I1
I0
tp4511
bS'CVP'
p4512
tp4513
Rp4514
I54
sg1
(g2
(S'S3'
p4515
I0
I1
tp4516
Rp4517
(I3
S'|'
p4518
NNNI3
I1
I0
tp4519
bS'JHN'
p4520
tp4521
Rp4522
I8
sg1
(g2
(S'S4'
p4523
I0
I1
tp4524
Rp4525
(I3
S'|'
p4526
NNNI4
I1
I0
tp4527
bS'THVM'
p4528
tp4529
Rp4530
I24
sg1
(g2
(S'S3'
p4531
I0
I1
tp4532
Rp4533
(I3
S'|'
p4534
NNNI3
I1
I0
tp4535
bS'JHS'
p4536
tp4537
Rp4538
I215
sg1
(g2
(S'S3'
p4539
I0
I1
tp4540
Rp4541
(I3
S'|'
p4542
NNNI3
I1
I0
tp4543
bS'BXJ'
p4544
tp4545
Rp4546
I16
sg1
(g2
(S'S3'
p4547
I0
I1
tp4548
Rp4549
(I3
S'|'
p4550
NNNI3
I1
I0
tp4551
bS'HYT'
p4552
tp4553
Rp4554
I12
sg1
(g2
(S'S3'
p4555
I0
I1
tp4556
Rp4557
(I3
S'|'
p4558
NNNI3
I1
I0
tp4559
bS'GNG'
p4560
tp4561
Rp4562
I28
sg1
(g2
(S'S3'
p4563
I0
I1
tp4564
Rp4565
(I3
S'|'
p4566
NNNI3
I1
I0
tp4567
bS'BXN'
p4568
tp4569
Rp4570
I41
sg1
(g2
(S'S3'
p4571
I0
I1
tp4572
Rp4573
(I3
S'|'
p4574
NNNI3
I1
I0
tp4575
bS'SGD'
p4576
tp4577
Rp4578
I14
sg1
(g2
(S'S4'
p4579
I0
I1
tp4580
Rp4581
(I3
S'|'
p4582
NNNI4
I1
I0
tp4583
bS'SDGH'
p4584
tp4585
Rp4586
I8
sg1
(g2
(S'S3'
p4587
I0
I1
tp4588
Rp4589
(I3
S'|'
p4590
NNNI3
I1
I0
tp4591
bS'MBM'
p4592
tp4593
Rp4594
I20
sg1
(g2
(S'S3'
p4595
I0
I1
tp4596
Rp4597
(I3
S'|'
p4598
NNNI3
I1
I0
tp4599
bS'MBI'
p4600
tp4601
Rp4602
I16
sg1
(g2
(S'S3'
p4603
I0
I1
tp4604
Rp4605
(I3
S'|'
p4606
NNNI3
I1
I0
tp4607
bS'PPI'
p4608
tp4609
Rp4610
I75
sg1
(g2
(S'S3'
p4611
I0
I1
tp4612
Rp4613
(I3
S'|'
p4614
NNNI3
I1
I0
tp4615
bS'NEW'
p4616
tp4617
Rp4618
I8
sg1
(g2
(S'S3'
p4619
I0
I1
tp4620
Rp4621
(I3
S'|'
p4622
NNNI3
I1
I0
tp4623
bS'GAR'
p4624
tp4625
Rp4626
I29
sg1
(g2
(S'S3'
p4627
I0
I1
tp4628
Rp4629
(I3
S'|'
p4630
NNNI3
I1
I0
tp4631
bS'GAP'
p4632
tp4633
Rp4634
I2
sg1
(g2
(S'S3'
p4635
I0
I1
tp4636
Rp4637
(I3
S'|'
p4638
NNNI3
I1
I0
tp4639
bS'SOP'
p4640
tp4641
Rp4642
I1
sg1
(g2
(S'S3'
p4643
I0
I1
tp4644
Rp4645
(I3
S'|'
p4646
NNNI3
I1
I0
tp4647
bS'HRT'
p4648
tp4649
Rp4650
I4
sg1
(g2
(S'S3'
p4651
I0
I1
tp4652
Rp4653
(I3
S'|'
p4654
NNNI3
I1
I0
tp4655
bS'GAE'
p4656
tp4657
Rp4658
I1
sg1
(g2
(S'S3'
p4659
I0
I1
tp4660
Rp4661
(I3
S'|'
p4662
NNNI3
I1
I0
tp4663
bS'SWV'
p4664
tp4665
Rp4666
I18
sg1
(g2
(S'S3'
p4667
I0
I1
tp4668
Rp4669
(I3
S'|'
p4670
NNNI3
I1
I0
tp4671
bS'JAT'
p4672
tp4673
Rp4674
I102
sg1
(g2
(S'S3'
p4675
I0
I1
tp4676
Rp4677
(I3
S'|'
p4678
NNNI3
I1
I0
tp4679
bS'MXH'
p4680
tp4681
Rp4682
I6
sg1
(g2
(S'S2'
p4683
I0
I1
tp4684
Rp4685
(I3
S'|'
p4686
NNNI2
I1
I0
tp4687
bS'VG'
p4688
tp4689
Rp4690
I102
sg1
(g2
(S'S3'
p4691
I0
I1
tp4692
Rp4693
(I3
S'|'
p4694
NNNI3
I1
I0
tp4695
bS'HPP'
p4696
tp4697
Rp4698
I15
sg1
(g2
(S'S4'
p4699
I0
I1
tp4700
Rp4701
(I3
S'|'
p4702
NNNI4
I1
I0
tp4703
bS'SHNG'
p4704
tp4705
Rp4706
I1
sg1
(g2
(S'S3'
p4707
I0
I1
tp4708
Rp4709
(I3
S'|'
p4710
NNNI3
I1
I0
tp4711
bS'SHG'
p4712
tp4713
Rp4714
I51
sg1
(g2
(S'S4'
p4715
I0
I1
tp4716
Rp4717
(I3
S'|'
p4718
NNNI4
I1
I0
tp4719
bS'ADRA'
p4720
tp4721
Rp4722
I44
sg1
(g2
(S'S3'
p4723
I0
I1
tp4724
Rp4725
(I3
S'|'
p4726
NNNI3
I1
I0
tp4727
bS'HRS'
p4728
tp4729
Rp4730
I25
sg1
(g2
(S'S4'
p4731
I0
I1
tp4732
Rp4733
(I3
S'|'
p4734
NNNI4
I1
I0
tp4735
bS'KMNC'
p4736
tp4737
Rp4738
I24
sg1
(g2
(S'S3'
p4739
I0
I1
tp4740
Rp4741
(I3
S'|'
p4742
NNNI3
I1
I0
tp4743
bS'MTD'
p4744
tp4745
Rp4746
I68
sg1
(g2
(S'S3'
p4747
I0
I1
tp4748
Rp4749
(I3
S'|'
p4750
NNNI3
I1
I0
tp4751
bS'RJT'
p4752
tp4753
Rp4754
I78
sg1
(g2
(S'S3'
p4755
I0
I1
tp4756
Rp4757
(I3
S'|'
p4758
NNNI3
I1
I0
tp4759
bS'PWS'
p4760
tp4761
Rp4762
I14
sg1
(g2
(S'S3'
p4763
I0
I1
tp4764
Rp4765
(I3
S'|'
p4766
NNNI3
I1
I0
tp4767
bS'ARW'
p4768
tp4769
Rp4770
I3
sg1
(g2
(S'S3'
p4771
I0
I1
tp4772
Rp4773
(I3
S'|'
p4774
NNNI3
I1
I0
tp4775
bS'RJG'
p4776
tp4777
Rp4778
I8
sg1
(g2
(S'S3'
p4779
I0
I1
tp4780
Rp4781
(I3
S'|'
p4782
NNNI3
I1
I0
tp4783
bS'ARA'
p4784
tp4785
Rp4786
I80
sg1
(g2
(S'S4'
p4787
I0
I1
tp4788
Rp4789
(I3
S'|'
p4790
NNNI4
I1
I0
tp4791
bS'PNBE'
p4792
tp4793
Rp4794
I191
sg1
(g2
(S'S3'
p4795
I0
I1
tp4796
Rp4797
(I3
S'|'
p4798
NNNI3
I1
I0
tp4799
bS'JAJ'
p4800
tp4801
Rp4802
I105
sg1
(g2
(S'S4'
p4803
I0
I1
tp4804
Rp4805
(I3
S'|'
p4806
NNNI4
I1
I0
tp4807
bS'CNDM'
p4808
tp4809
Rp4810
I8
sg1
(g2
(S'S3'
p4811
I0
I1
tp4812
Rp4813
(I3
S'|'
p4814
NNNI3
I1
I0
tp4815
bS'RJK'
p4816
tp4817
Rp4818
I13
sg1
(g2
(S'S2'
p4819
I0
I1
tp4820
Rp4821
(I3
S'|'
p4822
NNNI2
I1
I0
tp4823
bS'BE'
p4824
tp4825
Rp4826
I162
sg1
(g2
(S'S3'
p4827
I0
I1
tp4828
Rp4829
(I3
S'|'
p4830
NNNI3
I1
I0
tp4831
bS'POU'
p4832
tp4833
Rp4834
I4
sg1
(g2
(S'S3'
p4835
I0
I1
tp4836
Rp4837
(I3
S'|'
p4838
NNNI3
I1
I0
tp4839
bS'KQU'
p4840
tp4841
Rp4842
I8
sg1
(g2
(S'S3'
p4843
I0
I1
tp4844
Rp4845
(I3
S'|'
p4846
NNNI3
I1
I0
tp4847
bS'HBJ'
p4848
tp4849
Rp4850
I92
sg1
(g2
(S'S4'
p4851
I0
I1
tp4852
Rp4853
(I3
S'|'
p4854
NNNI4
I1
I0
tp4855
bS'BDNP'
p4856
tp4857
Rp4858
I1
sg1
(g2
(S'S4'
p4859
I0
I1
tp4860
Rp4861
(I3
S'|'
p4862
NNNI4
I1
I0
tp4863
bS'YJUD'
p4864
tp4865
Rp4866
I0
sg1
(g2
(S'S3'
p4867
I0
I1
tp4868
Rp4869
(I3
S'|'
p4870
NNNI3
I1
I0
tp4871
bS'DRH'
p4872
tp4873
Rp4874
I20
sg1
(g2
(S'S3'
p4875
I0
I1
tp4876
Rp4877
(I3
S'|'
p4878
NNNI3
I1
I0
tp4879
bS'BOJ'
p4880
tp4881
Rp4882
I8
sg1
(g2
(S'S3'
p4883
I0
I1
tp4884
Rp4885
(I3
S'|'
p4886
NNNI3
I1
I0
tp4887
bS'CCK'
p4888
tp4889
Rp4890
I2
sg1
(g2
(S'S3'
p4891
I0
I1
tp4892
Rp4893
(I3
S'|'
p4894
NNNI3
I1
I0
tp4895
bS'VYN'
p4896
tp4897
Rp4898
I4
sg1
(g2
(S'S3'
p4899
I0
I1
tp4900
Rp4901
(I3
S'|'
p4902
NNNI3
I1
I0
tp4903
bS'BOE'
p4904
tp4905
Rp4906
I68
sg1
(g2
(S'S4'
p4907
I0
I1
tp4908
Rp4909
(I3
S'|'
p4910
NNNI4
I1
I0
tp4911
bS'NDLS'
p4912
tp4913
Rp4914
I239
sg1
(g2
(S'S3'
p4915
I0
I1
tp4916
Rp4917
(I3
S'|'
p4918
NNNI3
I1
I0
tp4919
bS'NNO'
p4920
tp4921
Rp4922
I14
sg1
(g2
(S'S3'
p4923
I0
I1
tp4924
Rp4925
(I3
S'|'
p4926
NNNI3
I1
I0
tp4927
bS'UHP'
p4928
tp4929
Rp4930
I26
sg1
(g2
(S'S4'
p4931
I0
I1
tp4932
Rp4933
(I3
S'|'
p4934
NNNI4
I1
I0
tp4935
bS'PUNE'
p4936
tp4937
Rp4938
I208
sg1
(g2
(S'S4'
p4939
I0
I1
tp4940
Rp4941
(I3
S'|'
p4942
NNNI4
I1
I0
tp4943
bS'SIOB'
p4944
tp4945
Rp4946
I34
sg1
(g2
(S'S4'
p4947
I0
I1
tp4948
Rp4949
(I3
S'|'
p4950
NNNI4
I1
I0
tp4951
bS'HRPG'
p4952
tp4953
Rp4954
I4
sg1
(g2
(S'S3'
p4955
I0
I1
tp4956
Rp4957
(I3
S'|'
p4958
NNNI3
I1
I0
tp4959
bS'MYS'
p4960
tp4961
Rp4962
I52
sg1
(g2
(S'S3'
p4963
I0
I1
tp4964
Rp4965
(I3
S'|'
p4966
NNNI3
I1
I0
tp4967
bS'MYR'
p4968
tp4969
Rp4970
I79
sg1
(g2
(S'S3'
p4971
I0
I1
tp4972
Rp4973
(I3
S'|'
p4974
NNNI3
I1
I0
tp4975
bS'NNA'
p4976
tp4977
Rp4978
I50
sg1
(g2
(S'S3'
p4979
I0
I1
tp4980
Rp4981
(I3
S'|'
p4982
NNNI3
I1
I0
tp4983
bS'MYA'
p4984
tp4985
Rp4986
I38
sg1
(g2
(S'S3'
p4987
I0
I1
tp4988
Rp4989
(I3
S'|'
p4990
NNNI3
I1
I0
tp4991
bS'NNR'
p4992
tp4993
Rp4994
I12
sg1
(g2
(S'S4'
p4995
I0
I1
tp4996
Rp4997
(I3
S'|'
p4998
NNNI4
I1
I0
tp4999
bS'CAER'
p5000
tp5001
Rp5002
I10
sg1
(g2
(S'S3'
p5003
I0
I1
tp5004
Rp5005
(I3
S'|'
p5006
NNNI3
I1
I0
tp5007
bS'RKB'
p5008
tp5009
Rp5010
I26
sg1
(g2
(S'S3'
p5011
I0
I1
tp5012
Rp5013
(I3
S'|'
p5014
NNNI3
I1
I0
tp5015
bS'BQA'
p5016
tp5017
Rp5018
I40
sg1
(g2
(S'S3'
p5019
I0
I1
tp5020
Rp5021
(I3
S'|'
p5022
NNNI3
I1
I0
tp5023
bS'NPS'
p5024
tp5025
Rp5026
I8
sg1
(g2
(S'S3'
p5027
I0
I1
tp5028
Rp5029
(I3
S'|'
p5030
NNNI3
I1
I0
tp5031
bS'SMR'
p5032
tp5033
Rp5034
I16
sg1
(g2
(S'S3'
p5035
I0
I1
tp5036
Rp5037
(I3
S'|'
p5038
NNNI3
I1
I0
tp5039
bS'MTJ'
p5040
tp5041
Rp5042
I171
sg1
(g2
(S'S3'
p5043
I0
I1
tp5044
Rp5045
(I3
S'|'
p5046
NNNI3
I1
I0
tp5047
bS'JVN'
p5048
tp5049
Rp5050
I17
sg1
(g2
(S'S4'
p5051
I0
I1
tp5052
Rp5053
(I3
S'|'
p5054
NNNI4
I1
I0
tp5055
bS'PPTA'
p5056
tp5057
Rp5058
I4
sg1
(g2
(S'S3'
p5059
I0
I1
tp5060
Rp5061
(I3
S'|'
p5062
NNNI3
I1
I0
tp5063
bS'NXN'
p5064
tp5065
Rp5066
I6
sg1
(g2
(S'S2'
p5067
I0
I1
tp5068
Rp5069
(I3
S'|'
p5070
NNNI2
I1
I0
tp5071
bS'ON'
p5072
tp5073
Rp5074
I65
sg1
(g2
(S'S3'
p5075
I0
I1
tp5076
Rp5077
(I3
S'|'
p5078
NNNI3
I1
I0
tp5079
bS'RPJ'
p5080
tp5081
Rp5082
I59
sg1
(g2
(S'S3'
p5083
I0
I1
tp5084
Rp5085
(I3
S'|'
p5086
NNNI3
I1
I0
tp5087
bS'AKJ'
p5088
tp5089
Rp5090
I6
sg1
(g2
(S'S4'
p5091
I0
I1
tp5092
Rp5093
(I3
S'|'
p5094
NNNI4
I1
I0
tp5095
bS'PHLG'
p5096
tp5097
Rp5098
I0
sg1
(g2
(S'S3'
p5099
I0
I1
tp5100
Rp5101
(I3
S'|'
p5102
NNNI3
I1
I0
tp5103
bS'BVC'
p5104
tp5105
Rp5106
I16
sg1
(g2
(S'S3'
p5107
I0
I1
tp5108
Rp5109
(I3
S'|'
p5110
NNNI3
I1
I0
tp5111
bS'UBC'
p5112
tp5113
Rp5114
I41
sg1
(g2
(S'S4'
p5115
I0
I1
tp5116
Rp5117
(I3
S'|'
p5118
NNNI4
I1
I0
tp5119
bS'BRPT'
p5120
tp5121
Rp5122
I1
sg1
(g2
(S'S3'
p5123
I0
I1
tp5124
Rp5125
(I3
S'|'
p5126
NNNI3
I1
I0
tp5127
bS'BVI'
p5128
tp5129
Rp5130
I120
sg1
(g2
(S'S3'
p5131
I0
I1
tp5132
Rp5133
(I3
S'|'
p5134
NNNI3
I1
I0
tp5135
bS'BVH'
p5136
tp5137
Rp5138
I27
sg1
(g2
(S'S3'
p5139
I0
I1
tp5140
Rp5141
(I3
S'|'
p5142
NNNI3
I1
I0
tp5143
bS'RSI'
p5144
tp5145
Rp5146
I4
sg1
(g2
(S'S3'
p5147
I0
I1
tp5148
Rp5149
(I3
S'|'
p5150
NNNI3
I1
I0
tp5151
bS'LKN'
p5152
tp5153
Rp5154
I12
sg1
(g2
(S'S3'
p5155
I0
I1
tp5156
Rp5157
(I3
S'|'
p5158
NNNI3
I1
I0
tp5159
bS'LKO'
p5160
tp5161
Rp5162
I237
sg1
(g2
(S'S3'
p5163
I0
I1
tp5164
Rp5165
(I3
S'|'
p5166
NNNI3
I1
I0
tp5167
bS'VDS'
p5168
tp5169
Rp5170
I22
sg1
(g2
(S'S4'
p5171
I0
I1
tp5172
Rp5173
(I3
S'|'
p5174
NNNI4
I1
I0
tp5175
bS'KANJ'
p5176
tp5177
Rp5178
I4
sg1
(g2
(S'S4'
p5179
I0
I1
tp5180
Rp5181
(I3
S'|'
p5182
NNNI4
I1
I0
tp5183
bS'PAIL'
p5184
tp5185
Rp5186
I1
sg1
(g2
(S'S4'
p5187
I0
I1
tp5188
Rp5189
(I3
S'|'
p5190
NNNI4
I1
I0
tp5191
bS'RDRA'
p5192
tp5193
Rp5194
I15
sg1
(g2
(S'S3'
p5195
I0
I1
tp5196
Rp5197
(I3
S'|'
p5198
NNNI3
I1
I0
tp5199
bS'DER'
p5200
tp5201
Rp5202
I2
sg1
(g2
(S'S3'
p5203
I0
I1
tp5204
Rp5205
(I3
S'|'
p5206
NNNI3
I1
I0
tp5207
bS'MWX'
p5208
tp5209
Rp5210
I5
sg1
(g2
(S'S2'
p5211
I0
I1
tp5212
Rp5213
(I3
S'|'
p5214
NNNI2
I1
I0
tp5215
bS'HW'
p5216
tp5217
Rp5218
I66
sg1
(g2
(S'S3'
p5219
I0
I1
tp5220
Rp5221
(I3
S'|'
p5222
NNNI3
I1
I0
tp5223
bS'LKA'
p5224
tp5225
Rp5226
I24
sg1
(g2
(S'S3'
p5227
I0
I1
tp5228
Rp5229
(I3
S'|'
p5230
NNNI3
I1
I0
tp5231
bS'BCT'
p5232
tp5233
Rp5234
I43
sg1
(g2
(S'S3'
p5235
I0
I1
tp5236
Rp5237
(I3
S'|'
p5238
NNNI3
I1
I0
tp5239
bS'FLK'
p5240
tp5241
Rp5242
I10
sg1
(g2
(S'S4'
p5243
I0
I1
tp5244
Rp5245
(I3
S'|'
p5246
NNNI4
I1
I0
tp5247
bS'SMBJ'
p5248
tp5249
Rp5250
I24
sg1
(g2
(S'S3'
p5251
I0
I1
tp5252
Rp5253
(I3
S'|'
p5254
NNNI3
I1
I0
tp5255
bS'GJD'
p5256
tp5257
Rp5258
I5
sg1
(g2
(S'S3'
p5259
I0
I1
tp5260
Rp5261
(I3
S'|'
p5262
NNNI3
I1
I0
tp5263
bS'DEC'
p5264
tp5265
Rp5266
I66
sg1
(g2
(S'S3'
p5267
I0
I1
tp5268
Rp5269
(I3
S'|'
p5270
NNNI3
I1
I0
tp5271
bS'LKR'
p5272
tp5273
Rp5274
I50
sg1
(g2
(S'S2'
p5275
I0
I1
tp5276
Rp5277
(I3
S'|'
p5278
NNNI2
I1
I0
tp5279
bS'HD'
p5280
tp5281
Rp5282
I51
sg1
(g2
(S'S3'
p5283
I0
I1
tp5284
Rp5285
(I3
S'|'
p5286
NNNI3
I1
I0
tp5287
bS'KLA'
p5288
tp5289
Rp5290
I1
sg1
(g2
(S'S3'
p5291
I0
I1
tp5292
Rp5293
(I3
S'|'
p5294
NNNI3
I1
I0
tp5295
bS'ROK'
p5296
tp5297
Rp5298
I51
sg1
(g2
(S'S3'
p5299
I0
I1
tp5300
Rp5301
(I3
S'|'
p5302
NNNI3
I1
I0
tp5303
bS'PTH'
p5304
tp5305
Rp5306
I2
sg1
(g2
(S'S3'
p5307
I0
I1
tp5308
Rp5309
(I3
S'|'
p5310
NNNI3
I1
I0
tp5311
bS'MNP'
p5312
tp5313
Rp5314
I21
sg1
(g2
(S'S3'
p5315
I0
I1
tp5316
Rp5317
(I3
S'|'
p5318
NNNI3
I1
I0
tp5319
bS'JMP'
p5320
tp5321
Rp5322
I55
sg1
(g2
(S'S3'
p5323
I0
I1
tp5324
Rp5325
(I3
S'|'
p5326
NNNI3
I1
I0
tp5327
bS'AME'
p5328
tp5329
Rp5330
I47
sg1
(g2
(S'S3'
p5331
I0
I1
tp5332
Rp5333
(I3
S'|'
p5334
NNNI3
I1
I0
tp5335
bS'AMG'
p5336
tp5337
Rp5338
I14
sg1
(g2
(S'S3'
p5339
I0
I1
tp5340
Rp5341
(I3
S'|'
p5342
NNNI3
I1
I0
tp5343
bS'JMU'
p5344
tp5345
Rp5346
I39
sg1
(g2
(S'S3'
p5347
I0
I1
tp5348
Rp5349
(I3
S'|'
p5350
NNNI3
I1
I0
tp5351
bS'JMK'
p5352
tp5353
Rp5354
I4
sg1
(g2
(S'S3'
p5355
I0
I1
tp5356
Rp5357
(I3
S'|'
p5358
NNNI3
I1
I0
tp5359
bS'MNJ'
p5360
tp5361
Rp5362
I4
sg1
(g2
(S'S3'
p5363
I0
I1
tp5364
Rp5365
(I3
S'|'
p5366
NNNI3
I1
I0
tp5367
bS'SCY'
p5368
tp5369
Rp5370
I0
sg1
(g2
(S'S3'
p5371
I0
I1
tp5372
Rp5373
(I3
S'|'
p5374
NNNI3
I1
I0
tp5375
bS'KSG'
p5376
tp5377
Rp5378
I68
sg1
(g2
(S'S3'
p5379
I0
I1
tp5380
Rp5381
(I3
S'|'
p5382
NNNI3
I1
I0
tp5383
bS'AMP'
p5384
tp5385
Rp5386
I23
sg1
(g2
(S'S3'
p5387
I0
I1
tp5388
Rp5389
(I3
S'|'
p5390
NNNI3
I1
I0
tp5391
bS'MNE'
p5392
tp5393
Rp5394
I31
sg1
(g2
(S'S3'
p5395
I0
I1
tp5396
Rp5397
(I3
S'|'
p5398
NNNI3
I1
I0
tp5399
bS'MNF'
p5400
tp5401
Rp5402
I8
sg1
(g2
(S'S3'
p5403
I0
I1
tp5404
Rp5405
(I3
S'|'
p5406
NNNI3
I1
I0
tp5407
bS'SIQ'
p5408
tp5409
Rp5410
I1
sg1
(g2
(S'S3'
p5411
I0
I1
tp5412
Rp5413
(I3
S'|'
p5414
NNNI3
I1
I0
tp5415
bS'SLW'
p5416
tp5417
Rp5418
I9
sg1
(g2
(S'S3'
p5419
I0
I1
tp5420
Rp5421
(I3
S'|'
p5422
NNNI3
I1
I0
tp5423
bS'BDC'
p5424
tp5425
Rp5426
I90
sg1
(g2
(S'S3'
p5427
I0
I1
tp5428
Rp5429
(I3
S'|'
p5430
NNNI3
I1
I0
tp5431
bS'BDL'
p5432
tp5433
Rp5434
I49
sg1
(g2
(S'S3'
p5435
I0
I1
tp5436
Rp5437
(I3
S'|'
p5438
NNNI3
I1
I0
tp5439
bS'BDN'
p5440
tp5441
Rp5442
I2
sg1
(g2
(S'S4'
p5443
I0
I1
tp5444
Rp5445
(I3
S'|'
p5446
NNNI4
I1
I0
tp5447
bS'SUNR'
p5448
tp5449
Rp5450
I77
sg1
(g2
(S'S3'
p5451
I0
I1
tp5452
Rp5453
(I3
S'|'
p5454
NNNI3
I1
I0
tp5455
bS'ULT'
p5456
tp5457
Rp5458
I13
sg1
(g2
(S'S4'
p5459
I0
I1
tp5460
Rp5461
(I3
S'|'
p5462
NNNI4
I1
I0
tp5463
bS'KOAA'
p5464
tp5465
Rp5466
I63
sg1
(g2
(S'S4'
p5467
I0
I1
tp5468
Rp5469
(I3
S'|'
p5470
NNNI4
I1
I0
tp5471
bS'BEAS'
p5472
tp5473
Rp5474
I78
sg1
(g2
(S'S3'
p5475
I0
I1
tp5476
Rp5477
(I3
S'|'
p5478
NNNI3
I1
I0
tp5479
bS'PBH'
p5480
tp5481
Rp5482
I50
sg1
(g2
(S'S4'
p5483
I0
I1
tp5484
Rp5485
(I3
S'|'
p5486
NNNI4
I1
I0
tp5487
bS'MLDT'
p5488
tp5489
Rp5490
I108
sg1
(g2
(S'S3'
p5491
I0
I1
tp5492
Rp5493
(I3
S'|'
p5494
NNNI3
I1
I0
tp5495
bS'HTE'
p5496
tp5497
Rp5498
I32
sg1
(g2
(S'S3'
p5499
I0
I1
tp5500
Rp5501
(I3
S'|'
p5502
NNNI3
I1
I0
tp5503
bS'KCA'
p5504
tp5505
Rp5506
I2
sg1
(g2
(S'S4'
p5507
I0
I1
tp5508
Rp5509
(I3
S'|'
p5510
NNNI4
I1
I0
tp5511
bS'SDLP'
p5512
tp5513
Rp5514
I17
sg1
(g2
(S'S4'
p5515
I0
I1
tp5516
Rp5517
(I3
S'|'
p5518
NNNI4
I1
I0
tp5519
bS'KTHU'
p5520
tp5521
Rp5522
I62
sg1
(g2
(S'S4'
p5523
I0
I1
tp5524
Rp5525
(I3
S'|'
p5526
NNNI4
I1
I0
tp5527
bS'CDMR'
p5528
tp5529
Rp5530
I7
sg1
(g2
(S'S3'
p5531
I0
I1
tp5532
Rp5533
(I3
S'|'
p5534
NNNI3
I1
I0
tp5535
bS'KCN'
p5536
tp5537
Rp5538
I1
sg1
(g2
(S'S3'
p5539
I0
I1
tp5540
Rp5541
(I3
S'|'
p5542
NNNI3
I1
I0
tp5543
bS'SLN'
p5544
tp5545
Rp5546
I50
sg1
(g2
(S'S4'
p5547
I0
I1
tp5548
Rp5549
(I3
S'|'
p5550
NNNI4
I1
I0
tp5551
bS'MNAE'
p5552
tp5553
Rp5554
I7
sg1
(g2
(S'S4'
p5555
I0
I1
tp5556
Rp5557
(I3
S'|'
p5558
NNNI4
I1
I0
tp5559
bS'BPRD'
p5560
tp5561
Rp5562
I24
sg1
(g2
(S'S4'
p5563
I0
I1
tp5564
Rp5565
(I3
S'|'
p5566
NNNI4
I1
I0
tp5567
bS'BRYC'
p5568
tp5569
Rp5570
I0
sg1
(g2
(S'S3'
p5571
I0
I1
tp5572
Rp5573
(I3
S'|'
p5574
NNNI3
I1
I0
tp5575
bS'SMK'
p5576
tp5577
Rp5578
I15
sg1
(g2
(S'S3'
p5579
I0
I1
tp5580
Rp5581
(I3
S'|'
p5582
NNNI3
I1
I0
tp5583
bS'KLP'
p5584
tp5585
Rp5586
I4
sg1
(g2
(S'S3'
p5587
I0
I1
tp5588
Rp5589
(I3
S'|'
p5590
NNNI3
I1
I0
tp5591
bS'HTZ'
p5592
tp5593
Rp5594
I49
sg1
(g2
(S'S4'
p5595
I0
I1
tp5596
Rp5597
(I3
S'|'
p5598
NNNI4
I1
I0
tp5599
bS'KLRE'
p5600
tp5601
Rp5602
I13
sg1
(g2
(S'S3'
p5603
I0
I1
tp5604
Rp5605
(I3
S'|'
p5606
NNNI3
I1
I0
tp5607
bS'MPY'
p5608
tp5609
Rp5610
I4
sg1
(g2
(S'S3'
p5611
I0
I1
tp5612
Rp5613
(I3
S'|'
p5614
NNNI3
I1
I0
tp5615
bS'NEO'
p5616
tp5617
Rp5618
I8
sg1
(g2
(S'S4'
p5619
I0
I1
tp5620
Rp5621
(I3
S'|'
p5622
NNNI4
I1
I0
tp5623
bS'OKHA'
p5624
tp5625
Rp5626
I30
sg1
(g2
(S'S4'
p5627
I0
I1
tp5628
Rp5629
(I3
S'|'
p5630
NNNI4
I1
I0
tp5631
bS'SMBX'
p5632
tp5633
Rp5634
I28
sg1
(g2
(S'S3'
p5635
I0
I1
tp5636
Rp5637
(I3
S'|'
p5638
NNNI3
I1
I0
tp5639
bS'KUR'
p5640
tp5641
Rp5642
I190
sg1
(g2
(S'S3'
p5643
I0
I1
tp5644
Rp5645
(I3
S'|'
p5646
NNNI3
I1
I0
tp5647
bS'KUN'
p5648
tp5649
Rp5650
I48
sg1
(g2
(S'S3'
p5651
I0
I1
tp5652
Rp5653
(I3
S'|'
p5654
NNNI3
I1
I0
tp5655
bS'NGG'
p5656
tp5657
Rp5658
I15
sg1
(g2
(S'S3'
p5659
I0
I1
tp5660
Rp5661
(I3
S'|'
p5662
NNNI3
I1
I0
tp5663
bS'IDH'
p5664
tp5665
Rp5666
I20
sg1
(g2
(S'S3'
p5667
I0
I1
tp5668
Rp5669
(I3
S'|'
p5670
NNNI3
I1
I0
tp5671
bS'IDG'
p5672
tp5673
Rp5674
I36
sg1
(g2
(S'S3'
p5675
I0
I1
tp5676
Rp5677
(I3
S'|'
p5678
NNNI3
I1
I0
tp5679
bS'KUE'
p5680
tp5681
Rp5682
I14
sg1
(g2
(S'S3'
p5683
I0
I1
tp5684
Rp5685
(I3
S'|'
p5686
NNNI3
I1
I0
tp5687
bS'KUA'
p5688
tp5689
Rp5690
I8
sg1
(g2
(S'S4'
p5691
I0
I1
tp5692
Rp5693
(I3
S'|'
p5694
NNNI4
I1
I0
tp5695
bS'SILO'
p5696
tp5697
Rp5698
I2
sg1
(g2
(S'S2'
p5699
I0
I1
tp5700
Rp5701
(I3
S'|'
p5702
NNNI2
I1
I0
tp5703
bS'NH'
p5704
tp5705
Rp5706
I47
sg1
(g2
(S'S3'
p5707
I0
I1
tp5708
Rp5709
(I3
S'|'
p5710
NNNI3
I1
I0
tp5711
bS'BKG'
p5712
tp5713
Rp5714
I8
sg1
(g2
(S'S3'
p5715
I0
I1
tp5716
Rp5717
(I3
S'|'
p5718
NNNI3
I1
I0
tp5719
bS'CGL'
p5720
tp5721
Rp5722
I72
sg1
(g2
(S'S3'
p5723
I0
I1
tp5724
Rp5725
(I3
S'|'
p5726
NNNI3
I1
I0
tp5727
bS'PMR'
p5728
tp5729
Rp5730
I16
sg1
(g2
(S'S3'
p5731
I0
I1
tp5732
Rp5733
(I3
S'|'
p5734
NNNI3
I1
I0
tp5735
bS'BKN'
p5736
tp5737
Rp5738
I54
sg1
(g2
(S'S3'
p5739
I0
I1
tp5740
Rp5741
(I3
S'|'
p5742
NNNI3
I1
I0
tp5743
bS'BKO'
p5744
tp5745
Rp5746
I5
sg1
(g2
(S'S3'
p5747
I0
I1
tp5748
Rp5749
(I3
S'|'
p5750
NNNI3
I1
I0
tp5751
bS'BKH'
p5752
tp5753
Rp5754
I6
sg1
(g2
(S'S3'
p5755
I0
I1
tp5756
Rp5757
(I3
S'|'
p5758
NNNI3
I1
I0
tp5759
bS'BKI'
p5760
tp5761
Rp5762
I59
sg1
(g2
(S'S3'
p5763
I0
I1
tp5764
Rp5765
(I3
S'|'
p5766
NNNI3
I1
I0
tp5767
bS'CNK'
p5768
tp5769
Rp5770
I4
sg1
(g2
(S'S3'
p5771
I0
I1
tp5772
Rp5773
(I3
S'|'
p5774
NNNI3
I1
I0
tp5775
bS'BKP'
p5776
tp5777
Rp5778
I99
sg1
(g2
(S'S3'
p5779
I0
I1
tp5780
Rp5781
(I3
S'|'
p5782
NNNI3
I1
I0
tp5783
bS'ULD'
p5784
tp5785
Rp5786
I5
sg1
(g2
(S'S2'
p5787
I0
I1
tp5788
Rp5789
(I3
S'|'
p5790
NNNI2
I1
I0
tp5791
bS'NR'
p5792
tp5793
Rp5794
I11
sg1
(g2
(S'S3'
p5795
I0
I1
tp5796
Rp5797
(I3
S'|'
p5798
NNNI3
I1
I0
tp5799
bS'CGR'
p5800
tp5801
Rp5802
I11
sg1
(g2
(S'S3'
p5803
I0
I1
tp5804
Rp5805
(I3
S'|'
p5806
NNNI3
I1
I0
tp5807
bS'NBG'
p5808
tp5809
Rp5810
I12
sg1
(g2
(S'S2'
p5811
I0
I1
tp5812
Rp5813
(I3
S'|'
p5814
NNNI2
I1
I0
tp5815
bS'NU'
p5816
tp5817
Rp5818
I66
sg1
(g2
(S'S3'
p5819
I0
I1
tp5820
Rp5821
(I3
S'|'
p5822
NNNI3
I1
I0
tp5823
bS'NBD'
p5824
tp5825
Rp5826
I40
sg1
(g2
(S'S4'
p5827
I0
I1
tp5828
Rp5829
(I3
S'|'
p5830
NNNI4
I1
I0
tp5831
bS'BRWD'
p5832
tp5833
Rp5834
I22
sg1
(g2
(S'S3'
p5835
I0
I1
tp5836
Rp5837
(I3
S'|'
p5838
NNNI3
I1
I0
tp5839
bS'GMO'
p5840
tp5841
Rp5842
I49
sg1
(g2
(S'S3'
p5843
I0
I1
tp5844
Rp5845
(I3
S'|'
p5846
NNNI3
I1
I0
tp5847
bS'CUR'
p5848
tp5849
Rp5850
I16
sg1
(g2
(S'S4'
p5851
I0
I1
tp5852
Rp5853
(I3
S'|'
p5854
NNNI4
I1
I0
tp5855
bS'BCOB'
p5856
tp5857
Rp5858
I26
sg1
(g2
(S'S3'
p5859
I0
I1
tp5860
Rp5861
(I3
S'|'
p5862
NNNI3
I1
I0
tp5863
bS'SJP'
p5864
tp5865
Rp5866
I67
sg1
(g2
(S'S3'
p5867
I0
I1
tp5868
Rp5869
(I3
S'|'
p5870
NNNI3
I1
I0
tp5871
bS'SJT'
p5872
tp5873
Rp5874
I4
sg1
(g2
(S'S3'
p5875
I0
I1
tp5876
Rp5877
(I3
S'|'
p5878
NNNI3
I1
I0
tp5879
bS'DNR'
p5880
tp5881
Rp5882
I88
sg1
(g2
(S'S3'
p5883
I0
I1
tp5884
Rp5885
(I3
S'|'
p5886
NNNI3
I1
I0
tp5887
bS'RDM'
p5888
tp5889
Rp5890
I69
sg1
(g2
(S'S3'
p5891
I0
I1
tp5892
Rp5893
(I3
S'|'
p5894
NNNI3
I1
I0
tp5895
bS'GMR'
p5896
tp5897
Rp5898
I18
sg1
(g2
(S'S3'
p5899
I0
I1
tp5900
Rp5901
(I3
S'|'
p5902
NNNI3
I1
I0
tp5903
bS'ADI'
p5904
tp5905
Rp5906
I255
sg1
(g2
(S'S3'
p5907
I0
I1
tp5908
Rp5909
(I3
S'|'
p5910
NNNI3
I1
I0
tp5911
bS'PNC'
p5912
tp5913
Rp5914
I118
sg1
(g2
(S'S3'
p5915
I0
I1
tp5916
Rp5917
(I3
S'|'
p5918
NNNI3
I1
I0
tp5919
bS'GDR'
p5920
tp5921
Rp5922
I159
sg1
(g2
(S'S3'
p5923
I0
I1
tp5924
Rp5925
(I3
S'|'
p5926
NNNI3
I1
I0
tp5927
bS'JRC'
p5928
tp5929
Rp5930
I116
sg1
(g2
(S'S4'
p5931
I0
I1
tp5932
Rp5933
(I3
S'|'
p5934
NNNI4
I1
I0
tp5935
bS'TATA'
p5936
tp5937
Rp5938
I95
sg1
(g2
(S'S3'
p5939
I0
I1
tp5940
Rp5941
(I3
S'|'
p5942
NNNI3
I1
I0
tp5943
bS'BRR'
p5944
tp5945
Rp5946
I18
sg1
(g2
(S'S3'
p5947
I0
I1
tp5948
Rp5949
(I3
S'|'
p5950
NNNI3
I1
I0
tp5951
bS'BRN'
p5952
tp5953
Rp5954
I1
sg1
(g2
(S'S3'
p5955
I0
I1
tp5956
Rp5957
(I3
S'|'
p5958
NNNI3
I1
I0
tp5959
bS'GDB'
p5960
tp5961
Rp5962
I15
sg1
(g2
(S'S3'
p5963
I0
I1
tp5964
Rp5965
(I3
S'|'
p5966
NNNI3
I1
I0
tp5967
bS'FBD'
p5968
tp5969
Rp5970
I26
sg1
(g2
(S'S4'
p5971
I0
I1
tp5972
Rp5973
(I3
S'|'
p5974
NNNI4
I1
I0
tp5975
bS'SCKR'
p5976
tp5977
Rp5978
I6
sg1
(g2
(S'S3'
p5979
I0
I1
tp5980
Rp5981
(I3
S'|'
p5982
NNNI3
I1
I0
tp5983
bS'BRE'
p5984
tp5985
Rp5986
I9
sg1
(g2
(S'S3'
p5987
I0
I1
tp5988
Rp5989
(I3
S'|'
p5990
NNNI3
I1
I0
tp5991
bS'MDU'
p5992
tp5993
Rp5994
I77
sg1
(g2
(S'S3'
p5995
I0
I1
tp5996
Rp5997
(I3
S'|'
p5998
NNNI3
I1
I0
tp5999
bS'BRC'
p6000
tp6001
Rp6002
I297
sg1
(g2
(S'S3'
p6003
I0
I1
tp6004
Rp6005
(I3
S'|'
p6006
NNNI3
I1
I0
tp6007
bS'MEX'
p6008
tp6009
Rp6010
I25
sg1
(g2
(S'S4'
p6011
I0
I1
tp6012
Rp6013
(I3
S'|'
p6014
NNNI4
I1
I0
tp6015
bS'PTRU'
p6016
tp6017
Rp6018
I15
sg1
(g2
(S'S3'
p6019
I0
I1
tp6020
Rp6021
(I3
S'|'
p6022
NNNI3
I1
I0
tp6023
bS'MSZ'
p6024
tp6025
Rp6026
I14
sg1
(g2
(S'S4'
p6027
I0
I1
tp6028
Rp6029
(I3
S'|'
p6030
NNNI4
I1
I0
tp6031
bS'SEGM'
p6032
tp6033
Rp6034
I65
sg1
(g2
(S'S3'
p6035
I0
I1
tp6036
Rp6037
(I3
S'|'
p6038
NNNI3
I1
I0
tp6039
bS'SGO'
p6040
tp6041
Rp6042
I61
sg1
(g2
(S'S4'
p6043
I0
I1
tp6044
Rp6045
(I3
S'|'
p6046
NNNI4
I1
I0
tp6047
bS'ANVT'
p6048
tp6049
Rp6050
I53
sg1
(g2
(S'S3'
p6051
I0
I1
tp6052
Rp6053
(I3
S'|'
p6054
NNNI3
I1
I0
tp6055
bS'MSK'
p6056
tp6057
Rp6058
I12
sg1
(g2
(S'S3'
p6059
I0
I1
tp6060
Rp6061
(I3
S'|'
p6062
NNNI3
I1
I0
tp6063
bS'RNG'
p6064
tp6065
Rp6066
I48
sg1
(g2
(S'S3'
p6067
I0
I1
tp6068
Rp6069
(I3
S'|'
p6070
NNNI3
I1
I0
tp6071
bS'MSH'
p6072
tp6073
Rp6074
I89
sg1
(g2
(S'S3'
p6075
I0
I1
tp6076
Rp6077
(I3
S'|'
p6078
NNNI3
I1
I0
tp6079
bS'AZR'
p6080
tp6081
Rp6082
I14
sg1
(g2
(S'S3'
p6083
I0
I1
tp6084
Rp6085
(I3
S'|'
p6086
NNNI3
I1
I0
tp6087
bS'NCB'
p6088
tp6089
Rp6090
I74
sg1
(g2
(S'S3'
p6091
I0
I1
tp6092
Rp6093
(I3
S'|'
p6094
NNNI3
I1
I0
tp6095
bS'LKU'
p6096
tp6097
Rp6098
I22
sg1
(g2
(S'S3'
p6099
I0
I1
tp6100
Rp6101
(I3
S'|'
p6102
NNNI3
I1
I0
tp6103
bS'DAA'
p6104
tp6105
Rp6106
I34
sg1
(g2
(S'S3'
p6107
I0
I1
tp6108
Rp6109
(I3
S'|'
p6110
NNNI3
I1
I0
tp6111
bS'SGP'
p6112
tp6113
Rp6114
I15
sg1
(g2
(S'S3'
p6115
I0
I1
tp6116
Rp6117
(I3
S'|'
p6118
NNNI3
I1
I0
tp6119
bS'SGJ'
p6120
tp6121
Rp6122
I5
sg1
(g2
(S'S3'
p6123
I0
I1
tp6124
Rp6125
(I3
S'|'
p6126
NNNI3
I1
I0
tp6127
bS'DAP'
p6128
tp6129
Rp6130
I0
sg1
(g2
(S'S3'
p6131
I0
I1
tp6132
Rp6133
(I3
S'|'
p6134
NNNI3
I1
I0
tp6135
bS'DAQ'
p6136
tp6137
Rp6138
I0
sg1
(g2
(S'S3'
p6139
I0
I1
tp6140
Rp6141
(I3
S'|'
p6142
NNNI3
I1
I0
tp6143
bS'DAR'
p6144
tp6145
Rp6146
I1
sg1
(g2
(S'S3'
p6147
I0
I1
tp6148
Rp6149
(I3
S'|'
p6150
NNNI3
I1
I0
tp6151
bS'KRS'
p6152
tp6153
Rp6154
I6
sg1
(g2
(S'S3'
p6155
I0
I1
tp6156
Rp6157
(I3
S'|'
p6158
NNNI3
I1
I0
tp6159
bS'RKL'
p6160
tp6161
Rp6162
I2
sg1
(g2
(S'S3'
p6163
I0
I1
tp6164
Rp6165
(I3
S'|'
p6166
NNNI3
I1
I0
tp6167
bS'RKM'
p6168
tp6169
Rp6170
I55
sg1
(g2
(S'S4'
p6171
I0
I1
tp6172
Rp6173
(I3
S'|'
p6174
NNNI4
I1
I0
tp6175
bS'MFKA'
p6176
tp6177
Rp6178
I22
sg1
(g2
(S'S3'
p6179
I0
I1
tp6180
Rp6181
(I3
S'|'
p6182
NNNI3
I1
I0
tp6183
bS'SGG'
p6184
tp6185
Rp6186
I43
sg1
(g2
(S'S3'
p6187
I0
I1
tp6188
Rp6189
(I3
S'|'
p6190
NNNI3
I1
I0
tp6191
bS'PWL'
p6192
tp6193
Rp6194
I24
sg1
(g2
(S'S3'
p6195
I0
I1
tp6196
Rp6197
(I3
S'|'
p6198
NNNI3
I1
I0
tp6199
bS'CNS'
p6200
tp6201
Rp6202
I8
sg1
(g2
(S'S2'
p6203
I0
I1
tp6204
Rp6205
(I3
S'|'
p6206
NNNI2
I1
I0
tp6207
bS'AF'
p6208
tp6209
Rp6210
I52
sg1
(g2
(S'S2'
p6211
I0
I1
tp6212
Rp6213
(I3
S'|'
p6214
NNNI2
I1
I0
tp6215
bS'AH'
p6216
tp6217
Rp6218
I33
sg1
(g2
(S'S3'
p6219
I0
I1
tp6220
Rp6221
(I3
S'|'
p6222
NNNI3
I1
I0
tp6223
bS'DWX'
p6224
tp6225
Rp6226
I66
sg1
(g2
(S'S3'
p6227
I0
I1
tp6228
Rp6229
(I3
S'|'
p6230
NNNI3
I1
I0
tp6231
bS'VSG'
p6232
tp6233
Rp6234
I15
sg1
(g2
(S'S3'
p6235
I0
I1
tp6236
Rp6237
(I3
S'|'
p6238
NNNI3
I1
I0
tp6239
bS'GVG'
p6240
tp6241
Rp6242
I11
sg1
(g2
(S'S2'
p6243
I0
I1
tp6244
Rp6245
(I3
S'|'
p6246
NNNI2
I1
I0
tp6247
bS'AO'
p6248
tp6249
Rp6250
I20
sg1
(g2
(S'S3'
p6251
I0
I1
tp6252
Rp6253
(I3
S'|'
p6254
NNNI3
I1
I0
tp6255
bS'KLK'
p6256
tp6257
Rp6258
I27
sg1
(g2
(S'S3'
p6259
I0
I1
tp6260
Rp6261
(I3
S'|'
p6262
NNNI3
I1
I0
tp6263
bS'CNB'
p6264
tp6265
Rp6266
I283
sg1
(g2
(S'S4'
p6267
I0
I1
tp6268
Rp6269
(I3
S'|'
p6270
NNNI4
I1
I0
tp6271
bS'GOGH'
p6272
tp6273
Rp6274
I6
sg1
(g2
(S'S2'
p6275
I0
I1
tp6276
Rp6277
(I3
S'|'
p6278
NNNI2
I1
I0
tp6279
bS'AY'
p6280
tp6281
Rp6282
I42
sg1
(g2
(S'S3'
p6283
I0
I1
tp6284
Rp6285
(I3
S'|'
p6286
NNNI3
I1
I0
tp6287
bS'DWK'
p6288
tp6289
Rp6290
I30
sg1
(g2
(S'S3'
p6291
I0
I1
tp6292
Rp6293
(I3
S'|'
p6294
NNNI3
I1
I0
tp6295
bS'DWO'
p6296
tp6297
Rp6298
I10
sg1
(g2
(S'S3'
p6299
I0
I1
tp6300
Rp6301
(I3
S'|'
p6302
NNNI3
I1
I0
tp6303
bS'DND'
p6304
tp6305
Rp6306
I7
sg1
(g2
(S'S3'
p6307
I0
I1
tp6308
Rp6309
(I3
S'|'
p6310
NNNI3
I1
I0
tp6311
bS'CNI'
p6312
tp6313
Rp6314
I21
sg1
(g2
(S'S3'
p6315
I0
I1
tp6316
Rp6317
(I3
S'|'
p6318
NNNI3
I1
I0
tp6319
bS'KGP'
p6320
tp6321
Rp6322
I174
sg1
(g2
(S'S3'
p6323
I0
I1
tp6324
Rp6325
(I3
S'|'
p6326
NNNI3
I1
I0
tp6327
bS'MWH'
p6328
tp6329
Rp6330
I1
sg1
(g2
(S'S3'
p6331
I0
I1
tp6332
Rp6333
(I3
S'|'
p6334
NNNI3
I1
I0
tp6335
bS'VSU'
p6336
tp6337
Rp6338
I28
sg1
(g2
(S'S3'
p6339
I0
I1
tp6340
Rp6341
(I3
S'|'
p6342
NNNI3
I1
I0
tp6343
bS'NLV'
p6344
tp6345
Rp6346
I6
sg1
(g2
(S'S3'
p6347
I0
I1
tp6348
Rp6349
(I3
S'|'
p6350
NNNI3
I1
I0
tp6351
bS'KGA'
p6352
tp6353
Rp6354
I9
sg1
(g2
(S'S3'
p6355
I0
I1
tp6356
Rp6357
(I3
S'|'
p6358
NNNI3
I1
I0
tp6359
bS'TKN'
p6360
tp6361
Rp6362
I7
sg1
(g2
(S'S3'
p6363
I0
I1
tp6364
Rp6365
(I3
S'|'
p6366
NNNI3
I1
I0
tp6367
bS'RWL'
p6368
tp6369
Rp6370
I14
sg1
(g2
(S'S3'
p6371
I0
I1
tp6372
Rp6373
(I3
S'|'
p6374
NNNI3
I1
I0
tp6375
bS'KGG'
p6376
tp6377
Rp6378
I60
sg1
(g2
(S'S4'
p6379
I0
I1
tp6380
Rp6381
(I3
S'|'
p6382
NNNI4
I1
I0
tp6383
bS'INDB'
p6384
tp6385
Rp6386
I68
sg1
(g2
(S'S3'
p6387
I0
I1
tp6388
Rp6389
(I3
S'|'
p6390
NNNI3
I1
I0
tp6391
bS'KGI'
p6392
tp6393
Rp6394
I32
s.