(dp0
cnumpy.core.multiarray
scalar
p1
(cnumpy
dtype
p2
(S'S3'
p3
I0
I1
tp4
Rp5
(I3
S'|'
p6
NNNI3
I1
I0
tp7
bS'SIR'
p8
tp9
Rp10
(F30.6238725
F76.38238729999999
tp11
sg1
(g2
(S'S3'
p12
I0
I1
tp13
Rp14
(I3
S'|'
p15
NNNI3
I1
I0
tp16
bS'CPJ'
p17
tp18
Rp19
(F26.9255137
F83.6993309
tp20
sg1
(g2
(S'S3'
p21
I0
I1
tp22
Rp23
(I3
S'|'
p24
NNNI3
I1
I0
tp25
bS'CPK'
p26
tp27
Rp28
(F26.2029068
F92.5123086
tp29
sg1
(g2
(S'S3'
p30
I0
I1
tp31
Rp32
(I3
S'|'
p33
NNNI3
I1
I0
tp34
bS'KCN'
p35
tp36
Rp37
(F21.3094663
F72.7572021
tp38
sg1
(g2
(S'S3'
p39
I0
I1
tp40
Rp41
(I3
S'|'
p42
NNNI3
I1
I0
tp43
bS'JWP'
p44
tp45
Rp46
(F29.9284211
F78.1209861
tp47
sg1
(g2
(S'S3'
p48
I0
I1
tp49
Rp50
(I3
S'|'
p51
NNNI3
I1
I0
tp52
bS'CPA'
p53
tp54
Rp55
(F26.4554561
F80.32862949999999
tp56
sg1
(g2
(S'S3'
p57
I0
I1
tp58
Rp59
(I3
S'|'
p60
NNNI3
I1
I0
tp61
bS'AGC'
p62
tp63
Rp64
(F27.1578152
F77.98992439999999
tp65
sg1
(g2
(S'S3'
p66
I0
I1
tp67
Rp68
(I3
S'|'
p69
NNNI3
I1
I0
tp70
bS'OYR'
p71
tp72
Rp73
(F55.46054170000001
F-4.6352515
tp74
sg1
(g2
(S'S3'
p75
I0
I1
tp76
Rp77
(I3
S'|'
p78
NNNI3
I1
I0
tp79
bS'NYN'
p80
tp81
Rp82
(F26.0200167
F76.35598300000001
tp83
sg1
(g2
(S'S3'
p84
I0
I1
tp85
Rp86
(I3
S'|'
p87
NNNI3
I1
I0
tp88
bS'AMG'
p89
tp90
Rp91
(F28.6415494
F77.22081229999999
tp92
sg1
(g2
(S'S2'
p93
I0
I1
tp94
Rp95
(I3
S'|'
p96
NNNI2
I1
I0
tp97
bS'ON'
p98
tp99
Rp100
(F18.9352065
F72.82706019999999
tp101
sg1
(g2
(S'S3'
p102
I0
I1
tp103
Rp104
(I3
S'|'
p105
NNNI3
I1
I0
tp106
bS'CPR'
p107
tp108
Rp109
(F25.7878258
F84.7237049
tp110
sg1
(g2
(S'S4'
p111
I0
I1
tp112
Rp113
(I3
S'|'
p114
NNNI4
I1
I0
tp115
bS'KOTA'
p116
tp117
Rp118
(F25.2237865
F75.8807884
tp119
sg1
(g2
(S'S3'
p120
I0
I1
tp121
Rp122
(I3
S'|'
p123
NNNI3
I1
I0
tp124
bS'SPZ'
p125
tp126
Rp127
(F28.78235299999999
F76.772955
tp128
sg1
(g2
(S'S3'
p129
I0
I1
tp130
Rp131
(I3
S'|'
p132
NNNI3
I1
I0
tp133
bS'BWT'
p134
tp135
Rp136
(F12.9849029
F78.17870909999999
tp137
sg1
(g2
(S'S3'
p138
I0
I1
tp139
Rp140
(I3
S'|'
p141
NNNI3
I1
I0
tp142
bS'KYN'
p143
tp144
Rp145
(F26.0200167
F76.35598300000001
tp146
sg1
(g2
(S'S3'
p147
I0
I1
tp148
Rp149
(I3
S'|'
p150
NNNI3
I1
I0
tp151
bS'KYF'
p152
tp153
Rp154
(F22.5558264
F88.3524332
tp155
sg1
(g2
(S'S3'
p156
I0
I1
tp157
Rp158
(I3
S'|'
p159
NNNI3
I1
I0
tp160
bS'KYE'
p161
tp162
Rp163
(F24.0518252
F78.331504
tp164
sg1
(g2
(S'S3'
p165
I0
I1
tp166
Rp167
(I3
S'|'
p168
NNNI3
I1
I0
tp169
bS'SPJ'
p170
tp171
Rp172
(F25.8598831
F85.7862803
tp173
sg1
(g2
(S'S4'
p174
I0
I1
tp175
Rp176
(I3
S'|'
p177
NNNI4
I1
I0
tp178
bS'NTSK'
p179
tp180
Rp181
(F27.4797616
F95.3340108
tp182
sg1
(g2
(S'S3'
p183
I0
I1
tp184
Rp185
(I3
S'|'
p186
NNNI3
I1
I0
tp187
bS'SPN'
p188
tp189
Rp190
(F29.9615391
F77.54044490000001
tp191
sg1
(g2
(S'S3'
p192
I0
I1
tp193
Rp194
(I3
S'|'
p195
NNNI3
I1
I0
tp196
bS'BWH'
p197
tp198
Rp199
(F24.7868599
F77.4116884
tp200
sg1
(g2
(S'S3'
p201
I0
I1
tp202
Rp203
(I3
S'|'
p204
NNNI3
I1
I0
tp205
bS'BWI'
p206
tp207
Rp208
(F26.1595952
F82.6651766
tp209
sg1
(g2
(S'S3'
p210
I0
I1
tp211
Rp212
(I3
S'|'
p213
NNNI3
I1
I0
tp214
bS'KYQ'
p215
tp216
Rp217
(F26.157295
F91.6920453
tp218
sg1
(g2
(S'S3'
p219
I0
I1
tp220
Rp221
(I3
S'|'
p222
NNNI3
I1
I0
tp223
bS'FZD'
p224
tp225
Rp226
(F27.1476765
F78.3866687
tp227
sg1
(g2
(S'S3'
p228
I0
I1
tp229
Rp230
(I3
S'|'
p231
NNNI3
I1
I0
tp232
bS'BWM'
p233
tp234
Rp235
(F25.2237865
F75.8807884
tp236
sg1
(g2
(S'S3'
p237
I0
I1
tp238
Rp239
(I3
S'|'
p240
NNNI3
I1
I0
tp241
bS'BWN'
p242
tp243
Rp244
(F23.2501893
F87.8696314
tp245
sg1
(g2
(S'S3'
p246
I0
I1
tp247
Rp248
(I3
S'|'
p249
NNNI3
I1
I0
tp250
bS'KYT'
p251
tp252
Rp253
(F28.6415494
F77.22081229999999
tp254
sg1
(g2
(S'S4'
p255
I0
I1
tp256
Rp257
(I3
S'|'
p258
NNNI4
I1
I0
tp259
bS'BGTA'
p260
tp261
Rp262
(F22.6311213
F77.9941173
tp263
sg1
(g2
(S'S3'
p264
I0
I1
tp265
Rp266
(I3
S'|'
p267
NNNI3
I1
I0
tp268
bS'HZD'
p269
tp270
Rp271
(F24.1745349
F85.8915478
tp272
sg1
(g2
(S'S3'
p273
I0
I1
tp274
Rp275
(I3
S'|'
p276
NNNI3
I1
I0
tp277
bS'JID'
p278
tp279
Rp280
(F26.125383
F92.197507
tp281
sg1
(g2
(S'S3'
p282
I0
I1
tp283
Rp284
(I3
S'|'
p285
NNNI3
I1
I0
tp286
bS'MJG'
p287
tp288
Rp289
(F24.913667
F80.8117388
tp290
sg1
(g2
(S'S3'
p291
I0
I1
tp292
Rp293
(I3
S'|'
p294
NNNI3
I1
I0
tp295
bS'MJA'
p296
tp297
Rp298
(F28.5713761
F77.1843244
tp299
sg1
(g2
(S'S3'
p300
I0
I1
tp301
Rp302
(I3
S'|'
p303
NNNI3
I1
I0
tp304
bS'JIA'
p305
tp306
Rp307
(F28.5889188
F77.2534726
tp308
sg1
(g2
(S'S3'
p309
I0
I1
tp310
Rp311
(I3
S'|'
p312
NNNI3
I1
I0
tp313
bS'VAA'
p314
tp315
Rp316
(F23.7235151
F86.40586789999999
tp317
sg1
(g2
(S'S3'
p318
I0
I1
tp319
Rp320
(I3
S'|'
p321
NNNI3
I1
I0
tp322
bS'BYN'
p323
tp324
Rp325
(F26.0200167
F76.35598300000001
tp326
sg1
(g2
(S'S2'
p327
I0
I1
tp328
Rp329
(I3
S'|'
p330
NNNI2
I1
I0
tp331
bS'GD'
p332
tp333
Rp334
(F27.1542838
F81.977077
tp335
sg1
(g2
(S'S4'
p336
I0
I1
tp337
Rp338
(I3
S'|'
p339
NNNI4
I1
I0
tp340
bS'KNHP'
p341
tp342
Rp343
(F23.2219306
F77.4393863
tp344
sg1
(g2
(S'S3'
p345
I0
I1
tp346
Rp347
(I3
S'|'
p348
NNNI3
I1
I0
tp349
bS'BGP'
p350
tp351
Rp352
(F28.6415494
F77.22081229999999
tp353
sg1
(g2
(S'S3'
p354
I0
I1
tp355
Rp356
(I3
S'|'
p357
NNNI3
I1
I0
tp358
bS'MAS'
p359
tp360
Rp361
(F21.6896042
F69.7350867
tp362
sg1
(g2
(S'S3'
p363
I0
I1
tp364
Rp365
(I3
S'|'
p366
NNNI3
I1
I0
tp367
bS'AHA'
p368
tp369
Rp370
(F25.2156333
F86.32234539999999
tp371
sg1
(g2
(S'S3'
p372
I0
I1
tp373
Rp374
(I3
S'|'
p375
NNNI3
I1
I0
tp376
bS'MAU'
p377
tp378
Rp379
(F25.9394323
F83.56380690000002
tp380
sg1
(g2
(S'S3'
p381
I0
I1
tp382
Rp383
(I3
S'|'
p384
NNNI3
I1
I0
tp385
bS'JNU'
p386
tp387
Rp388
(F25.7614209
F82.6992568
tp389
sg1
(g2
(S'S3'
p390
I0
I1
tp391
Rp392
(I3
S'|'
p393
NNNI3
I1
I0
tp394
bS'MNE'
p395
tp396
Rp397
(F26.0200167
F76.35598300000001
tp398
sg1
(g2
(S'S3'
p399
I0
I1
tp400
Rp401
(I3
S'|'
p402
NNNI3
I1
I0
tp403
bS'JNA'
p404
tp405
Rp406
(F26.0200167
F76.35598300000001
tp407
sg1
(g2
(S'S4'
p408
I0
I1
tp409
Rp410
(I3
S'|'
p411
NNNI4
I1
I0
tp412
bS'JJKR'
p413
tp414
Rp415
(F20.9433485
F86.13271990000001
tp416
sg1
(g2
(S'S3'
p417
I0
I1
tp418
Rp419
(I3
S'|'
p420
NNNI3
I1
I0
tp421
bS'SNS'
p422
tp423
Rp424
(F27.7039242
F78.1223873
tp425
sg1
(g2
(S'S3'
p426
I0
I1
tp427
Rp428
(I3
S'|'
p429
NNNI3
I1
I0
tp430
bS'SNP'
p431
tp432
Rp433
(F15.906567
F80.4684686
tp434
sg1
(g2
(S'S3'
p435
I0
I1
tp436
Rp437
(I3
S'|'
p438
NNNI3
I1
I0
tp439
bS'LAV'
p440
tp441
Rp442
(F25.4398636
F87.7443748
tp443
sg1
(g2
(S'S3'
p444
I0
I1
tp445
Rp446
(I3
S'|'
p447
NNNI3
I1
I0
tp448
bS'JNH'
p449
tp450
Rp451
(F26.0200167
F76.35598300000001
tp452
sg1
(g2
(S'S3'
p453
I0
I1
tp454
Rp455
(I3
S'|'
p456
NNNI3
I1
I0
tp457
bS'LAR'
p458
tp459
Rp460
(F26.2134154
F83.910042
tp461
sg1
(g2
(S'S4'
p462
I0
I1
tp463
Rp464
(I3
S'|'
p465
NNNI4
I1
I0
tp466
bS'CNDM'
p467
tp468
Rp469
(F30.727173
F76.8869588
tp470
sg1
(g2
(S'S4'
p471
I0
I1
tp472
Rp473
(I3
S'|'
p474
NNNI4
I1
I0
tp475
bS'SGUJ'
p476
tp477
Rp478
(F26.7235148
F88.414031
tp479
sg1
(g2
(S'S3'
p480
I0
I1
tp481
Rp482
(I3
S'|'
p483
NNNI3
I1
I0
tp484
bS'DTO'
p485
tp486
Rp487
(F24.0331665
F84.0743931
tp488
sg1
(g2
(S'S4'
p489
I0
I1
tp490
Rp491
(I3
S'|'
p492
NNNI4
I1
I0
tp493
bS'SVRP'
p494
tp495
Rp496
(F25.2941301
F87.3336771
tp497
sg1
(g2
(S'S3'
p498
I0
I1
tp499
Rp500
(I3
S'|'
p501
NNNI3
I1
I0
tp502
bS'BEA'
p503
tp504
Rp505
(F25.558777
F84.448724
tp506
sg1
(g2
(S'S4'
p507
I0
I1
tp508
Rp509
(I3
S'|'
p510
NNNI4
I1
I0
tp511
bS'PNVL'
p512
tp513
Rp514
(F18.9919002
F73.1227684
tp515
sg1
(g2
(S'S3'
p516
I0
I1
tp517
Rp518
(I3
S'|'
p519
NNNI3
I1
I0
tp520
bS'BEP'
p521
tp522
Rp523
(F25.265321
F81.98931
tp524
sg1
(g2
(S'S4'
p525
I0
I1
tp526
Rp527
(I3
S'|'
p528
NNNI4
I1
I0
tp529
bS'SYWN'
p530
tp531
Rp532
(F25.4904714
F81.6232467
tp533
sg1
(g2
(S'S4'
p534
I0
I1
tp535
Rp536
(I3
S'|'
p537
NNNI4
I1
I0
tp538
bS'MAUR'
p539
tp540
Rp541
(F30.0629142
F75.2282235
tp542
sg1
(g2
(S'S3'
p543
I0
I1
tp544
Rp545
(I3
S'|'
p546
NNNI3
I1
I0
tp547
bS'KBN'
p548
tp549
Rp550
(F17.4337397
F78.5015956
tp551
sg1
(g2
(S'S3'
p552
I0
I1
tp553
Rp554
(I3
S'|'
p555
NNNI3
I1
I0
tp556
bS'SBC'
p557
tp558
Rp559
(F12.9758137
F77.5657082
tp560
sg1
(g2
(S'S3'
p561
I0
I1
tp562
Rp563
(I3
S'|'
p564
NNNI3
I1
I0
tp565
bS'BLZ'
p566
tp567
Rp568
(F29.9219544
F75.5497956
tp569
sg1
(g2
(S'S3'
p570
I0
I1
tp571
Rp572
(I3
S'|'
p573
NNNI3
I1
I0
tp574
bS'LSI'
p575
tp576
Rp577
(F26.1122867
F85.90456569999999
tp578
sg1
(g2
(S'S4'
p579
I0
I1
tp580
Rp581
(I3
S'|'
p582
NNNI4
I1
I0
tp583
bS'MHRG'
p584
tp585
Rp586
(F28.6415494
F77.22081229999999
tp587
sg1
(g2
(S'S4'
p588
I0
I1
tp589
Rp590
(I3
S'|'
p591
NNNI4
I1
I0
tp592
bS'BSYA'
p593
tp594
Rp595
(F25.6528242
F82.1907931
tp596
sg1
(g2
(S'S3'
p597
I0
I1
tp598
Rp599
(I3
S'|'
p600
NNNI3
I1
I0
tp601
bS'HRT'
p602
tp603
Rp604
(F25.3717551
F85.5405538
tp605
sg1
(g2
(S'S3'
p606
I0
I1
tp607
Rp608
(I3
S'|'
p609
NNNI3
I1
I0
tp610
bS'SIL'
p611
tp612
Rp613
(F19.942903
F85.815867
tp614
sg1
(g2
(S'S3'
p615
I0
I1
tp616
Rp617
(I3
S'|'
p618
NNNI3
I1
I0
tp619
bS'JTW'
p620
tp621
Rp622
(F24.7408029
F80.86364809999999
tp623
sg1
(g2
(S'S3'
p624
I0
I1
tp625
Rp626
(I3
S'|'
p627
NNNI3
I1
I0
tp628
bS'FTP'
p629
tp630
Rp631
(F25.9171374
F80.8018264
tp632
sg1
(g2
(S'S3'
p633
I0
I1
tp634
Rp635
(I3
S'|'
p636
NNNI3
I1
I0
tp637
bS'IGP'
p638
tp639
Rp640
(F19.6945668
F73.56217339999999
tp641
sg1
(g2
(S'S3'
p642
I0
I1
tp643
Rp644
(I3
S'|'
p645
NNNI3
I1
I0
tp646
bS'CSA'
p647
tp648
Rp649
(F22.5673321
F88.3708625
tp650
sg1
(g2
(S'S3'
p651
I0
I1
tp652
Rp653
(I3
S'|'
p654
NNNI3
I1
I0
tp655
bS'NFK'
p656
tp657
Rp658
(F24.7943155
F87.9156455
tp659
sg1
(g2
(S'S3'
p660
I0
I1
tp661
Rp662
(I3
S'|'
p663
NNNI3
I1
I0
tp664
bS'BWR'
p665
tp666
Rp667
(F26.2159557
F78.18191499999999
tp668
sg1
(g2
(S'S3'
p669
I0
I1
tp670
Rp671
(I3
S'|'
p672
NNNI3
I1
I0
tp673
bS'BLS'
p674
tp675
Rp676
(F10.0247596
F76.30693579999999
tp677
sg1
(g2
(S'S3'
p678
I0
I1
tp679
Rp680
(I3
S'|'
p681
NNNI3
I1
I0
tp682
bS'BLM'
p683
tp684
Rp685
(F27.1671945
F80.3529465
tp686
sg1
(g2
(S'S3'
p687
I0
I1
tp688
Rp689
(I3
S'|'
p690
NNNI3
I1
I0
tp691
bS'DSO'
p692
tp693
Rp694
(F19.0274138
F72.8501632
tp695
sg1
(g2
(S'S3'
p696
I0
I1
tp697
Rp698
(I3
S'|'
p699
NNNI3
I1
I0
tp700
bS'KPD'
p701
tp702
Rp703
(F12.9722421
F79.1384152
tp704
sg1
(g2
(S'S3'
p705
I0
I1
tp706
Rp707
(I3
S'|'
p708
NNNI3
I1
I0
tp709
bS'KPG'
p710
tp711
Rp712
(F18.9919002
F73.1227684
tp713
sg1
(g2
(S'S3'
p714
I0
I1
tp715
Rp716
(I3
S'|'
p717
NNNI3
I1
I0
tp718
bS'BLG'
p719
tp720
Rp721
(F26.7595215
F83.3817547
tp722
sg1
(g2
(S'S3'
p723
I0
I1
tp724
Rp725
(I3
S'|'
p726
NNNI3
I1
I0
tp727
bS'DSB'
p728
tp729
Rp730
(F28.6587081
F77.2168935
tp731
sg1
(g2
(S'S3'
p732
I0
I1
tp733
Rp734
(I3
S'|'
p735
NNNI3
I1
I0
tp736
bS'KPN'
p737
tp738
Rp739
(F12.7473075
F78.3399271
tp740
sg1
(g2
(S'S3'
p741
I0
I1
tp742
Rp743
(I3
S'|'
p744
NNNI3
I1
I0
tp745
bS'DSA'
p746
tp747
Rp748
(F28.6730561
F77.29228130000001
tp749
sg1
(g2
(S'S3'
p750
I0
I1
tp751
Rp752
(I3
S'|'
p753
NNNI3
I1
I0
tp754
bS'HLZ'
p755
tp756
Rp757
(F22.0448109
F88.06547959999999
tp758
sg1
(g2
(S'S2'
p759
I0
I1
tp760
Rp761
(I3
S'|'
p762
NNNI2
I1
I0
tp763
bS'MB'
p764
tp765
Rp766
(F28.8322051
F78.7659053
tp767
sg1
(g2
(S'S3'
p768
I0
I1
tp769
Rp770
(I3
S'|'
p771
NNNI3
I1
I0
tp772
bS'CBJ'
p773
tp774
Rp775
(F28.3965955
F79.3716347
tp776
sg1
(g2
(S'S3'
p777
I0
I1
tp778
Rp779
(I3
S'|'
p780
NNNI3
I1
I0
tp781
bS'CBH'
p782
tp783
Rp784
(F18.900477
F72.9999393
tp785
sg1
(g2
(S'S4'
p786
I0
I1
tp787
Rp788
(I3
S'|'
p789
NNNI4
I1
I0
tp790
bS'DEOS'
p791
tp792
Rp793
(F26.5079598
F83.78199099999999
tp794
sg1
(g2
(S'S4'
p795
I0
I1
tp796
Rp797
(I3
S'|'
p798
NNNI4
I1
I0
tp799
bS'RUPC'
p800
tp801
Rp802
(F28.9694226
F79.37990479999999
tp803
sg1
(g2
(S'S2'
p804
I0
I1
tp805
Rp806
(I3
S'|'
p807
NNNI2
I1
I0
tp808
bS'MJ'
p809
tp810
Rp811
(F25.7204036
F73.6092822
tp812
sg1
(g2
(S'S3'
p813
I0
I1
tp814
Rp815
(I3
S'|'
p816
NNNI3
I1
I0
tp817
bS'MXN'
p818
tp819
Rp820
(F26.6532361
F94.30905369999999
tp821
sg1
(g2
(S'S4'
p822
I0
I1
tp823
Rp824
(I3
S'|'
p825
NNNI4
I1
I0
tp826
bS'SKZR'
p827
tp828
Rp829
(F19.3465676
F79.48999189999999
tp830
sg1
(g2
(S'S3'
p831
I0
I1
tp832
Rp833
(I3
S'|'
p834
NNNI3
I1
I0
tp835
bS'KKN'
p836
tp837
Rp838
(F26.0200167
F76.35598300000001
tp839
sg1
(g2
(S'S3'
p840
I0
I1
tp841
Rp842
(I3
S'|'
p843
NNNI3
I1
I0
tp844
bS'MXK'
p845
tp846
Rp847
(F27.768583
F78.1104112
tp848
sg1
(g2
(S'S2'
p849
I0
I1
tp850
Rp851
(I3
S'|'
p852
NNNI2
I1
I0
tp853
bS'MS'
p854
tp855
Rp856
(F22.9996065
F72.6002402
tp857
sg1
(g2
(S'S4'
p858
I0
I1
tp859
Rp860
(I3
S'|'
p861
NNNI4
I1
I0
tp862
bS'APDJ'
p863
tp864
Rp865
(F26.5237318
F89.5341347
tp866
sg1
(g2
(S'S4'
p867
I0
I1
tp868
Rp869
(I3
S'|'
p870
NNNI4
I1
I0
tp871
bS'MRPR'
p872
tp873
Rp874
(F28.5713761
F77.1843244
tp875
sg1
(g2
(S'S3'
p876
I0
I1
tp877
Rp878
(I3
S'|'
p879
NNNI3
I1
I0
tp880
bS'NOQ'
p881
tp882
Rp883
(F26.4862261
F89.5411292
tp884
sg1
(g2
(S'S3'
p885
I0
I1
tp886
Rp887
(I3
S'|'
p888
NNNI3
I1
I0
tp889
bS'BZU'
p890
tp891
Rp892
(F21.8969258
F77.906211
tp893
sg1
(g2
(S'S3'
p894
I0
I1
tp895
Rp896
(I3
S'|'
p897
NNNI3
I1
I0
tp898
bS'EKL'
p899
tp900
Rp901
(F26.7660739
F79.1187774
tp902
sg1
(g2
(S'S4'
p903
I0
I1
tp904
Rp905
(I3
S'|'
p906
NNNI4
I1
I0
tp907
bS'VAPI'
p908
tp909
Rp910
(F20.3737405
F72.9085868
tp911
sg1
(g2
(S'S3'
p912
I0
I1
tp913
Rp914
(I3
S'|'
p915
NNNI3
I1
I0
tp916
bS'DOA'
p917
tp918
Rp919
(F15.2676278
F73.9710326
tp920
sg1
(g2
(S'S3'
p921
I0
I1
tp922
Rp923
(I3
S'|'
p924
NNNI3
I1
I0
tp925
bS'EKC'
p926
tp927
Rp928
(F22.5673321
F88.3708625
tp929
sg1
(g2
(S'S4'
p930
I0
I1
tp931
Rp932
(I3
S'|'
p933
NNNI4
I1
I0
tp934
bS'GIMB'
p935
tp936
Rp937
(F23.0684465
F70.1476613
tp938
sg1
(g2
(S'S3'
p939
I0
I1
tp940
Rp941
(I3
S'|'
p942
NNNI3
I1
I0
tp943
bS'BZG'
p944
tp945
Rp946
(F32.081533
F76.5158544
tp947
sg1
(g2
(S'S2'
p948
I0
I1
tp949
Rp950
(I3
S'|'
p951
NNNI2
I1
I0
tp952
bS'FA'
p953
tp954
Rp955
(F25.2354337
F73.2346074
tp956
sg1
(g2
(S'S3'
p957
I0
I1
tp958
Rp959
(I3
S'|'
p960
NNNI3
I1
I0
tp961
bS'KOJ'
p962
tp963
Rp964
(F22.5673321
F88.3708625
tp965
sg1
(g2
(S'S2'
p966
I0
I1
tp967
Rp968
(I3
S'|'
p969
NNNI2
I1
I0
tp970
bS'FD'
p971
tp972
Rp973
(F26.7686913
F82.1357189
tp974
sg1
(g2
(S'S3'
p975
I0
I1
tp976
Rp977
(I3
S'|'
p978
NNNI3
I1
I0
tp979
bS'AKN'
p980
tp981
Rp982
(F26.0200167
F76.35598300000001
tp983
sg1
(g2
(S'S3'
p984
I0
I1
tp985
Rp986
(I3
S'|'
p987
NNNI3
I1
I0
tp988
bS'BZA'
p989
tp990
Rp991
(F16.5186249
F80.6198977
tp992
sg1
(g2
(S'S3'
p993
I0
I1
tp994
Rp995
(I3
S'|'
p996
NNNI3
I1
I0
tp997
bS'CTC'
p998
tp999
Rp1000
(F20.465616
F85.90138089999999
tp1001
sg1
(g2
(S'S3'
p1002
I0
I1
tp1003
Rp1004
(I3
S'|'
p1005
NNNI3
I1
I0
tp1006
bS'DOS'
p1007
tp1008
Rp1009
(F24.9151459
F84.1855467
tp1010
sg1
(g2
(S'S3'
p1011
I0
I1
tp1012
Rp1013
(I3
S'|'
p1014
NNNI3
I1
I0
tp1015
bS'EKR'
p1016
tp1017
Rp1018
(F28.6415494
F77.22081229999999
tp1019
sg1
(g2
(S'S3'
p1020
I0
I1
tp1021
Rp1022
(I3
S'|'
p1023
NNNI3
I1
I0
tp1024
bS'MDJ'
p1025
tp1026
Rp1027
(F24.4266025
F83.8702464
tp1028
sg1
(g2
(S'S4'
p1029
I0
I1
tp1030
Rp1031
(I3
S'|'
p1032
NNNI4
I1
I0
tp1033
bS'KEPR'
p1034
tp1035
Rp1036
(F26.0221572
F82.3394795
tp1037
sg1
(g2
(S'S3'
p1038
I0
I1
tp1039
Rp1040
(I3
S'|'
p1041
NNNI3
I1
I0
tp1042
bS'JSG'
p1043
tp1044
Rp1045
(F21.8627289
F84.017899
tp1046
sg1
(g2
(S'S3'
p1047
I0
I1
tp1048
Rp1049
(I3
S'|'
p1050
NNNI3
I1
I0
tp1051
bS'MDN'
p1052
tp1053
Rp1054
(F28.5713761
F77.1843244
tp1055
sg1
(g2
(S'S3'
p1056
I0
I1
tp1057
Rp1058
(I3
S'|'
p1059
NNNI3
I1
I0
tp1060
bS'KOO'
p1061
tp1062
Rp1063
(F25.4853713
F85.3875656
tp1064
sg1
(g2
(S'S3'
p1065
I0
I1
tp1066
Rp1067
(I3
S'|'
p1068
NNNI3
I1
I0
tp1069
bS'BST'
p1070
tp1071
Rp1072
(F26.8154012
F82.7691451
tp1073
sg1
(g2
(S'S3'
p1074
I0
I1
tp1075
Rp1076
(I3
S'|'
p1077
NNNI3
I1
I0
tp1078
bS'JSM'
p1079
tp1080
Rp1081
(F26.915254
F70.9264791
tp1082
sg1
(g2
(S'S4'
p1083
I0
I1
tp1084
Rp1085
(I3
S'|'
p1086
NNNI4
I1
I0
tp1087
bS'PDRD'
p1088
tp1089
Rp1090
(F25.4942404
F82.8532087
tp1091
sg1
(g2
(S'S3'
p1092
I0
I1
tp1093
Rp1094
(I3
S'|'
p1095
NNNI3
I1
I0
tp1096
bS'BAQ'
p1097
tp1098
Rp1099
(F23.8458612
F77.944667
tp1100
sg1
(g2
(S'S4'
p1101
I0
I1
tp1102
Rp1103
(I3
S'|'
p1104
NNNI4
I1
I0
tp1105
bS'DKDE'
p1106
tp1107
Rp1108
(F28.5889188
F77.2534726
tp1109
sg1
(g2
(S'S3'
p1110
I0
I1
tp1111
Rp1112
(I3
S'|'
p1113
NNNI3
I1
I0
tp1114
bS'BSL'
p1115
tp1116
Rp1117
(F21.0469912
F75.7883817
tp1118
sg1
(g2
(S'S3'
p1119
I0
I1
tp1120
Rp1121
(I3
S'|'
p1122
NNNI3
I1
I0
tp1123
bS'GGA'
p1124
tp1125
Rp1126
(F15.2676278
F73.9710326
tp1127
sg1
(g2
(S'S3'
p1128
I0
I1
tp1129
Rp1130
(I3
S'|'
p1131
NNNI3
I1
I0
tp1132
bS'GGC'
p1133
tp1134
Rp1135
(F26.4683254
F76.7273173
tp1136
sg1
(g2
(S'S3'
p1137
I0
I1
tp1138
Rp1139
(I3
S'|'
p1140
NNNI3
I1
I0
tp1141
bS'BSE'
p1142
tp1143
Rp1144
(F25.6528242
F82.1907931
tp1145
sg1
(g2
(S'S3'
p1146
I0
I1
tp1147
Rp1148
(I3
S'|'
p1149
NNNI3
I1
I0
tp1150
bS'MDP'
p1151
tp1152
Rp1153
(F24.2709756
F86.64215759999999
tp1154
sg1
(g2
(S'S3'
p1155
I0
I1
tp1156
Rp1157
(I3
S'|'
p1158
NNNI3
I1
I0
tp1159
bS'GGN'
p1160
tp1161
Rp1162
(F28.4383238
F76.9307034
tp1163
sg1
(g2
(S'S3'
p1164
I0
I1
tp1165
Rp1166
(I3
S'|'
p1167
NNNI3
I1
I0
tp1168
bS'BSB'
p1169
tp1170
Rp1171
(F25.32742
F82.9860535
tp1172
sg1
(g2
(S'S3'
p1173
I0
I1
tp1174
Rp1175
(I3
S'|'
p1176
NNNI3
I1
I0
tp1177
bS'GGJ'
p1178
tp1179
Rp1180
(F26.5710922
F82.3839048
tp1181
sg1
(g2
(S'S3'
p1182
I0
I1
tp1183
Rp1184
(I3
S'|'
p1185
NNNI3
I1
I0
tp1186
bS'JER'
p1187
tp1188
Rp1189
(F21.7975077
F87.2200857
tp1190
sg1
(g2
(S'S3'
p1191
I0
I1
tp1192
Rp1193
(I3
S'|'
p1194
NNNI3
I1
I0
tp1195
bS'AUB'
p1196
tp1197
Rp1198
(F26.26951
F88.185327
tp1199
sg1
(g2
(S'S3'
p1200
I0
I1
tp1201
Rp1202
(I3
S'|'
p1203
NNNI3
I1
I0
tp1204
bS'LTT'
p1205
tp1206
Rp1207
(F19.069143
F72.8922731
tp1208
sg1
(g2
(S'S3'
p1209
I0
I1
tp1210
Rp1211
(I3
S'|'
p1212
NNNI3
I1
I0
tp1213
bS'MVI'
p1214
tp1215
Rp1216
(F18.9352065
F72.82706019999999
tp1217
sg1
(g2
(S'S3'
p1218
I0
I1
tp1219
Rp1220
(I3
S'|'
p1221
NNNI3
I1
I0
tp1222
bS'JHN'
p1223
tp1224
Rp1225
(F26.0200167
F76.35598300000001
tp1226
sg1
(g2
(S'S3'
p1227
I0
I1
tp1228
Rp1229
(I3
S'|'
p1230
NNNI3
I1
I0
tp1231
bS'SBP'
p1232
tp1233
Rp1234
(F21.4832695
F83.9617212
tp1235
sg1
(g2
(S'S3'
p1236
I0
I1
tp1237
Rp1238
(I3
S'|'
p1239
NNNI3
I1
I0
tp1240
bS'ALD'
p1241
tp1242
Rp1243
(F25.4456773
F81.83024879999999
tp1244
sg1
(g2
(S'S2'
p1245
I0
I1
tp1246
Rp1247
(I3
S'|'
p1248
NNNI2
I1
I0
tp1249
bS'SV'
p1250
tp1251
Rp1252
(F26.2110683
F84.3594016
tp1253
sg1
(g2
(S'S3'
p1254
I0
I1
tp1255
Rp1256
(I3
S'|'
p1257
NNNI3
I1
I0
tp1258
bS'MMR'
p1259
tp1260
Rp1261
(F18.9919002
F73.1227684
tp1262
sg1
(g2
(S'S3'
p1263
I0
I1
tp1264
Rp1265
(I3
S'|'
p1266
NNNI3
I1
I0
tp1267
bS'SBB'
p1268
tp1269
Rp1270
(F28.6415494
F77.22081229999999
tp1271
sg1
(g2
(S'S3'
p1272
I0
I1
tp1273
Rp1274
(I3
S'|'
p1275
NNNI3
I1
I0
tp1276
bS'MML'
p1277
tp1278
Rp1279
(F23.1602717
F79.9207966
tp1280
sg1
(g2
(S'S2'
p1281
I0
I1
tp1282
Rp1283
(I3
S'|'
p1284
NNNI2
I1
I0
tp1285
bS'SI'
p1286
tp1287
Rp1288
(F19.0576176
F73.0205615
tp1289
sg1
(g2
(S'S3'
p1290
I0
I1
tp1291
Rp1292
(I3
S'|'
p1293
NNNI3
I1
I0
tp1294
bS'JJK'
p1295
tp1296
Rp1297
(F26.5547077
F79.7351396
tp1298
sg1
(g2
(S'S3'
p1299
I0
I1
tp1300
Rp1301
(I3
S'|'
p1302
NNNI3
I1
I0
tp1303
bS'SBG'
p1304
tp1305
Rp1306
(F28.6415494
F77.22081229999999
tp1307
sg1
(g2
(S'S4'
p1308
I0
I1
tp1309
Rp1310
(I3
S'|'
p1311
NNNI4
I1
I0
tp1312
bS'NPNR'
p1313
tp1314
Rp1315
(F21.4641495
F76.39691309999999
tp1316
sg1
(g2
(S'S3'
p1317
I0
I1
tp1318
Rp1319
(I3
S'|'
p1320
NNNI3
I1
I0
tp1321
bS'ALY'
p1322
tp1323
Rp1324
(F18.9916151
F73.1220504
tp1325
sg1
(g2
(S'S3'
p1326
I0
I1
tp1327
Rp1328
(I3
S'|'
p1329
NNNI3
I1
I0
tp1330
bS'HYT'
p1331
tp1332
Rp1333
(F17.4238521
F78.54699029999999
tp1334
sg1
(g2
(S'S4'
p1335
I0
I1
tp1336
Rp1337
(I3
S'|'
p1338
NNNI4
I1
I0
tp1339
bS'JUDW'
p1340
tp1341
Rp1342
(F30.13542
F77.24232599999999
tp1343
sg1
(g2
(S'S3'
p1344
I0
I1
tp1345
Rp1346
(I3
S'|'
p1347
NNNI3
I1
I0
tp1348
bS'SBO'
p1349
tp1350
Rp1351
(F19.0204465
F73.0180596
tp1352
sg1
(g2
(S'S3'
p1353
I0
I1
tp1354
Rp1355
(I3
S'|'
p1356
NNNI3
I1
I0
tp1357
bS'LMG'
p1358
tp1359
Rp1360
(F25.7505782
F93.1765539
tp1361
sg1
(g2
(S'S3'
p1362
I0
I1
tp1363
Rp1364
(I3
S'|'
p1365
NNNI3
I1
I0
tp1366
bS'DPU'
p1367
tp1368
Rp1369
(F25.8379895
F93.4386564
tp1370
sg1
(g2
(S'S3'
p1371
I0
I1
tp1372
Rp1373
(I3
S'|'
p1374
NNNI3
I1
I0
tp1375
bS'BAU'
p1376
tp1377
Rp1378
(F21.334808
F76.199325
tp1379
sg1
(g2
(S'S3'
p1380
I0
I1
tp1381
Rp1382
(I3
S'|'
p1383
NNNI3
I1
I0
tp1384
bS'DPR'
p1385
tp1386
Rp1387
(F30.3377219
F76.828023
tp1388
sg1
(g2
(S'S3'
p1389
I0
I1
tp1390
Rp1391
(I3
S'|'
p1392
NNNI3
I1
I0
tp1393
bS'BAP'
p1394
tp1395
Rp1396
(F27.2877205
F72.3272252
tp1397
sg1
(g2
(S'S4'
p1398
I0
I1
tp1399
Rp1400
(I3
S'|'
p1401
NNNI4
I1
I0
tp1402
bS'GLPT'
p1403
tp1404
Rp1405
(F26.1269824
F90.62099309999999
tp1406
sg1
(g2
(S'S3'
p1407
I0
I1
tp1408
Rp1409
(I3
S'|'
p1410
NNNI3
I1
I0
tp1411
bS'CAR'
p1412
tp1413
Rp1414
(F13.021304
F77.55326269999999
tp1415
sg1
(g2
(S'S3'
p1416
I0
I1
tp1417
Rp1418
(I3
S'|'
p1419
NNNI3
I1
I0
tp1420
bS'BXN'
p1421
tp1422
Rp1423
(F26.915965
F77.29639499999999
tp1424
sg1
(g2
(S'S4'
p1425
I0
I1
tp1426
Rp1427
(I3
S'|'
p1428
NNNI4
I1
I0
tp1429
bS'BNCE'
p1430
tp1431
Rp1432
(F13.00127
F77.6182601
tp1433
sg1
(g2
(S'S4'
p1434
I0
I1
tp1435
Rp1436
(I3
S'|'
p1437
NNNI4
I1
I0
tp1438
bS'SJNP'
p1439
tp1440
Rp1441
(F32.3126765
F75.6133435
tp1442
sg1
(g2
(S'S3'
p1443
I0
I1
tp1444
Rp1445
(I3
S'|'
p1446
NNNI3
I1
I0
tp1447
bS'TOI'
p1448
tp1449
Rp1450
(F17.4337397
F78.5015956
tp1451
sg1
(g2
(S'S4'
p1452
I0
I1
tp1453
Rp1454
(I3
S'|'
p1455
NNNI4
I1
I0
tp1456
bS'HAPA'
p1457
tp1458
Rp1459
(F22.4679978
F70.11655549999999
tp1460
sg1
(g2
(S'S3'
p1461
I0
I1
tp1462
Rp1463
(I3
S'|'
p1464
NNNI3
I1
I0
tp1465
bS'DPA'
p1466
tp1467
Rp1468
(F26.8550777
F75.7866329
tp1469
sg1
(g2
(S'S4'
p1470
I0
I1
tp1471
Rp1472
(I3
S'|'
p1473
NNNI4
I1
I0
tp1474
bS'SRID'
p1475
tp1476
Rp1477
(F21.193149
F72.803718
tp1478
sg1
(g2
(S'S4'
p1479
I0
I1
tp1480
Rp1481
(I3
S'|'
p1482
NNNI4
I1
I0
tp1483
bS'KSRA'
p1484
tp1485
Rp1486
(F19.6483438
F73.4730793
tp1487
sg1
(g2
(S'S3'
p1488
I0
I1
tp1489
Rp1490
(I3
S'|'
p1491
NNNI3
I1
I0
tp1492
bS'BTE'
p1493
tp1494
Rp1495
(F27.2363645
F77.4887574
tp1496
sg1
(g2
(S'S2'
p1497
I0
I1
tp1498
Rp1499
(I3
S'|'
p1500
NNNI2
I1
I0
tp1501
bS'GP'
p1502
tp1503
Rp1504
(F22.3106111
F70.80256589999999
tp1505
sg1
(g2
(S'S3'
p1506
I0
I1
tp1507
Rp1508
(I3
S'|'
p1509
NNNI3
I1
I0
tp1510
bS'NHH'
p1511
tp1512
Rp1513
(F26.4606509
F81.63278
tp1514
sg1
(g2
(S'S4'
p1515
I0
I1
tp1516
Rp1517
(I3
S'|'
p1518
NNNI4
I1
I0
tp1519
bS'BNLW'
p1520
tp1521
Rp1522
(F26.3840271
F75.9352899
tp1523
sg1
(g2
(S'S3'
p1524
I0
I1
tp1525
Rp1526
(I3
S'|'
p1527
NNNI3
I1
I0
tp1528
bS'PGW'
p1529
tp1530
Rp1531
(F31.2171926
F75.7654843
tp1532
sg1
(g2
(S'S2'
p1533
I0
I1
tp1534
Rp1535
(I3
S'|'
p1536
NNNI2
I1
I0
tp1537
bS'LS'
p1538
tp1539
Rp1540
(F22.519165
F88.32234299999999
tp1541
sg1
(g2
(S'S3'
p1542
I0
I1
tp1543
Rp1544
(I3
S'|'
p1545
NNNI3
I1
I0
tp1546
bS'DYD'
p1547
tp1548
Rp1549
(F17.7030756
F83.1509966
tp1550
sg1
(g2
(S'S3'
p1551
I0
I1
tp1552
Rp1553
(I3
S'|'
p1554
NNNI3
I1
I0
tp1555
bS'BTA'
p1556
tp1557
Rp1558
(F25.561028
F84.872358
tp1559
sg1
(g2
(S'S3'
p1560
I0
I1
tp1561
Rp1562
(I3
S'|'
p1563
NNNI3
I1
I0
tp1564
bS'HIL'
p1565
tp1566
Rp1567
(F21.7026999
F72.998627
tp1568
sg1
(g2
(S'S4'
p1569
I0
I1
tp1570
Rp1571
(I3
S'|'
p1572
NNNI4
I1
I0
tp1573
bS'JSME'
p1574
tp1575
Rp1576
(F24.5151087
F86.64427119999999
tp1577
sg1
(g2
(S'S3'
p1578
I0
I1
tp1579
Rp1580
(I3
S'|'
p1581
NNNI3
I1
I0
tp1582
bS'STA'
p1583
tp1584
Rp1585
(F22.519165
F88.32234299999999
tp1586
sg1
(g2
(S'S3'
p1587
I0
I1
tp1588
Rp1589
(I3
S'|'
p1590
NNNI3
I1
I0
tp1591
bS'VPT'
p1592
tp1593
Rp1594
(F9.594794499999999
F77.9574701
tp1595
sg1
(g2
(S'S3'
p1596
I0
I1
tp1597
Rp1598
(I3
S'|'
p1599
NNNI3
I1
I0
tp1600
bS'STL'
p1601
tp1602
Rp1603
(F13.024056
F80.2239577
tp1604
sg1
(g2
(S'S3'
p1605
I0
I1
tp1606
Rp1607
(I3
S'|'
p1608
NNNI3
I1
I0
tp1609
bS'STN'
p1610
tp1611
Rp1612
(F22.5830132
F88.34309189999999
tp1613
sg1
(g2
(S'S3'
p1614
I0
I1
tp1615
Rp1616
(I3
S'|'
p1617
NNNI3
I1
I0
tp1618
bS'KTQ'
p1619
tp1620
Rp1621
(F25.0492728
F83.7924149
tp1622
sg1
(g2
(S'S3'
p1623
I0
I1
tp1624
Rp1625
(I3
S'|'
p1626
NNNI3
I1
I0
tp1627
bS'ABP'
p1628
tp1629
Rp1630
(F26.4292167
F82.54005850000001
tp1631
sg1
(g2
(S'S3'
p1632
I0
I1
tp1633
Rp1634
(I3
S'|'
p1635
NNNI3
I1
I0
tp1636
bS'ABR'
p1637
tp1638
Rp1639
(F24.4812799
F72.785344
tp1640
sg1
(g2
(S'S3'
p1641
I0
I1
tp1642
Rp1643
(I3
S'|'
p1644
NNNI3
I1
I0
tp1645
bS'ABS'
p1646
tp1647
Rp1648
(F30.212796
F74.93311469999999
tp1649
sg1
(g2
(S'S3'
p1650
I0
I1
tp1651
Rp1652
(I3
S'|'
p1653
NNNI3
I1
I0
tp1654
bS'HGH'
p1655
tp1656
Rp1657
(F19.0274138
F72.8501632
tp1658
sg1
(g2
(S'S3'
p1659
I0
I1
tp1660
Rp1661
(I3
S'|'
p1662
NNNI3
I1
I0
tp1663
bS'KTE'
p1664
tp1665
Rp1666
(F23.8343156
F80.4005699
tp1667
sg1
(g2
(S'S4'
p1668
I0
I1
tp1669
Rp1670
(I3
S'|'
p1671
NNNI4
I1
I0
tp1672
bS'BANO'
p1673
tp1674
Rp1675
(F22.6644928
F84.90269099999999
tp1676
sg1
(g2
(S'S3'
p1677
I0
I1
tp1678
Rp1679
(I3
S'|'
p1680
NNNI3
I1
I0
tp1681
bS'NZM'
p1682
tp1683
Rp1684
(F28.5889188
F77.2534726
tp1685
sg1
(g2
(S'S4'
p1686
I0
I1
tp1687
Rp1688
(I3
S'|'
p1689
NNNI4
I1
I0
tp1690
bS'JIND'
p1691
tp1692
Rp1693
(F29.3290286
F76.28954510000001
tp1694
sg1
(g2
(S'S4'
p1695
I0
I1
tp1696
Rp1697
(I3
S'|'
p1698
NNNI4
I1
I0
tp1699
bS'PNME'
p1700
tp1701
Rp1702
(F25.6033028
F85.137137
tp1703
sg1
(g2
(S'S4'
p1704
I0
I1
tp1705
Rp1706
(I3
S'|'
p1707
NNNI4
I1
I0
tp1708
bS'MLPR'
p1709
tp1710
Rp1711
(F21.175429
F72.8025921
tp1712
sg1
(g2
(S'S3'
p1713
I0
I1
tp1714
Rp1715
(I3
S'|'
p1716
NNNI3
I1
I0
tp1717
bS'PNP'
p1718
tp1719
Rp1720
(F29.3891542
F76.96376599999999
tp1721
sg1
(g2
(S'S3'
p1722
I0
I1
tp1723
Rp1724
(I3
S'|'
p1725
NNNI3
I1
I0
tp1726
bS'BHC'
p1727
tp1728
Rp1729
(F21.0912758
F86.5157605
tp1730
sg1
(g2
(S'S4'
p1731
I0
I1
tp1732
Rp1733
(I3
S'|'
p1734
NNNI4
I1
I0
tp1735
bS'NLDM'
p1736
tp1737
Rp1738
(F31.37051859999999
F76.3733848
tp1739
sg1
(g2
(S'S3'
p1740
I0
I1
tp1741
Rp1742
(I3
S'|'
p1743
NNNI3
I1
I0
tp1744
bS'PNU'
p1745
tp1746
Rp1747
(F18.522066
F73.8658469
tp1748
sg1
(g2
(S'S3'
p1749
I0
I1
tp1750
Rp1751
(I3
S'|'
p1752
NNNI3
I1
I0
tp1753
bS'HTZ'
p1754
tp1755
Rp1756
(F25.366062
F85.987331
tp1757
sg1
(g2
(S'S3'
p1758
I0
I1
tp1759
Rp1760
(I3
S'|'
p1761
NNNI3
I1
I0
tp1762
bS'OGL'
p1763
tp1764
Rp1765
(F15.4975651
F80.05706459999999
tp1766
sg1
(g2
(S'S3'
p1767
I0
I1
tp1768
Rp1769
(I3
S'|'
p1770
NNNI3
I1
I0
tp1771
bS'PNK'
p1772
tp1773
Rp1774
(F26.4596367
F80.2384079
tp1775
sg1
(g2
(S'S3'
p1776
I0
I1
tp1777
Rp1778
(I3
S'|'
p1779
NNNI3
I1
I0
tp1780
bS'BHP'
p1781
tp1782
Rp1783
(F23.6585455
F87.6985899
tp1784
sg1
(g2
(S'S3'
p1785
I0
I1
tp1786
Rp1787
(I3
S'|'
p1788
NNNI3
I1
I0
tp1789
bS'BHS'
p1790
tp1791
Rp1792
(F16.5049621
F80.6345254
tp1793
sg1
(g2
(S'S3'
p1794
I0
I1
tp1795
Rp1796
(I3
S'|'
p1797
NNNI3
I1
I0
tp1798
bS'PNE'
p1799
tp1800
Rp1801
(F18.522066
F73.8658469
tp1802
sg1
(g2
(S'S4'
p1803
I0
I1
tp1804
Rp1805
(I3
S'|'
p1806
NNNI4
I1
I0
tp1807
bS'DRTP'
p1808
tp1809
Rp1810
(F22.5673321
F88.3708625
tp1811
sg1
(g2
(S'S3'
p1812
I0
I1
tp1813
Rp1814
(I3
S'|'
p1815
NNNI3
I1
I0
tp1816
bS'MIH'
p1817
tp1818
Rp1819
(F25.8709364
F82.6939889
tp1820
sg1
(g2
(S'S3'
p1821
I0
I1
tp1822
Rp1823
(I3
S'|'
p1824
NNNI3
I1
I0
tp1825
bS'ZNA'
p1826
tp1827
Rp1828
(F25.374094
F83.54376599999999
tp1829
sg1
(g2
(S'S3'
p1830
I0
I1
tp1831
Rp1832
(I3
S'|'
p1833
NNNI3
I1
I0
tp1834
bS'MIL'
p1835
tp1836
Rp1837
(F25.4903182
F83.8046193
tp1838
sg1
(g2
(S'S3'
p1839
I0
I1
tp1840
Rp1841
(I3
S'|'
p1842
NNNI3
I1
I0
tp1843
bS'GHR'
p1844
tp1845
Rp1846
(F26.4606509
F81.63278
tp1847
sg1
(g2
(S'S4'
p1848
I0
I1
tp1849
Rp1850
(I3
S'|'
p1851
NNNI4
I1
I0
tp1852
bS'DURE'
p1853
tp1854
Rp1855
(F25.5717667
F84.1434771
tp1856
sg1
(g2
(S'S3'
p1857
I0
I1
tp1858
Rp1859
(I3
S'|'
p1860
NNNI3
I1
I0
tp1861
bS'DKZ'
p1862
tp1863
Rp1864
(F28.66424829999999
F77.2008136
tp1865
sg1
(g2
(S'S3'
p1866
I0
I1
tp1867
Rp1868
(I3
S'|'
p1869
NNNI3
I1
I0
tp1870
bS'GHY'
p1871
tp1872
Rp1873
(F26.1825487
F91.7497434
tp1874
sg1
(g2
(S'S3'
p1875
I0
I1
tp1876
Rp1877
(I3
S'|'
p1878
NNNI3
I1
I0
tp1879
bS'GAR'
p1880
tp1881
Rp1882
(F22.9003668
F78.7926693
tp1883
sg1
(g2
(S'S3'
p1884
I0
I1
tp1885
Rp1886
(I3
S'|'
p1887
NNNI3
I1
I0
tp1888
bS'GHD'
p1889
tp1890
Rp1891
(F24.2147119
F83.8853541
tp1892
sg1
(g2
(S'S3'
p1893
I0
I1
tp1894
Rp1895
(I3
S'|'
p1896
NNNI3
I1
I0
tp1897
bS'ATE'
p1898
tp1899
Rp1900
(F18.9352065
F72.82706019999999
tp1901
sg1
(g2
(S'S2'
p1902
I0
I1
tp1903
Rp1904
(I3
S'|'
p1905
NNNI2
I1
I0
tp1906
bS'BE'
p1907
tp1908
Rp1909
(F18.9352065
F72.82706019999999
tp1910
sg1
(g2
(S'S4'
p1911
I0
I1
tp1912
Rp1913
(I3
S'|'
p1914
NNNI4
I1
I0
tp1915
bS'ROZA'
p1916
tp1917
Rp1918
(F27.8527912
F79.9555805
tp1919
sg1
(g2
(S'S3'
p1920
I0
I1
tp1921
Rp1922
(I3
S'|'
p1923
NNNI3
I1
I0
tp1924
bS'KNT'
p1925
tp1926
Rp1927
(F22.519165
F88.32234299999999
tp1928
sg1
(g2
(S'S3'
p1929
I0
I1
tp1930
Rp1931
(I3
S'|'
p1932
NNNI3
I1
I0
tp1933
bS'JOP'
p1934
tp1935
Rp1936
(F19.0189654
F73.03920560000002
tp1937
sg1
(g2
(S'S2'
p1938
I0
I1
tp1939
Rp1940
(I3
S'|'
p1941
NNNI2
I1
I0
tp1942
bS'RV'
p1943
tp1944
Rp1945
(F21.222205
F76.044397
tp1946
sg1
(g2
(S'S3'
p1947
I0
I1
tp1948
Rp1949
(I3
S'|'
p1950
NNNI3
I1
I0
tp1951
bS'SAN'
p1952
tp1953
Rp1954
(F26.0200167
F76.35598300000001
tp1955
sg1
(g2
(S'S3'
p1956
I0
I1
tp1957
Rp1958
(I3
S'|'
p1959
NNNI3
I1
I0
tp1960
bS'NHT'
p1961
tp1962
Rp1963
(F24.2958323
F87.83877869999999
tp1964
sg1
(g2
(S'S3'
p1965
I0
I1
tp1966
Rp1967
(I3
S'|'
p1968
NNNI3
I1
I0
tp1969
bS'MUR'
p1970
tp1971
Rp1972
(F27.0396745
F82.2268745
tp1973
sg1
(g2
(S'S3'
p1974
I0
I1
tp1975
Rp1976
(I3
S'|'
p1977
NNNI3
I1
I0
tp1978
bS'LBA'
p1979
tp1980
Rp1981
(F26.3961716
F88.93472679999999
tp1982
sg1
(g2
(S'S2'
p1983
I0
I1
tp1984
Rp1985
(I3
S'|'
p1986
NNNI2
I1
I0
tp1987
bS'RE'
p1988
tp1989
Rp1990
(F28.6628569
F77.18549399999999
tp1991
sg1
(g2
(S'S3'
p1992
I0
I1
tp1993
Rp1994
(I3
S'|'
p1995
NNNI3
I1
I0
tp1996
bS'ARA'
p1997
tp1998
Rp1999
(F25.5487958
F84.6613775
tp2000
sg1
(g2
(S'S3'
p2001
I0
I1
tp2002
Rp2003
(I3
S'|'
p2004
NNNI3
I1
I0
tp2005
bS'PRP'
p2006
tp2007
Rp2008
(F28.5713761
F77.1843244
tp2009
sg1
(g2
(S'S3'
p2010
I0
I1
tp2011
Rp2012
(I3
S'|'
p2013
NNNI3
I1
I0
tp2014
bS'PRR'
p2015
tp2016
Rp2017
(F23.3254134
F86.3779031
tp2018
sg1
(g2
(S'S2'
p2019
I0
I1
tp2020
Rp2021
(I3
S'|'
p2022
NNNI2
I1
I0
tp2023
bS'RN'
p2024
tp2025
Rp2026
(F26.0200167
F76.35598300000001
tp2027
sg1
(g2
(S'S3'
p2028
I0
I1
tp2029
Rp2030
(I3
S'|'
p2031
NNNI3
I1
I0
tp2032
bS'RAY'
p2033
tp2034
Rp2035
(F18.977184
F72.844214
tp2036
sg1
(g2
(S'S3'
p2037
I0
I1
tp2038
Rp2039
(I3
S'|'
p2040
NNNI3
I1
I0
tp2041
bS'URD'
p2042
tp2043
Rp2044
(F25.2419226
F86.9725417
tp2045
sg1
(g2
(S'S4'
p2046
I0
I1
tp2047
Rp2048
(I3
S'|'
p2049
NNNI4
I1
I0
tp2050
bS'MURI'
p2051
tp2052
Rp2053
(F23.377899
F85.866483
tp2054
sg1
(g2
(S'S4'
p2055
I0
I1
tp2056
Rp2057
(I3
S'|'
p2058
NNNI4
I1
I0
tp2059
bS'GRRU'
p2060
tp2061
Rp2062
(F19.0099443
F73.0943887
tp2063
sg1
(g2
(S'S4'
p2064
I0
I1
tp2065
Rp2066
(I3
S'|'
p2067
NNNI4
I1
I0
tp2068
bS'DAKE'
p2069
tp2070
Rp2071
(F22.5673321
F88.3708625
tp2072
sg1
(g2
(S'S3'
p2073
I0
I1
tp2074
Rp2075
(I3
S'|'
p2076
NNNI3
I1
I0
tp2077
bS'CHH'
p2078
tp2079
Rp2080
(F18.6398719
F73.7918217
tp2081
sg1
(g2
(S'S3'
p2082
I0
I1
tp2083
Rp2084
(I3
S'|'
p2085
NNNI3
I1
I0
tp2086
bS'CHI'
p2087
tp2088
Rp2089
(F17.542339
F73.522126
tp2090
sg1
(g2
(S'S3'
p2091
I0
I1
tp2092
Rp2093
(I3
S'|'
p2094
NNNI3
I1
I0
tp2095
bS'CHJ'
p2096
tp2097
Rp2098
(F27.7118349
F77.5029076
tp2099
sg1
(g2
(S'S3'
p2100
I0
I1
tp2101
Rp2102
(I3
S'|'
p2103
NNNI3
I1
I0
tp2104
bS'CHL'
p2105
tp2106
Rp2107
(F28.6415494
F77.22081229999999
tp2108
sg1
(g2
(S'S3'
p2109
I0
I1
tp2110
Rp2111
(I3
S'|'
p2112
NNNI3
I1
I0
tp2113
bS'TPJ'
p2114
tp2115
Rp2116
(F10.7947068
F78.68484649999999
tp2117
sg1
(g2
(S'S3'
p2118
I0
I1
tp2119
Rp2120
(I3
S'|'
p2121
NNNI3
I1
I0
tp2122
bS'MRR'
p2123
tp2124
Rp2125
(F18.9919002
F73.1227684
tp2126
sg1
(g2
(S'S3'
p2127
I0
I1
tp2128
Rp2129
(I3
S'|'
p2130
NNNI3
I1
I0
tp2131
bS'TPH'
p2132
tp2133
Rp2134
(F22.5673321
F88.3708625
tp2135
sg1
(g2
(S'S3'
p2136
I0
I1
tp2137
Rp2138
(I3
S'|'
p2139
NNNI3
I1
I0
tp2140
bS'NLV'
p2141
tp2142
Rp2143
(F26.451002
F91.439099
tp2144
sg1
(g2
(S'S3'
p2145
I0
I1
tp2146
Rp2147
(I3
S'|'
p2148
NNNI3
I1
I0
tp2149
bS'JAM'
p2150
tp2151
Rp2152
(F22.4929933
F70.0534734
tp2153
sg1
(g2
(S'S3'
p2154
I0
I1
tp2155
Rp2156
(I3
S'|'
p2157
NNNI3
I1
I0
tp2158
bS'HRI'
p2159
tp2160
Rp2161
(F28.6415494
F77.22081229999999
tp2162
sg1
(g2
(S'S3'
p2163
I0
I1
tp2164
Rp2165
(I3
S'|'
p2166
NNNI3
I1
I0
tp2167
bS'MRE'
p2168
tp2169
Rp2170
(F25.469877
F81.6622361
tp2171
sg1
(g2
(S'S2'
p2172
I0
I1
tp2173
Rp2174
(I3
S'|'
p2175
NNNI2
I1
I0
tp2176
bS'AY'
p2177
tp2178
Rp2179
(F26.0200167
F76.35598300000001
tp2180
sg1
(g2
(S'S3'
p2181
I0
I1
tp2182
Rp2183
(I3
S'|'
p2184
NNNI3
I1
I0
tp2185
bS'CNB'
p2186
tp2187
Rp2188
(F26.453855
F80.3511946
tp2189
sg1
(g2
(S'S3'
p2190
I0
I1
tp2191
Rp2192
(I3
S'|'
p2193
NNNI3
I1
I0
tp2194
bS'MRA'
p2195
tp2196
Rp2197
(F26.5007853
F78.0036622
tp2198
sg1
(g2
(S'S4'
p2199
I0
I1
tp2200
Rp2201
(I3
S'|'
p2202
NNNI4
I1
I0
tp2203
bS'LTHR'
p2204
tp2205
Rp2206
(F23.7253098
F84.4680559
tp2207
sg1
(g2
(S'S3'
p2208
I0
I1
tp2209
Rp2210
(I3
S'|'
p2211
NNNI3
I1
I0
tp2212
bS'JAA'
p2213
tp2214
Rp2215
(F23.3700384
F85.974673
tp2216
sg1
(g2
(S'S4'
p2217
I0
I1
tp2218
Rp2219
(I3
S'|'
p2220
NNNI4
I1
I0
tp2221
bS'BRKA'
p2222
tp2223
Rp2224
(F23.6241344
F85.47010809999999
tp2225
sg1
(g2
(S'S3'
p2226
I0
I1
tp2227
Rp2228
(I3
S'|'
p2229
NNNI3
I1
I0
tp2230
bS'DBA'
p2231
tp2232
Rp2233
(F25.8818211
F78.3305659
tp2234
sg1
(g2
(S'S3'
p2235
I0
I1
tp2236
Rp2237
(I3
S'|'
p2238
NNNI3
I1
I0
tp2239
bS'KAJ'
p2240
tp2241
Rp2242
(F22.5673321
F88.3708625
tp2243
sg1
(g2
(S'S3'
p2244
I0
I1
tp2245
Rp2246
(I3
S'|'
p2247
NNNI3
I1
I0
tp2248
bS'KAN'
p2249
tp2250
Rp2251
(F26.0200167
F76.35598300000001
tp2252
sg1
(g2
(S'S3'
p2253
I0
I1
tp2254
Rp2255
(I3
S'|'
p2256
NNNI3
I1
I0
tp2257
bS'DBG'
p2258
tp2259
Rp2260
(F26.1547701
F85.90724759999999
tp2261
sg1
(g2
(S'S4'
p2262
I0
I1
tp2263
Rp2264
(I3
S'|'
p2265
NNNI4
I1
I0
tp2266
bS'RTGH'
p2267
tp2268
Rp2269
(F28.068449
F74.624448
tp2270
sg1
(g2
(S'S3'
p2271
I0
I1
tp2272
Rp2273
(I3
S'|'
p2274
NNNI3
I1
I0
tp2275
bS'IPR'
p2276
tp2277
Rp2278
(F10.108094
F76.358671
tp2279
sg1
(g2
(S'S3'
p2280
I0
I1
tp2281
Rp2282
(I3
S'|'
p2283
NNNI3
I1
I0
tp2284
bS'KIR'
p2285
tp2286
Rp2287
(F25.5479337
F87.56514899999999
tp2288
sg1
(g2
(S'S3'
p2289
I0
I1
tp2290
Rp2291
(I3
S'|'
p2292
NNNI3
I1
I0
tp2293
bS'SFG'
p2294
tp2295
Rp2296
(F25.440274
F81.789928
tp2297
sg1
(g2
(S'S3'
p2298
I0
I1
tp2299
Rp2300
(I3
S'|'
p2301
NNNI3
I1
I0
tp2302
bS'DBR'
p2303
tp2304
Rp2305
(F25.1180666
F81.3032341
tp2306
sg1
(g2
(S'S4'
p2307
I0
I1
tp2308
Rp2309
(I3
S'|'
p2310
NNNI4
I1
I0
tp2311
bS'GAYA'
p2312
tp2313
Rp2314
(F24.8013194
F84.9994864
tp2315
sg1
(g2
(S'S3'
p2316
I0
I1
tp2317
Rp2318
(I3
S'|'
p2319
NNNI3
I1
I0
tp2320
bS'FUT'
p2321
tp2322
Rp2323
(F23.8308549
F80.3922414
tp2324
sg1
(g2
(S'S3'
p2325
I0
I1
tp2326
Rp2327
(I3
S'|'
p2328
NNNI3
I1
I0
tp2329
bS'KSV'
p2330
tp2331
Rp2332
(F27.788163
F77.446208
tp2333
sg1
(g2
(S'S4'
p2334
I0
I1
tp2335
Rp2336
(I3
S'|'
p2337
NNNI4
I1
I0
tp2338
bS'CHTI'
p2339
tp2340
Rp2341
(F26.4897327
F74.5597337
tp2342
sg1
(g2
(S'S3'
p2343
I0
I1
tp2344
Rp2345
(I3
S'|'
p2346
NNNI3
I1
I0
tp2347
bS'NGN'
p2348
tp2349
Rp2350
(F20.3091832
F74.66007909999999
tp2351
sg1
(g2
(S'S3'
p2352
I0
I1
tp2353
Rp2354
(I3
S'|'
p2355
NNNI3
I1
I0
tp2356
bS'NGO'
p2357
tp2358
Rp2359
(F27.1999565
F73.7235568
tp2360
sg1
(g2
(S'S3'
p2361
I0
I1
tp2362
Rp2363
(I3
S'|'
p2364
NNNI3
I1
I0
tp2365
bS'IDG'
p2366
tp2367
Rp2368
(F25.7282911
F76.2328364
tp2369
sg1
(g2
(S'S3'
p2370
I0
I1
tp2371
Rp2372
(I3
S'|'
p2373
NNNI3
I1
I0
tp2374
bS'HDE'
p2375
tp2376
Rp2377
(F28.6415494
F77.22081229999999
tp2378
sg1
(g2
(S'S3'
p2379
I0
I1
tp2380
Rp2381
(I3
S'|'
p2382
NNNI3
I1
I0
tp2383
bS'KSF'
p2384
tp2385
Rp2386
(F25.4760996
F82.8420478
tp2387
sg1
(g2
(S'S3'
p2388
I0
I1
tp2389
Rp2390
(I3
S'|'
p2391
NNNI3
I1
I0
tp2392
bS'NGP'
p2393
tp2394
Rp2395
(F21.152187
F79.0887588
tp2396
sg1
(g2
(S'S4'
p2397
I0
I1
tp2398
Rp2399
(I3
S'|'
p2400
NNNI4
I1
I0
tp2401
bS'BNGN'
p2402
tp2403
Rp2404
(F26.47546
F90.53717999999999
tp2405
sg1
(g2
(S'S3'
p2406
I0
I1
tp2407
Rp2408
(I3
S'|'
p2409
NNNI3
I1
I0
tp2410
bS'HDN'
p2411
tp2412
Rp2413
(F13.0850613
F80.27515629999999
tp2414
sg1
(g2
(S'S3'
p2415
I0
I1
tp2416
Rp2417
(I3
S'|'
p2418
NNNI3
I1
I0
tp2419
bS'KSJ'
p2420
tp2421
Rp2422
(F27.8009036
F78.6453702
tp2423
sg1
(g2
(S'S3'
p2424
I0
I1
tp2425
Rp2426
(I3
S'|'
p2427
NNNI3
I1
I0
tp2428
bS'PKR'
p2429
tp2430
Rp2431
(F24.6399477
F87.8336389
tp2432
sg1
(g2
(S'S3'
p2433
I0
I1
tp2434
Rp2435
(I3
S'|'
p2436
NNNI3
I1
I0
tp2437
bS'TKD'
p2438
tp2439
Rp2440
(F28.502541
F77.2993
tp2441
sg1
(g2
(S'S3'
p2442
I0
I1
tp2443
Rp2444
(I3
S'|'
p2445
NNNI3
I1
I0
tp2446
bS'NLR'
p2447
tp2448
Rp2449
(F14.4611754
F79.9897036
tp2450
sg1
(g2
(S'S4'
p2451
I0
I1
tp2452
Rp2453
(I3
S'|'
p2454
NNNI4
I1
I0
tp2455
bS'HRNR'
p2456
tp2457
Rp2458
(F12.9922835
F77.6562478
tp2459
sg1
(g2
(S'S3'
p2460
I0
I1
tp2461
Rp2462
(I3
S'|'
p2463
NNNI3
I1
I0
tp2464
bS'BME'
p2465
tp2466
Rp2467
(F25.7463649
F71.39747779999999
tp2468
sg1
(g2
(S'S3'
p2469
I0
I1
tp2470
Rp2471
(I3
S'|'
p2472
NNNI3
I1
I0
tp2473
bS'RTM'
p2474
tp2475
Rp2476
(F23.3405576
F75.0504837
tp2477
sg1
(g2
(S'S3'
p2478
I0
I1
tp2479
Rp2480
(I3
S'|'
p2481
NNNI3
I1
I0
tp2482
bS'SNT'
p2483
tp2484
Rp2485
(F23.950481
F87.681311
tp2486
sg1
(g2
(S'S3'
p2487
I0
I1
tp2488
Rp2489
(I3
S'|'
p2490
NNNI3
I1
I0
tp2491
bS'PKF'
p2492
tp2493
Rp2494
(F22.9197906
F84.95128869999999
tp2495
sg1
(g2
(S'S3'
p2496
I0
I1
tp2497
Rp2498
(I3
S'|'
p2499
NNNI3
I1
I0
tp2500
bS'NLD'
p2501
tp2502
Rp2503
(F28.6415494
F77.22081229999999
tp2504
sg1
(g2
(S'S3'
p2505
I0
I1
tp2506
Rp2507
(I3
S'|'
p2508
NNNI3
I1
I0
tp2509
bS'BMU'
p2510
tp2511
Rp2512
(F25.4447973
F81.7387457
tp2513
sg1
(g2
(S'S4'
p2514
I0
I1
tp2515
Rp2516
(I3
S'|'
p2517
NNNI4
I1
I0
tp2518
bS'ANND'
p2519
tp2520
Rp2521
(F22.5617082
F72.9663035
tp2522
sg1
(g2
(S'S3'
p2523
I0
I1
tp2524
Rp2525
(I3
S'|'
p2526
NNNI3
I1
I0
tp2527
bS'SHR'
p2528
tp2529
Rp2530
(F18.9916151
F73.1220504
tp2531
sg1
(g2
(S'S3'
p2532
I0
I1
tp2533
Rp2534
(I3
S'|'
p2535
NNNI3
I1
I0
tp2536
bS'CSN'
p2537
tp2538
Rp2539
(F20.4637095
F74.9988628
tp2540
sg1
(g2
(S'S3'
p2541
I0
I1
tp2542
Rp2543
(I3
S'|'
p2544
NNNI3
I1
I0
tp2545
bS'DLK'
p2546
tp2547
Rp2548
(F25.874491
F87.83875499999999
tp2549
sg1
(g2
(S'S3'
p2550
I0
I1
tp2551
Rp2552
(I3
S'|'
p2553
NNNI3
I1
I0
tp2554
bS'DLJ'
p2555
tp2556
Rp2557
(F21.8231076
F71.7387078
tp2558
sg1
(g2
(S'S3'
p2559
I0
I1
tp2560
Rp2561
(I3
S'|'
p2562
NNNI3
I1
I0
tp2563
bS'DLI'
p2564
tp2565
Rp2566
(F28.6605792
F77.2253539
tp2567
sg1
(g2
(S'S3'
p2568
I0
I1
tp2569
Rp2570
(I3
S'|'
p2571
NNNI3
I1
I0
tp2572
bS'DLO'
p2573
tp2574
Rp2575
(F26.7147191
F89.13679549999999
tp2576
sg1
(g2
(S'S3'
p2577
I0
I1
tp2578
Rp2579
(I3
S'|'
p2580
NNNI3
I1
I0
tp2581
bS'DLN'
p2582
tp2583
Rp2584
(F25.4195592
F83.6684396
tp2585
sg1
(g2
(S'S4'
p2586
I0
I1
tp2587
Rp2588
(I3
S'|'
p2589
NNNI4
I1
I0
tp2590
bS'KIUL'
p2591
tp2592
Rp2593
(F25.1719001
F86.09404940000002
tp2594
sg1
(g2
(S'S3'
p2595
I0
I1
tp2596
Rp2597
(I3
S'|'
p2598
NNNI3
I1
I0
tp2599
bS'SHC'
p2600
tp2601
Rp2602
(F25.8733726
F86.594274
tp2603
sg1
(g2
(S'S4'
p2604
I0
I1
tp2605
Rp2606
(I3
S'|'
p2607
NNNI4
I1
I0
tp2608
bS'BKSL'
p2609
tp2610
Rp2611
(F22.5673321
F88.3708625
tp2612
sg1
(g2
(S'S3'
p2613
I0
I1
tp2614
Rp2615
(I3
S'|'
p2616
NNNI3
I1
I0
tp2617
bS'SHE'
p2618
tp2619
Rp2620
(F19.0274138
F72.8501632
tp2621
sg1
(g2
(S'S3'
p2622
I0
I1
tp2623
Rp2624
(I3
S'|'
p2625
NNNI3
I1
I0
tp2626
bS'JTJ'
p2627
tp2628
Rp2629
(F12.562827
F78.57770839999999
tp2630
sg1
(g2
(S'S3'
p2631
I0
I1
tp2632
Rp2633
(I3
S'|'
p2634
NNNI3
I1
I0
tp2635
bS'RFJ'
p2636
tp2637
Rp2638
(F22.7679095
F86.20106299999999
tp2639
sg1
(g2
(S'S4'
p2640
I0
I1
tp2641
Rp2642
(I3
S'|'
p2643
NNNI4
I1
I0
tp2644
bS'LUNI'
p2645
tp2646
Rp2647
(F18.522066
F73.8658469
tp2648
sg1
(g2
(S'S4'
p2649
I0
I1
tp2650
Rp2651
(I3
S'|'
p2652
NNNI4
I1
I0
tp2653
bS'BKSC'
p2654
tp2655
Rp2656
(F23.6580406
F86.0840173
tp2657
sg1
(g2
(S'S3'
p2658
I0
I1
tp2659
Rp2660
(I3
S'|'
p2661
NNNI3
I1
I0
tp2662
bS'SHM'
p2663
tp2664
Rp2665
(F22.5563762
F88.31485740000001
tp2666
sg1
(g2
(S'S3'
p2667
I0
I1
tp2668
Rp2669
(I3
S'|'
p2670
NNNI3
I1
I0
tp2671
bS'CGL'
p2672
tp2673
Rp2674
(F12.6938528
F79.98070779999999
tp2675
sg1
(g2
(S'S3'
p2676
I0
I1
tp2677
Rp2678
(I3
S'|'
p2679
NNNI3
I1
I0
tp2680
bS'BTT'
p2681
tp2682
Rp2683
(F26.381352
F83.93292730000002
tp2684
sg1
(g2
(S'S4'
p2685
I0
I1
tp2686
Rp2687
(I3
S'|'
p2688
NNNI4
I1
I0
tp2689
bS'RPUR'
p2690
tp2691
Rp2692
(F26.2623829
F82.0675792
tp2693
sg1
(g2
(S'S3'
p2694
I0
I1
tp2695
Rp2696
(I3
S'|'
p2697
NNNI3
I1
I0
tp2698
bS'BTP'
p2699
tp2700
Rp2701
(F25.4540306
F82.8806717
tp2702
sg1
(g2
(S'S3'
p2703
I0
I1
tp2704
Rp2705
(I3
S'|'
p2706
NNNI3
I1
I0
tp2707
bS'GZH'
p2708
tp2709
Rp2710
(F28.6530862
F77.4279899
tp2711
sg1
(g2
(S'S4'
p2712
I0
I1
tp2713
Rp2714
(I3
S'|'
p2715
NNNI4
I1
I0
tp2716
bS'RJPB'
p2717
tp2718
Rp2719
(F25.6027447
F85.1626785
tp2720
sg1
(g2
(S'S3'
p2721
I0
I1
tp2722
Rp2723
(I3
S'|'
p2724
NNNI3
I1
I0
tp2725
bS'GZB'
p2726
tp2727
Rp2728
(F28.6530862
F77.4279899
tp2729
sg1
(g2
(S'S3'
p2730
I0
I1
tp2731
Rp2732
(I3
S'|'
p2733
NNNI3
I1
I0
tp2734
bS'SSM'
p2735
tp2736
Rp2737
(F24.9562073
F84.01856
tp2738
sg1
(g2
(S'S3'
p2739
I0
I1
tp2740
Rp2741
(I3
S'|'
p2742
NNNI3
I1
I0
tp2743
bS'BTD'
p2744
tp2745
Rp2746
(F22.1829406
F71.6656666
tp2747
sg1
(g2
(S'S3'
p2748
I0
I1
tp2749
Rp2750
(I3
S'|'
p2751
NNNI3
I1
I0
tp2752
bS'TBM'
p2753
tp2754
Rp2755
(F12.9259177
F80.1181198
tp2756
sg1
(g2
(S'S3'
p2757
I0
I1
tp2758
Rp2759
(I3
S'|'
p2760
NNNI3
I1
I0
tp2761
bS'MAO'
p2762
tp2763
Rp2764
(F15.2676278
F73.9710326
tp2765
sg1
(g2
(S'S3'
p2766
I0
I1
tp2767
Rp2768
(I3
S'|'
p2769
NNNI3
I1
I0
tp2770
bS'TBN'
p2771
tp2772
Rp2773
(F22.6082196
F77.7670225
tp2774
sg1
(g2
(S'S3'
p2775
I0
I1
tp2776
Rp2777
(I3
S'|'
p2778
NNNI3
I1
I0
tp2779
bS'BTI'
p2780
tp2781
Rp2782
(F30.212796
F74.93311469999999
tp2783
sg1
(g2
(S'S3'
p2784
I0
I1
tp2785
Rp2786
(I3
S'|'
p2787
NNNI3
I1
I0
tp2788
bS'BKN'
p2789
tp2790
Rp2791
(F28.0145575
F73.3159695
tp2792
sg1
(g2
(S'S3'
p2793
I0
I1
tp2794
Rp2795
(I3
S'|'
p2796
NNNI3
I1
I0
tp2797
bS'SSB'
p2798
tp2799
Rp2800
(F28.680632
F77.127849
tp2801
sg1
(g2
(S'S3'
p2802
I0
I1
tp2803
Rp2804
(I3
S'|'
p2805
NNNI3
I1
I0
tp2806
bS'MUW'
p2807
tp2808
Rp2809
(F19.0274138
F72.8501632
tp2810
sg1
(g2
(S'S3'
p2811
I0
I1
tp2812
Rp2813
(I3
S'|'
p2814
NNNI3
I1
I0
tp2815
bS'MUV'
p2816
tp2817
Rp2818
(F25.2995695
F82.9722609
tp2819
sg1
(g2
(S'S3'
p2820
I0
I1
tp2821
Rp2822
(I3
S'|'
p2823
NNNI3
I1
I0
tp2824
bS'JBP'
p2825
tp2826
Rp2827
(F23.1651957
F79.95074699999999
tp2828
sg1
(g2
(S'S3'
p2829
I0
I1
tp2830
Rp2831
(I3
S'|'
p2832
NNNI3
I1
I0
tp2833
bS'BKH'
p2834
tp2835
Rp2836
(F15.2722755
F73.9275597
tp2837
sg1
(g2
(S'S3'
p2838
I0
I1
tp2839
Rp2840
(I3
S'|'
p2841
NNNI3
I1
I0
tp2842
bS'ATL'
p2843
tp2844
Rp2845
(F33.7994002
F-84.392597
tp2846
sg1
(g2
(S'S3'
p2847
I0
I1
tp2848
Rp2849
(I3
S'|'
p2850
NNNI3
I1
I0
tp2851
bS'BKI'
p2852
tp2853
Rp2854
(F27.03926
F76.5667041
tp2855
sg1
(g2
(S'S4'
p2856
I0
I1
tp2857
Rp2858
(I3
S'|'
p2859
NNNI4
I1
I0
tp2860
bS'THVM'
p2861
tp2862
Rp2863
(F15.6301899
F73.8767307
tp2864
sg1
(g2
(S'S4'
p2865
I0
I1
tp2866
Rp2867
(I3
S'|'
p2868
NNNI4
I1
I0
tp2869
bS'KLAR'
p2870
tp2871
Rp2872
(F28.5889188
F77.2534726
tp2873
sg1
(g2
(S'S4'
p2874
I0
I1
tp2875
Rp2876
(I3
S'|'
p2877
NNNI4
I1
I0
tp2878
bS'KMME'
p2879
tp2880
Rp2881
(F23.349473
F85.335656
tp2882
sg1
(g2
(S'S3'
p2883
I0
I1
tp2884
Rp2885
(I3
S'|'
p2886
NNNI3
I1
I0
tp2887
bS'ASR'
p2888
tp2889
Rp2890
(F31.63308589999999
F74.867131
tp2891
sg1
(g2
(S'S3'
p2892
I0
I1
tp2893
Rp2894
(I3
S'|'
p2895
NNNI3
I1
I0
tp2896
bS'RMT'
p2897
tp2898
Rp2899
(F23.6194846
F85.5198442
tp2900
sg1
(g2
(S'S3'
p2901
I0
I1
tp2902
Rp2903
(I3
S'|'
p2904
NNNI3
I1
I0
tp2905
bS'RMU'
p2906
tp2907
Rp2908
(F28.778683
F79.023352
tp2909
sg1
(g2
(S'S3'
p2910
I0
I1
tp2911
Rp2912
(I3
S'|'
p2913
NNNI3
I1
I0
tp2914
bS'DGO'
p2915
tp2916
Rp2917
(F28.6415494
F77.22081229999999
tp2918
sg1
(g2
(S'S4'
p2919
I0
I1
tp2920
Rp2921
(I3
S'|'
p2922
NNNI4
I1
I0
tp2923
bS'SDAH'
p2924
tp2925
Rp2926
(F22.5673321
F88.3708625
tp2927
sg1
(g2
(S'S3'
p2928
I0
I1
tp2929
Rp2930
(I3
S'|'
p2931
NNNI3
I1
I0
tp2932
bS'DGR'
p2933
tp2934
Rp2935
(F23.4954888
F87.3174726
tp2936
sg1
(g2
(S'S3'
p2937
I0
I1
tp2938
Rp2939
(I3
S'|'
p2940
NNNI3
I1
I0
tp2941
bS'SEE'
p2942
tp2943
Rp2944
(F21.816352
F83.948796
tp2945
sg1
(g2
(S'S3'
p2946
I0
I1
tp2947
Rp2948
(I3
S'|'
p2949
NNNI3
I1
I0
tp2950
bS'RMA'
p2951
tp2952
Rp2953
(F24.6439772
F75.9397922
tp2954
sg1
(g2
(S'S3'
p2955
I0
I1
tp2956
Rp2957
(I3
S'|'
p2958
NNNI3
I1
I0
tp2959
bS'SEB'
p2960
tp2961
Rp2962
(F24.8827373
F84.2301456
tp2963
sg1
(g2
(S'S3'
p2964
I0
I1
tp2965
Rp2966
(I3
S'|'
p2967
NNNI3
I1
I0
tp2968
bS'LNK'
p2969
tp2970
Rp2971
(F18.9919002
F73.1227684
tp2972
sg1
(g2
(S'S3'
p2973
I0
I1
tp2974
Rp2975
(I3
S'|'
p2976
NNNI3
I1
I0
tp2977
bS'DGU'
p2978
tp2979
Rp2980
(F26.1533025
F91.9787863
tp2981
sg1
(g2
(S'S3'
p2982
I0
I1
tp2983
Rp2984
(I3
S'|'
p2985
NNNI3
I1
I0
tp2986
bS'SEO'
p2987
tp2988
Rp2989
(F19.018458
F73.038725
tp2990
sg1
(g2
(S'S3'
p2991
I0
I1
tp2992
Rp2993
(I3
S'|'
p2994
NNNI3
I1
I0
tp2995
bS'JKE'
p2996
tp2997
Rp2998
(F17.4337397
F78.5015956
tp2999
sg1
(g2
(S'S3'
p3000
I0
I1
tp3001
Rp3002
(I3
S'|'
p3003
NNNI3
I1
I0
tp3004
bS'ASN'
p3005
tp3006
Rp3007
(F23.6911108
F86.975235
tp3008
sg1
(g2
(S'S3'
p3009
I0
I1
tp3010
Rp3011
(I3
S'|'
p3012
NNNI3
I1
I0
tp3013
bS'SEH'
p3014
tp3015
Rp3016
(F23.21499
F77.07780400000001
tp3017
sg1
(g2
(S'S3'
p3018
I0
I1
tp3019
Rp3020
(I3
S'|'
p3021
NNNI3
I1
I0
tp3022
bS'BBK'
p3023
tp3024
Rp3025
(F26.9341771
F81.1792123
tp3026
sg1
(g2
(S'S3'
p3027
I0
I1
tp3028
Rp3029
(I3
S'|'
p3030
NNNI3
I1
I0
tp3031
bS'TLV'
p3032
tp3033
Rp3034
(F21.9277691
F76.4448345
tp3035
sg1
(g2
(S'S4'
p3036
I0
I1
tp3037
Rp3038
(I3
S'|'
p3039
NNNI4
I1
I0
tp3040
bS'CSTM'
p3041
tp3042
Rp3043
(F18.9398208
F72.8354676
tp3044
sg1
(g2
(S'S3'
p3045
I0
I1
tp3046
Rp3047
(I3
S'|'
p3048
NNNI3
I1
I0
tp3049
bS'DUB'
p3050
tp3051
Rp3052
(F19.0274138
F72.8501632
tp3053
sg1
(g2
(S'S3'
p3054
I0
I1
tp3055
Rp3056
(I3
S'|'
p3057
NNNI3
I1
I0
tp3058
bS'CLG'
p3059
tp3060
Rp3061
(F13.1186246
F80.0749
tp3062
sg1
(g2
(S'S3'
p3063
I0
I1
tp3064
Rp3065
(I3
S'|'
p3066
NNNI3
I1
I0
tp3067
bS'KJM'
p3068
tp3069
Rp3070
(F13.0005672
F77.6746456
tp3071
sg1
(g2
(S'S3'
p3072
I0
I1
tp3073
Rp3074
(I3
S'|'
p3075
NNNI3
I1
I0
tp3076
bS'GTS'
p3077
tp3078
Rp3079
(F28.5713761
F77.1843244
tp3080
sg1
(g2
(S'S3'
p3081
I0
I1
tp3082
Rp3083
(I3
S'|'
p3084
NNNI3
I1
I0
tp3085
bS'UND'
p3086
tp3087
Rp3088
(F28.5713761
F77.1843244
tp3089
sg1
(g2
(S'S4'
p3090
I0
I1
tp3091
Rp3092
(I3
S'|'
p3093
NNNI4
I1
I0
tp3094
bS'VJPJ'
p3095
tp3096
Rp3097
(F32.5723393
F75.0213172
tp3098
sg1
(g2
(S'S4'
p3099
I0
I1
tp3100
Rp3101
(I3
S'|'
p3102
NNNI4
I1
I0
tp3103
bS'ORAI'
p3104
tp3105
Rp3106
(F25.9827712
F79.45994499999999
tp3107
sg1
(g2
(S'S3'
p3108
I0
I1
tp3109
Rp3110
(I3
S'|'
p3111
NNNI3
I1
I0
tp3112
bS'TLJ'
p3113
tp3114
Rp3115
(F22.5673321
F88.3708625
tp3116
sg1
(g2
(S'S3'
p3117
I0
I1
tp3118
Rp3119
(I3
S'|'
p3120
NNNI3
I1
I0
tp3121
bS'BBU'
p3122
tp3123
Rp3124
(F25.1727483
F83.61945329999999
tp3125
sg1
(g2
(S'S3'
p3126
I0
I1
tp3127
Rp3128
(I3
S'|'
p3129
NNNI3
I1
I0
tp3130
bS'TLH'
p3131
tp3132
Rp3133
(F28.6415494
F77.22081229999999
tp3134
sg1
(g2
(S'S3'
p3135
I0
I1
tp3136
Rp3137
(I3
S'|'
p3138
NNNI3
I1
I0
tp3139
bS'BBS'
p3140
tp3141
Rp3142
(F20.266601
F85.84361539999999
tp3143
sg1
(g2
(S'S4'
p3144
I0
I1
tp3145
Rp3146
(I3
S'|'
p3147
NNNI4
I1
I0
tp3148
bS'BSQP'
p3149
tp3150
Rp3151
(F25.124446
F86.1450469
tp3152
sg1
(g2
(S'S3'
p3153
I0
I1
tp3154
Rp3155
(I3
S'|'
p3156
NNNI3
I1
I0
tp3157
bS'PWS'
p3158
tp3159
Rp3160
(F25.5863804
F85.08080590000002
tp3161
sg1
(g2
(S'S3'
p3162
I0
I1
tp3163
Rp3164
(I3
S'|'
p3165
NNNI3
I1
I0
tp3166
bS'KEI'
p3167
tp3168
Rp3169
(F25.3269562
F83.0315814
tp3170
sg1
(g2
(S'S3'
p3171
I0
I1
tp3172
Rp3173
(I3
S'|'
p3174
NNNI3
I1
I0
tp3175
bS'NBG'
p3176
tp3177
Rp3178
(F24.6542549
F84.0948969
tp3179
sg1
(g2
(S'S2'
p3180
I0
I1
tp3181
Rp3182
(I3
S'|'
p3183
NNNI2
I1
I0
tp3184
bS'KS'
p3185
tp3186
Rp3187
(F28.6415494
F77.22081229999999
tp3188
sg1
(g2
(S'S3'
p3189
I0
I1
tp3190
Rp3191
(I3
S'|'
p3192
NNNI3
I1
I0
tp3193
bS'TUN'
p3194
tp3195
Rp3196
(F29.7267133
F75.9026806
tp3197
sg1
(g2
(S'S2'
p3198
I0
I1
tp3199
Rp3200
(I3
S'|'
p3201
NNNI2
I1
I0
tp3202
bS'KY'
p3203
tp3204
Rp3205
(F28.6415494
F77.22081229999999
tp3206
sg1
(g2
(S'S3'
p3207
I0
I1
tp3208
Rp3209
(I3
S'|'
p3210
NNNI3
I1
I0
tp3211
bS'SWM'
p3212
tp3213
Rp3214
(F26.0200167
F76.35598300000001
tp3215
sg1
(g2
(S'S4'
p3216
I0
I1
tp3217
Rp3218
(I3
S'|'
p3219
NNNI4
I1
I0
tp3220
bS'BNXR'
p3221
tp3222
Rp3223
(F22.5673321
F88.3708625
tp3224
sg1
(g2
(S'S3'
p3225
I0
I1
tp3226
Rp3227
(I3
S'|'
p3228
NNNI3
I1
I0
tp3229
bS'BPF'
p3230
tp3231
Rp3232
(F22.7200087
F77.3806923
tp3233
sg1
(g2
(S'S4'
p3234
I0
I1
tp3235
Rp3236
(I3
S'|'
p3237
NNNI4
I1
I0
tp3238
bS'BINA'
p3239
tp3240
Rp3241
(F24.1711135
F78.1833398
tp3242
sg1
(g2
(S'S2'
p3243
I0
I1
tp3244
Rp3245
(I3
S'|'
p3246
NNNI2
I1
I0
tp3247
bS'DD'
p3248
tp3249
Rp3250
(F18.4640056
F74.5789146
tp3251
sg1
(g2
(S'S3'
p3252
I0
I1
tp3253
Rp3254
(I3
S'|'
p3255
NNNI3
I1
I0
tp3256
bS'BPL'
p3257
tp3258
Rp3259
(F23.2677604
F77.4140013
tp3260
sg1
(g2
(S'S3'
p3261
I0
I1
tp3262
Rp3263
(I3
S'|'
p3264
NNNI3
I1
I0
tp3265
bS'BPQ'
p3266
tp3267
Rp3268
(F19.8499304
F79.3477916
tp3269
sg1
(g2
(S'S3'
p3270
I0
I1
tp3271
Rp3272
(I3
S'|'
p3273
NNNI3
I1
I0
tp3274
bS'JYG'
p3275
tp3276
Rp3277
(F26.5885527
F86.1359014
tp3278
sg1
(g2
(S'S4'
p3279
I0
I1
tp3280
Rp3281
(I3
S'|'
p3282
NNNI4
I1
I0
tp3283
bS'BEHS'
p3284
tp3285
Rp3286
(F25.2030829
F85.5394075
tp3287
sg1
(g2
(S'S4'
p3288
I0
I1
tp3289
Rp3290
(I3
S'|'
p3291
NNNI4
I1
I0
tp3292
bS'AUBR'
p3293
tp3294
Rp3295
(F24.8559708
F84.3287313
tp3296
sg1
(g2
(S'S3'
p3297
I0
I1
tp3298
Rp3299
(I3
S'|'
p3300
NNNI3
I1
I0
tp3301
bS'GMO'
p3302
tp3303
Rp3304
(F23.8717293
F86.1524866
tp3305
sg1
(g2
(S'S4'
p3306
I0
I1
tp3307
Rp3308
(I3
S'|'
p3309
NNNI4
I1
I0
tp3310
bS'ANSB'
p3311
tp3312
Rp3313
(F31.2299042
F76.5003155
tp3314
sg1
(g2
(S'S2'
p3315
I0
I1
tp3316
Rp3317
(I3
S'|'
p3318
NNNI2
I1
I0
tp3319
bS'DR'
p3320
tp3321
Rp3322
(F19.3011141
F84.7961443
tp3323
sg1
(g2
(S'S3'
p3324
I0
I1
tp3325
Rp3326
(I3
S'|'
p3327
NNNI3
I1
I0
tp3328
bS'BRR'
p3329
tp3330
Rp3331
(F23.349473
F85.335656
tp3332
sg1
(g2
(S'S3'
p3333
I0
I1
tp3334
Rp3335
(I3
S'|'
p3336
NNNI3
I1
I0
tp3337
bS'SWV'
p3338
tp3339
Rp3340
(F15.8666514
F73.7852003
tp3341
sg1
(g2
(S'S3'
p3342
I0
I1
tp3343
Rp3344
(I3
S'|'
p3345
NNNI3
I1
I0
tp3346
bS'RPR'
p3347
tp3348
Rp3349
(F25.6033028
F85.137137
tp3350
sg1
(g2
(S'S3'
p3351
I0
I1
tp3352
Rp3353
(I3
S'|'
p3354
NNNI3
I1
I0
tp3355
bS'BIH'
p3356
tp3357
Rp3358
(F23.2738119
F77.3358452
tp3359
sg1
(g2
(S'S3'
p3360
I0
I1
tp3361
Rp3362
(I3
S'|'
p3363
NNNI3
I1
I0
tp3364
bS'HRS'
p3365
tp3366
Rp3367
(F27.6251313
F78.13692689999999
tp3368
sg1
(g2
(S'S3'
p3369
I0
I1
tp3370
Rp3371
(I3
S'|'
p3372
NNNI3
I1
I0
tp3373
bS'GYN'
p3374
tp3375
Rp3376
(F26.0200167
F76.35598300000001
tp3377
sg1
(g2
(S'S4'
p3378
I0
I1
tp3379
Rp3380
(I3
S'|'
p3381
NNNI4
I1
I0
tp3382
bS'JAIS'
p3383
tp3384
Rp3385
(F26.2621641
F81.519269
tp3386
sg1
(g2
(S'S3'
p3387
I0
I1
tp3388
Rp3389
(I3
S'|'
p3390
NNNI3
I1
I0
tp3391
bS'KWM'
p3392
tp3393
Rp3394
(F16.3285649
F81.0694287
tp3395
sg1
(g2
(S'S3'
p3396
I0
I1
tp3397
Rp3398
(I3
S'|'
p3399
NNNI3
I1
I0
tp3400
bS'KWO'
p3401
tp3402
Rp3403
(F25.4738153
F85.4448152
tp3404
sg1
(g2
(S'S4'
p3405
I0
I1
tp3406
Rp3407
(I3
S'|'
p3408
NNNI4
I1
I0
tp3409
bS'DMRX'
p3410
tp3411
Rp3412
(F25.9064667
F93.72896999999999
tp3413
sg1
(g2
(S'S3'
p3414
I0
I1
tp3415
Rp3416
(I3
S'|'
p3417
NNNI3
I1
I0
tp3418
bS'KWR'
p3419
tp3420
Rp3421
(F22.5673321
F88.3708625
tp3422
sg1
(g2
(S'S3'
p3423
I0
I1
tp3424
Rp3425
(I3
S'|'
p3426
NNNI3
I1
I0
tp3427
bS'UCA'
p3428
tp3429
Rp3430
(F28.6415494
F77.22081229999999
tp3431
sg1
(g2
(S'S3'
p3432
I0
I1
tp3433
Rp3434
(I3
S'|'
p3435
NNNI3
I1
I0
tp3436
bS'RPH'
p3437
tp3438
Rp3439
(F24.179347
F87.782021
tp3440
sg1
(g2
(S'S3'
p3441
I0
I1
tp3442
Rp3443
(I3
S'|'
p3444
NNNI3
I1
I0
tp3445
bS'POE'
p3446
tp3447
Rp3448
(F28.6173883
F77.230002
tp3449
sg1
(g2
(S'S3'
p3450
I0
I1
tp3451
Rp3452
(I3
S'|'
p3453
NNNI3
I1
I0
tp3454
bS'KJH'
p3455
tp3456
Rp3457
(F28.5713761
F77.1843244
tp3458
sg1
(g2
(S'S4'
p3459
I0
I1
tp3460
Rp3461
(I3
S'|'
p3462
NNNI4
I1
I0
tp3463
bS'ALJN'
p3464
tp3465
Rp3466
(F27.8890473
F78.07494729999999
tp3467
sg1
(g2
(S'S3'
p3468
I0
I1
tp3469
Rp3470
(I3
S'|'
p3471
NNNI3
I1
I0
tp3472
bS'DHN'
p3473
tp3474
Rp3475
(F23.7910294
F86.4299391
tp3476
sg1
(g2
(S'S3'
p3477
I0
I1
tp3478
Rp3479
(I3
S'|'
p3480
NNNI3
I1
I0
tp3481
bS'FKM'
p3482
tp3483
Rp3484
(F26.3648565
F90.1862323
tp3485
sg1
(g2
(S'S3'
p3486
I0
I1
tp3487
Rp3488
(I3
S'|'
p3489
NNNI3
I1
I0
tp3490
bS'MLD'
p3491
tp3492
Rp3493
(F25.0161199
F88.1305043
tp3494
sg1
(g2
(S'S4'
p3495
I0
I1
tp3496
Rp3497
(I3
S'|'
p3498
NNNI4
I1
I0
tp3499
bS'BDTS'
p3500
tp3501
Rp3502
(F19.0623704
F72.8410241
tp3503
sg1
(g2
(S'S3'
p3504
I0
I1
tp3505
Rp3506
(I3
S'|'
p3507
NNNI3
I1
I0
tp3508
bS'DHG'
p3509
tp3510
Rp3511
(F22.9871435
F71.4787276
tp3512
sg1
(g2
(S'S3'
p3513
I0
I1
tp3514
Rp3515
(I3
S'|'
p3516
NNNI3
I1
I0
tp3517
bS'DHD'
p3518
tp3519
Rp3520
(F22.8439445
F74.25437509999999
tp3521
sg1
(g2
(S'S3'
p3522
I0
I1
tp3523
Rp3524
(I3
S'|'
p3525
NNNI3
I1
I0
tp3526
bS'DHA'
p3527
tp3528
Rp3529
(F25.3540928
F83.4223116
tp3530
sg1
(g2
(S'S3'
p3531
I0
I1
tp3532
Rp3533
(I3
S'|'
p3534
NNNI3
I1
I0
tp3535
bS'FKG'
p3536
tp3537
Rp3538
(F26.4644623
F94.0018721
tp3539
sg1
(g2
(S'S3'
p3540
I0
I1
tp3541
Rp3542
(I3
S'|'
p3543
NNNI3
I1
I0
tp3544
bS'AJI'
p3545
tp3546
Rp3547
(F27.6446553
F79.9740851
tp3548
sg1
(g2
(S'S3'
p3549
I0
I1
tp3550
Rp3551
(I3
S'|'
p3552
NNNI3
I1
I0
tp3553
bS'AJJ'
p3554
tp3555
Rp3556
(F28.6173883
F77.230002
tp3557
sg1
(g2
(S'S3'
p3558
I0
I1
tp3559
Rp3560
(I3
S'|'
p3561
NNNI3
I1
I0
tp3562
bS'RBL'
p3563
tp3564
Rp3565
(F26.232205
F81.23910269999999
tp3566
sg1
(g2
(S'S3'
p3567
I0
I1
tp3568
Rp3569
(I3
S'|'
p3570
NNNI3
I1
I0
tp3571
bS'GOY'
p3572
tp3573
Rp3574
(F15.2676278
F73.9710326
tp3575
sg1
(g2
(S'S3'
p3576
I0
I1
tp3577
Rp3578
(I3
S'|'
p3579
NNNI3
I1
I0
tp3580
bS'SLJ'
p3581
tp3582
Rp3583
(F12.8673802
F80.069964
tp3584
sg1
(g2
(S'S3'
p3585
I0
I1
tp3586
Rp3587
(I3
S'|'
p3588
NNNI3
I1
I0
tp3589
bS'SLD'
p3590
tp3591
Rp3592
(F22.5673321
F88.3708625
tp3593
sg1
(g2
(S'S4'
p3594
I0
I1
tp3595
Rp3596
(I3
S'|'
p3597
NNNI4
I1
I0
tp3598
bS'MMKB'
p3599
tp3600
Rp3601
(F25.472321
F85.827881
tp3602
sg1
(g2
(S'S3'
p3603
I0
I1
tp3604
Rp3605
(I3
S'|'
p3606
NNNI3
I1
I0
tp3607
bS'ARJ'
p3608
tp3609
Rp3610
(F25.5450383
F83.1875079
tp3611
sg1
(g2
(S'S3'
p3612
I0
I1
tp3613
Rp3614
(I3
S'|'
p3615
NNNI3
I1
I0
tp3616
bS'NRO'
p3617
tp3618
Rp3619
(F28.5713761
F77.1843244
tp3620
sg1
(g2
(S'S3'
p3621
I0
I1
tp3622
Rp3623
(I3
S'|'
p3624
NNNI3
I1
I0
tp3625
bS'JPL'
p3626
tp3627
Rp3628
(F28.6415494
F77.22081229999999
tp3629
sg1
(g2
(S'S3'
p3630
I0
I1
tp3631
Rp3632
(I3
S'|'
p3633
NNNI3
I1
I0
tp3634
bS'NRM'
p3635
tp3636
Rp3637
(F12.8464158
F80.0614296
tp3638
sg1
(g2
(S'S4'
p3639
I0
I1
tp3640
Rp3641
(I3
S'|'
p3642
NNNI4
I1
I0
tp3643
bS'MFKA'
p3644
tp3645
Rp3646
(F26.379406
F81.7996328
tp3647
sg1
(g2
(S'S3'
p3648
I0
I1
tp3649
Rp3650
(I3
S'|'
p3651
NNNI3
I1
I0
tp3652
bS'JPE'
p3653
tp3654
Rp3655
(F26.5591635
F88.7091671
tp3656
sg1
(g2
(S'S4'
p3657
I0
I1
tp3658
Rp3659
(I3
S'|'
p3660
NNNI4
I1
I0
tp3661
bS'PTKC'
p3662
tp3663
Rp3664
(F32.2590872
F75.6361153
tp3665
sg1
(g2
(S'S3'
p3666
I0
I1
tp3667
Rp3668
(I3
S'|'
p3669
NNNI3
I1
I0
tp3670
bS'BHW'
p3671
tp3672
Rp3673
(F24.8578739
F87.7746422
tp3674
sg1
(g2
(S'S3'
p3675
I0
I1
tp3676
Rp3677
(I3
S'|'
p3678
NNNI3
I1
I0
tp3679
bS'NRS'
p3680
tp3681
Rp3682
(F17.4965385
F78.3730226
tp3683
sg1
(g2
(S'S3'
p3684
I0
I1
tp3685
Rp3686
(I3
S'|'
p3687
NNNI3
I1
I0
tp3688
bS'WKR'
p3689
tp3690
Rp3691
(F22.6217498
F70.9651751
tp3692
sg1
(g2
(S'S3'
p3693
I0
I1
tp3694
Rp3695
(I3
S'|'
p3696
NNNI3
I1
I0
tp3697
bS'NRW'
p3698
tp3699
Rp3700
(F28.6415494
F77.22081229999999
tp3701
sg1
(g2
(S'S3'
p3702
I0
I1
tp3703
Rp3704
(I3
S'|'
p3705
NNNI3
I1
I0
tp3706
bS'DZA'
p3707
tp3708
Rp3709
(F31.691983
F75.5636282
tp3710
sg1
(g2
(S'S3'
p3711
I0
I1
tp3712
Rp3713
(I3
S'|'
p3714
NNNI3
I1
I0
tp3715
bS'PAR'
p3716
tp3717
Rp3718
(F28.6415494
F77.22081229999999
tp3719
sg1
(g2
(S'S3'
p3720
I0
I1
tp3721
Rp3722
(I3
S'|'
p3723
NNNI3
I1
I0
tp3724
bS'BOY'
p3725
tp3726
Rp3727
(F10.6076544
F78.4184032
tp3728
sg1
(g2
(S'S2'
p3729
I0
I1
tp3730
Rp3731
(I3
S'|'
p3732
NNNI2
I1
I0
tp3733
bS'JU'
p3734
tp3735
Rp3736
(F26.0200167
F76.35598300000001
tp3737
sg1
(g2
(S'S2'
p3738
I0
I1
tp3739
Rp3740
(I3
S'|'
p3741
NNNI2
I1
I0
tp3742
bS'ET'
p3743
tp3744
Rp3745
(F22.6082196
F77.7670225
tp3746
sg1
(g2
(S'S2'
p3747
I0
I1
tp3748
Rp3749
(I3
S'|'
p3750
NNNI2
I1
I0
tp3751
bS'WL'
p3752
tp3753
Rp3754
(F17.973252
F79.60570799999999
tp3755
sg1
(g2
(S'S2'
p3756
I0
I1
tp3757
Rp3758
(I3
S'|'
p3759
NNNI2
I1
I0
tp3760
bS'JP'
p3761
tp3762
Rp3763
(F26.919152
F75.7888893
tp3764
sg1
(g2
(S'S2'
p3765
I0
I1
tp3766
Rp3767
(I3
S'|'
p3768
NNNI2
I1
I0
tp3769
bS'JL'
p3770
tp3771
Rp3772
(F21.0182435
F75.5629677
tp3773
sg1
(g2
(S'S3'
p3774
I0
I1
tp3775
Rp3776
(I3
S'|'
p3777
NNNI3
I1
I0
tp3778
bS'BGS'
p3779
tp3780
Rp3781
(F25.4249231
F86.1340421
tp3782
sg1
(g2
(S'S4'
p3783
I0
I1
tp3784
Rp3785
(I3
S'|'
p3786
NNNI4
I1
I0
tp3787
bS'WAIR'
p3788
tp3789
Rp3790
(F28.3493906
F77.6984542
tp3791
sg1
(g2
(S'S4'
p3792
I0
I1
tp3793
Rp3794
(I3
S'|'
p3795
NNNI4
I1
I0
tp3796
bS'BARH'
p3797
tp3798
Rp3799
(F25.461924
F85.709109
tp3800
sg1
(g2
(S'S3'
p3801
I0
I1
tp3802
Rp3803
(I3
S'|'
p3804
NNNI3
I1
I0
tp3805
bS'BGZ'
p3806
tp3807
Rp3808
(F28.5889188
F77.2534726
tp3809
sg1
(g2
(S'S3'
p3810
I0
I1
tp3811
Rp3812
(I3
S'|'
p3813
NNNI3
I1
I0
tp3814
bS'PAN'
p3815
tp3816
Rp3817
(F19.0654731
F73.0023985
tp3818
sg1
(g2
(S'S3'
p3819
I0
I1
tp3820
Rp3821
(I3
S'|'
p3822
NNNI3
I1
I0
tp3823
bS'HSA'
p3824
tp3825
Rp3826
(F26.7269272
F89.34717739999999
tp3827
sg1
(g2
(S'S3'
p3828
I0
I1
tp3829
Rp3830
(I3
S'|'
p3831
NNNI3
I1
I0
tp3832
bS'KQU'
p3833
tp3834
Rp3835
(F22.8210515
F88.2032773
tp3836
sg1
(g2
(S'S4'
p3837
I0
I1
tp3838
Rp3839
(I3
S'|'
p3840
NNNI4
I1
I0
tp3841
bS'WENA'
p3842
tp3843
Rp3844
(F25.326323
F85.5321
tp3845
sg1
(g2
(S'S3'
p3846
I0
I1
tp3847
Rp3848
(I3
S'|'
p3849
NNNI3
I1
I0
tp3850
bS'MQS'
p3851
tp3852
Rp3853
(F31.1099769
F75.3545175
tp3854
sg1
(g2
(S'S3'
p3855
I0
I1
tp3856
Rp3857
(I3
S'|'
p3858
NNNI3
I1
I0
tp3859
bS'KNN'
p3860
tp3861
Rp3862
(F30.7082509
F76.2244955
tp3863
sg1
(g2
(S'S3'
p3864
I0
I1
tp3865
Rp3866
(I3
S'|'
p3867
NNNI3
I1
I0
tp3868
bS'BNZ'
p3869
tp3870
Rp3871
(F26.869313
F80.96098090000001
tp3872
sg1
(g2
(S'S3'
p3873
I0
I1
tp3874
Rp3875
(I3
S'|'
p3876
NNNI3
I1
I0
tp3877
bS'HAN'
p3878
tp3879
Rp3880
(F26.7557681
F77.0314611
tp3881
sg1
(g2
(S'S3'
p3882
I0
I1
tp3883
Rp3884
(I3
S'|'
p3885
NNNI3
I1
I0
tp3886
bS'KNF'
p3887
tp3888
Rp3889
(F28.6415494
F77.22081229999999
tp3890
sg1
(g2
(S'S4'
p3891
I0
I1
tp3892
Rp3893
(I3
S'|'
p3894
NNNI4
I1
I0
tp3895
bS'BDNP'
p3896
tp3897
Rp3898
(F28.619549
F77.05321699999999
tp3899
sg1
(g2
(S'S4'
p3900
I0
I1
tp3901
Rp3902
(I3
S'|'
p3903
NNNI4
I1
I0
tp3904
bS'SGNR'
p3905
tp3906
Rp3907
(F29.9321924
F73.87187949999999
tp3908
sg1
(g2
(S'S3'
p3909
I0
I1
tp3910
Rp3911
(I3
S'|'
p3912
NNNI3
I1
I0
tp3913
bS'KNE'
p3914
tp3915
Rp3916
(F26.0981403
F87.94980580000001
tp3917
sg1
(g2
(S'S3'
p3918
I0
I1
tp3919
Rp3920
(I3
S'|'
p3921
NNNI3
I1
I0
tp3922
bS'BNV'
p3923
tp3924
Rp3925
(F26.7471764
F89.0537911
tp3926
sg1
(g2
(S'S3'
p3927
I0
I1
tp3928
Rp3929
(I3
S'|'
p3930
NNNI3
I1
I0
tp3931
bS'BNT'
p3932
tp3933
Rp3934
(F26.632223
F79.554192
tp3935
sg1
(g2
(S'S4'
p3936
I0
I1
tp3937
Rp3938
(I3
S'|'
p3939
NNNI4
I1
I0
tp3940
bS'BNDA'
p3941
tp3942
Rp3943
(F27.1542838
F81.977077
tp3944
sg1
(g2
(S'S3'
p3945
I0
I1
tp3946
Rp3947
(I3
S'|'
p3948
NNNI3
I1
I0
tp3949
bS'UJN'
p3950
tp3951
Rp3952
(F26.0200167
F76.35598300000001
tp3953
sg1
(g2
(S'S3'
p3954
I0
I1
tp3955
Rp3956
(I3
S'|'
p3957
NNNI3
I1
I0
tp3958
bS'DQG'
p3959
tp3960
Rp3961
(F26.5741594
F88.99381319999999
tp3962
sg1
(g2
(S'S3'
p3963
I0
I1
tp3964
Rp3965
(I3
S'|'
p3966
NNNI3
I1
I0
tp3967
bS'DAR'
p3968
tp3969
Rp3970
(F23.2593948
F77.41062
tp3971
sg1
(g2
(S'S3'
p3972
I0
I1
tp3973
Rp3974
(I3
S'|'
p3975
NNNI3
I1
I0
tp3976
bS'BNC'
p3977
tp3978
Rp3979
(F12.9936898
F77.5981422
tp3980
sg1
(g2
(S'S3'
p3981
I0
I1
tp3982
Rp3983
(I3
S'|'
p3984
NNNI3
I1
I0
tp3985
bS'KNW'
p3986
tp3987
Rp3988
(F26.0200167
F76.35598300000001
tp3989
sg1
(g2
(S'S3'
p3990
I0
I1
tp3991
Rp3992
(I3
S'|'
p3993
NNNI3
I1
I0
tp3994
bS'THE'
p3995
tp3996
Rp3997
(F26.0200167
F76.35598300000001
tp3998
sg1
(g2
(S'S3'
p3999
I0
I1
tp4000
Rp4001
(I3
S'|'
p4002
NNNI3
I1
I0
tp4003
bS'THB'
p4004
tp4005
Rp4006
(F25.3933828
F86.93552799999999
tp4007
sg1
(g2
(S'S3'
p4008
I0
I1
tp4009
Rp4010
(I3
S'|'
p4011
NNNI3
I1
I0
tp4012
bS'PHK'
p4013
tp4014
Rp4015
(F25.6033028
F85.137137
tp4016
sg1
(g2
(S'S3'
p4017
I0
I1
tp4018
Rp4019
(I3
S'|'
p4020
NNNI3
I1
I0
tp4021
bS'MZP'
p4022
tp4023
Rp4024
(F25.1350292
F82.5691155
tp4025
sg1
(g2
(S'S3'
p4026
I0
I1
tp4027
Rp4028
(I3
S'|'
p4029
NNNI3
I1
I0
tp4030
bS'HJP'
p4031
tp4032
Rp4033
(F25.7021728
F85.2155034
tp4034
sg1
(g2
(S'S3'
p4035
I0
I1
tp4036
Rp4037
(I3
S'|'
p4038
NNNI3
I1
I0
tp4039
bS'SYJ'
p4040
tp4041
Rp4042
(F25.2534096
F83.3504542
tp4043
sg1
(g2
(S'S3'
p4044
I0
I1
tp4045
Rp4046
(I3
S'|'
p4047
NNNI3
I1
I0
tp4048
bS'PHA'
p4049
tp4050
Rp4051
(F13.029089
F77.61058969999999
tp4052
sg1
(g2
(S'S4'
p4053
I0
I1
tp4054
Rp4055
(I3
S'|'
p4056
NNNI4
I1
I0
tp4057
bS'PLCJ'
p4058
tp4059
Rp4060
(F27.1256733
F72.3666313
tp4061
sg1
(g2
(S'S3'
p4062
I0
I1
tp4063
Rp4064
(I3
S'|'
p4065
NNNI3
I1
I0
tp4066
bS'PHD'
p4067
tp4068
Rp4069
(F26.632223
F79.554192
tp4070
sg1
(g2
(S'S3'
p4071
I0
I1
tp4072
Rp4073
(I3
S'|'
p4074
NNNI3
I1
I0
tp4075
bS'MZC'
p4076
tp4077
Rp4078
(F25.2586802
F87.4979202
tp4079
sg1
(g2
(S'S3'
p4080
I0
I1
tp4081
Rp4082
(I3
S'|'
p4083
NNNI3
I1
I0
tp4084
bS'PHR'
p4085
tp4086
Rp4087
(F31.0169691
F75.7859295
tp4088
sg1
(g2
(S'S3'
p4089
I0
I1
tp4090
Rp4091
(I3
S'|'
p4092
NNNI3
I1
I0
tp4093
bS'HJI'
p4094
tp4095
Rp4096
(F18.982747
F72.8089648
tp4097
sg1
(g2
(S'S4'
p4098
I0
I1
tp4099
Rp4100
(I3
S'|'
p4101
NNNI4
I1
I0
tp4102
bS'ANAH'
p4103
tp4104
Rp4105
(F33.8035492
F-117.8774523
tp4106
sg1
(g2
(S'S4'
p4107
I0
I1
tp4108
Rp4109
(I3
S'|'
p4110
NNNI4
I1
I0
tp4111
bS'DNWH'
p4112
tp4113
Rp4114
(F25.4348994
F85.2890787
tp4115
sg1
(g2
(S'S3'
p4116
I0
I1
tp4117
Rp4118
(I3
S'|'
p4119
NNNI3
I1
I0
tp4120
bS'CRR'
p4121
tp4122
Rp4123
(F22.5673321
F88.3708625
tp4124
sg1
(g2
(S'S3'
p4125
I0
I1
tp4126
Rp4127
(I3
S'|'
p4128
NNNI3
I1
I0
tp4129
bS'CRP'
p4130
tp4131
Rp4132
(F23.7554309
F86.1202781
tp4133
sg1
(g2
(S'S3'
p4134
I0
I1
tp4135
Rp4136
(I3
S'|'
p4137
NNNI3
I1
I0
tp4138
bS'FDB'
p4139
tp4140
Rp4141
(F28.410739
F77.30737979999999
tp4142
sg1
(g2
(S'S3'
p4143
I0
I1
tp4144
Rp4145
(I3
S'|'
p4146
NNNI3
I1
I0
tp4147
bS'SKQ'
p4148
tp4149
Rp4150
(F28.6415494
F77.22081229999999
tp4151
sg1
(g2
(S'S3'
p4152
I0
I1
tp4153
Rp4154
(I3
S'|'
p4155
NNNI3
I1
I0
tp4156
bS'CCK'
p4157
tp4158
Rp4159
(F30.9162372
F75.849299
tp4160
sg1
(g2
(S'S4'
p4161
I0
I1
tp4162
Rp4163
(I3
S'|'
p4164
NNNI4
I1
I0
tp4165
bS'SSNR'
p4166
tp4167
Rp4168
(F21.5596346
F84.0392487
tp4169
sg1
(g2
(S'S3'
p4170
I0
I1
tp4171
Rp4172
(I3
S'|'
p4173
NNNI3
I1
I0
tp4174
bS'DMO'
p4175
tp4176
Rp4177
(F23.8356344
F79.4318065
tp4178
sg1
(g2
(S'S2'
p4179
I0
I1
tp4180
Rp4181
(I3
S'|'
p4182
NNNI2
I1
I0
tp4183
bS'ST'
p4184
tp4185
Rp4186
(F11.0701752
F79.5577615
tp4187
sg1
(g2
(S'S3'
p4188
I0
I1
tp4189
Rp4190
(I3
S'|'
p4191
NNNI3
I1
I0
tp4192
bS'RGD'
p4193
tp4194
Rp4195
(F25.0329651
F85.4152064
tp4196
sg1
(g2
(S'S3'
p4197
I0
I1
tp4198
Rp4199
(I3
S'|'
p4200
NNNI3
I1
I0
tp4201
bS'DMV'
p4202
tp4203
Rp4204
(F25.905961
F93.72825000000002
tp4205
sg1
(g2
(S'S3'
p4206
I0
I1
tp4207
Rp4208
(I3
S'|'
p4209
NNNI3
I1
I0
tp4210
bS'SKB'
p4211
tp4212
Rp4213
(F27.0862449
F78.5755779
tp4214
sg1
(g2
(S'S3'
p4215
I0
I1
tp4216
Rp4217
(I3
S'|'
p4218
NNNI3
I1
I0
tp4219
bS'CRJ'
p4220
tp4221
Rp4222
(F23.8570915
F86.8786241
tp4223
sg1
(g2
(S'S3'
p4224
I0
I1
tp4225
Rp4226
(I3
S'|'
p4227
NNNI3
I1
I0
tp4228
bS'RGJ'
p4229
tp4230
Rp4231
(F25.6189135
F88.1289862
tp4232
sg1
(g2
(S'S3'
p4233
I0
I1
tp4234
Rp4235
(I3
S'|'
p4236
NNNI3
I1
I0
tp4237
bS'SKN'
p4238
tp4239
Rp4240
(F26.7749002
F83.0554346
tp4241
sg1
(g2
(S'S3'
p4242
I0
I1
tp4243
Rp4244
(I3
S'|'
p4245
NNNI3
I1
I0
tp4246
bS'SKI'
p4247
tp4248
Rp4249
(F30.537562
F79.56422479999999
tp4250
sg1
(g2
(S'S3'
p4251
I0
I1
tp4252
Rp4253
(I3
S'|'
p4254
NNNI3
I1
I0
tp4255
bS'SKJ'
p4256
tp4257
Rp4258
(F11.5534413
F78.1365474
tp4259
sg1
(g2
(S'S3'
p4260
I0
I1
tp4261
Rp4262
(I3
S'|'
p4263
NNNI3
I1
I0
tp4264
bS'JUC'
p4265
tp4266
Rp4267
(F31.3311995
F75.590758
tp4268
sg1
(g2
(S'S3'
p4269
I0
I1
tp4270
Rp4271
(I3
S'|'
p4272
NNNI3
I1
I0
tp4273
bS'JUD'
p4274
tp4275
Rp4276
(F30.1173215
F77.28770159999999
tp4277
sg1
(g2
(S'S3'
p4278
I0
I1
tp4279
Rp4280
(I3
S'|'
p4281
NNNI3
I1
I0
tp4282
bS'BRN'
p4283
tp4284
Rp4285
(F27.3292991
F78.1919021
tp4286
sg1
(g2
(S'S3'
p4287
I0
I1
tp4288
Rp4289
(I3
S'|'
p4290
NNNI3
I1
I0
tp4291
bS'BUP'
p4292
tp4293
Rp4294
(F25.2809611
F86.5750108
tp4295
sg1
(g2
(S'S3'
p4296
I0
I1
tp4297
Rp4298
(I3
S'|'
p4299
NNNI3
I1
I0
tp4300
bS'LDH'
p4301
tp4302
Rp4303
(F30.91212689999999
F75.8482248
tp4304
sg1
(g2
(S'S3'
p4305
I0
I1
tp4306
Rp4307
(I3
S'|'
p4308
NNNI3
I1
I0
tp4309
bS'MGS'
p4310
tp4311
Rp4312
(F25.2784626
F83.1199829
tp4313
sg1
(g2
(S'S3'
p4314
I0
I1
tp4315
Rp4316
(I3
S'|'
p4317
NNNI3
I1
I0
tp4318
bS'BLT'
p4319
tp4320
Rp4321
(F25.830493
F72.247102
tp4322
sg1
(g2
(S'S4'
p4323
I0
I1
tp4324
Rp4325
(I3
S'|'
p4326
NNNI4
I1
I0
tp4327
bS'MALB'
p4328
tp4329
Rp4330
(F-37.8182711
F144.9670618
tp4331
sg1
(g2
(S'S4'
p4332
I0
I1
tp4333
Rp4334
(I3
S'|'
p4335
NNNI4
I1
I0
tp4336
bS'RNPR'
p4337
tp4338
Rp4339
(F22.3598247
F71.71715139999999
tp4340
sg1
(g2
(S'S4'
p4341
I0
I1
tp4342
Rp4343
(I3
S'|'
p4344
NNNI4
I1
I0
tp4345
bS'RDUM'
p4346
tp4347
Rp4348
(F25.6033028
F85.137137
tp4349
sg1
(g2
(S'S3'
p4350
I0
I1
tp4351
Rp4352
(I3
S'|'
p4353
NNNI3
I1
I0
tp4354
bS'LJN'
p4355
tp4356
Rp4357
(F26.8316998
F80.9191505
tp4358
sg1
(g2
(S'S3'
p4359
I0
I1
tp4360
Rp4361
(I3
S'|'
p4362
NNNI3
I1
I0
tp4363
bS'DND'
p4364
tp4365
Rp4366
(F30.3134362
F78.0335611
tp4367
sg1
(g2
(S'S3'
p4368
I0
I1
tp4369
Rp4370
(I3
S'|'
p4371
NNNI3
I1
I0
tp4372
bS'GKP'
p4373
tp4374
Rp4375
(F26.7595215
F83.3817547
tp4376
sg1
(g2
(S'S3'
p4377
I0
I1
tp4378
Rp4379
(I3
S'|'
p4380
NNNI3
I1
I0
tp4381
bS'MHA'
p4382
tp4383
Rp4384
(F27.7472626
F78.55552689999999
tp4385
sg1
(g2
(S'S3'
p4386
I0
I1
tp4387
Rp4388
(I3
S'|'
p4389
NNNI3
I1
I0
tp4390
bS'GKH'
p4391
tp4392
Rp4393
(F26.7595215
F83.3817547
tp4394
sg1
(g2
(S'S4'
p4395
I0
I1
tp4396
Rp4397
(I3
S'|'
p4398
NNNI4
I1
I0
tp4399
bS'CKDL'
p4400
tp4401
Rp4402
(F32.4793941
F75.30523029999999
tp4403
sg1
(g2
(S'S3'
p4404
I0
I1
tp4405
Rp4406
(I3
S'|'
p4407
NNNI3
I1
I0
tp4408
bS'DDL'
p4409
tp4410
Rp4411
(F30.91212689999999
F75.8482248
tp4412
sg1
(g2
(S'S3'
p4413
I0
I1
tp4414
Rp4415
(I3
S'|'
p4416
NNNI3
I1
I0
tp4417
bS'JGR'
p4418
tp4419
Rp4420
(F26.8731653
F78.8936894
tp4421
sg1
(g2
(S'S3'
p4422
I0
I1
tp4423
Rp4424
(I3
S'|'
p4425
NNNI3
I1
I0
tp4426
bS'MHQ'
p4427
tp4428
Rp4429
(F23.7473649
F86.2706003
tp4430
sg1
(g2
(S'S3'
p4431
I0
I1
tp4432
Rp4433
(I3
S'|'
p4434
NNNI3
I1
I0
tp4435
bS'MOZ'
p4436
tp4437
Rp4438
(F29.46988499999999
F77.70809369999999
tp4439
sg1
(g2
(S'S3'
p4440
I0
I1
tp4441
Rp4442
(I3
S'|'
p4443
NNNI3
I1
I0
tp4444
bS'ANG'
p4445
tp4446
Rp4447
(F18.9352065
F72.82706019999999
tp4448
sg1
(g2
(S'S3'
p4449
I0
I1
tp4450
Rp4451
(I3
S'|'
p4452
NNNI3
I1
I0
tp4453
bS'JLS'
p4454
tp4455
Rp4456
(F27.4459595
F78.1701595
tp4457
sg1
(g2
(S'S3'
p4458
I0
I1
tp4459
Rp4460
(I3
S'|'
p4461
NNNI3
I1
I0
tp4462
bS'PSB'
p4463
tp4464
Rp4465
(F22.5838698
F88.34328529999999
tp4466
sg1
(g2
(S'S3'
p4467
I0
I1
tp4468
Rp4469
(I3
S'|'
p4470
NNNI3
I1
I0
tp4471
bS'MOR'
p4472
tp4473
Rp4474
(F22.9569253
F88.3982545
tp4475
sg1
(g2
(S'S4'
p4476
I0
I1
tp4477
Rp4478
(I3
S'|'
p4479
NNNI4
I1
I0
tp4480
bS'ACND'
p4481
tp4482
Rp4483
(F26.7753689
F82.1576801
tp4484
sg1
(g2
(S'S3'
p4485
I0
I1
tp4486
Rp4487
(I3
S'|'
p4488
NNNI3
I1
I0
tp4489
bS'RAA'
p4490
tp4491
Rp4492
(F28.6415494
F77.22081229999999
tp4493
sg1
(g2
(S'S3'
p4494
I0
I1
tp4495
Rp4496
(I3
S'|'
p4497
NNNI3
I1
I0
tp4498
bS'ANH'
p4499
tp4500
Rp4501
(F22.5673321
F88.3708625
tp4502
sg1
(g2
(S'S3'
p4503
I0
I1
tp4504
Rp4505
(I3
S'|'
p4506
NNNI3
I1
I0
tp4507
bS'MOT'
p4508
tp4509
Rp4510
(F28.6415494
F77.22081229999999
tp4511
sg1
(g2
(S'S3'
p4512
I0
I1
tp4513
Rp4514
(I3
S'|'
p4515
NNNI3
I1
I0
tp4516
bS'RNY'
p4517
tp4518
Rp4519
(F26.4472785
F91.6064099
tp4520
sg1
(g2
(S'S4'
p4521
I0
I1
tp4522
Rp4523
(I3
S'|'
p4524
NNNI4
I1
I0
tp4525
bS'CKTD'
p4526
tp4527
Rp4528
(F25.2175018
F80.9225651
tp4529
sg1
(g2
(S'S3'
p4530
I0
I1
tp4531
Rp4532
(I3
S'|'
p4533
NNNI3
I1
I0
tp4534
bS'PSR'
p4535
tp4536
Rp4537
(F25.4036867
F86.7440732
tp4538
sg1
(g2
(S'S3'
p4539
I0
I1
tp4540
Rp4541
(I3
S'|'
p4542
NNNI3
I1
I0
tp4543
bS'JLL'
p4544
tp4545
Rp4546
(F25.6118951
F82.7725849
tp4547
sg1
(g2
(S'S4'
p4548
I0
I1
tp4549
Rp4550
(I3
S'|'
p4551
NNNI4
I1
I0
tp4552
bS'GDYA'
p4553
tp4554
Rp4555
(F22.125763
F78.002493
tp4556
sg1
(g2
(S'S3'
p4557
I0
I1
tp4558
Rp4559
(I3
S'|'
p4560
NNNI3
I1
I0
tp4561
bS'DDN'
p4562
tp4563
Rp4564
(F30.3134362
F78.0335611
tp4565
sg1
(g2
(S'S3'
p4566
I0
I1
tp4567
Rp4568
(I3
S'|'
p4569
NNNI3
I1
I0
tp4570
bS'DVL'
p4571
tp4572
Rp4573
(F19.897031
F73.836749
tp4574
sg1
(g2
(S'S3'
p4575
I0
I1
tp4576
Rp4577
(I3
S'|'
p4578
NNNI3
I1
I0
tp4579
bS'BCN'
p4580
tp4581
Rp4582
(F28.5713761
F77.1843244
tp4583
sg1
(g2
(S'S3'
p4584
I0
I1
tp4585
Rp4586
(I3
S'|'
p4587
NNNI3
I1
I0
tp4588
bS'BKG'
p4589
tp4590
Rp4591
(F25.5469188
F85.2737594
tp4592
sg1
(g2
(S'S3'
p4593
I0
I1
tp4594
Rp4595
(I3
S'|'
p4596
NNNI3
I1
I0
tp4597
bS'ETW'
p4598
tp4599
Rp4600
(F26.7867243
F79.0214195
tp4601
sg1
(g2
(S'S3'
p4602
I0
I1
tp4603
Rp4604
(I3
S'|'
p4605
NNNI3
I1
I0
tp4606
bS'HNG'
p4607
tp4608
Rp4609
(F27.1766701
F78.00807449999999
tp4610
sg1
(g2
(S'S3'
p4611
I0
I1
tp4612
Rp4613
(I3
S'|'
p4614
NNNI3
I1
I0
tp4615
bS'GWL'
p4616
tp4617
Rp4618
(F26.2159557
F78.18191499999999
tp4619
sg1
(g2
(S'S3'
p4620
I0
I1
tp4621
Rp4622
(I3
S'|'
p4623
NNNI3
I1
I0
tp4624
bS'TMZ'
p4625
tp4626
Rp4627
(F22.5834126
F88.3429024
tp4628
sg1
(g2
(S'S3'
p4629
I0
I1
tp4630
Rp4631
(I3
S'|'
p4632
NNNI3
I1
I0
tp4633
bS'PES'
p4634
tp4635
Rp4636
(F16.5049621
F80.6345254
tp4637
sg1
(g2
(S'S3'
p4638
I0
I1
tp4639
Rp4640
(I3
S'|'
p4641
NNNI3
I1
I0
tp4642
bS'KMS'
p4643
tp4644
Rp4645
(F12.7842527
F78.7214753
tp4646
sg1
(g2
(S'S3'
p4647
I0
I1
tp4648
Rp4649
(I3
S'|'
p4650
NNNI3
I1
I0
tp4651
bS'CUR'
p4652
tp4653
Rp4654
(F28.2888157
F74.9663668
tp4655
sg1
(g2
(S'S3'
p4656
I0
I1
tp4657
Rp4658
(I3
S'|'
p4659
NNNI3
I1
I0
tp4660
bS'UMB'
p4661
tp4662
Rp4663
(F30.3377219
F76.828023
tp4664
sg1
(g2
(S'S3'
p4665
I0
I1
tp4666
Rp4667
(I3
S'|'
p4668
NNNI3
I1
I0
tp4669
bS'COI'
p4670
tp4671
Rp4672
(F10.9963653
F76.96722179999999
tp4673
sg1
(g2
(S'S4'
p4674
I0
I1
tp4675
Rp4676
(I3
S'|'
p4677
NNNI4
I1
I0
tp4678
bS'KMBL'
p4679
tp4680
Rp4681
(F23.4121859
F85.2295989
tp4682
sg1
(g2
(S'S3'
p4683
I0
I1
tp4684
Rp4685
(I3
S'|'
p4686
NNNI3
I1
I0
tp4687
bS'PMR'
p4688
tp4689
Rp4690
(F28.2000966
F79.5382451
tp4691
sg1
(g2
(S'S3'
p4692
I0
I1
tp4693
Rp4694
(I3
S'|'
p4695
NNNI3
I1
I0
tp4696
bS'MSZ'
p4697
tp4698
Rp4699
(F29.9878461
F75.405018
tp4700
sg1
(g2
(S'S3'
p4701
I0
I1
tp4702
Rp4703
(I3
S'|'
p4704
NNNI3
I1
I0
tp4705
bS'ZBD'
p4706
tp4707
Rp4708
(F18.9352065
F72.82706019999999
tp4709
sg1
(g2
(S'S4'
p4710
I0
I1
tp4711
Rp4712
(I3
S'|'
p4713
NNNI4
I1
I0
tp4714
bS'ANDI'
p4715
tp4716
Rp4717
(F28.71649859999999
F77.1705052
tp4718
sg1
(g2
(S'S3'
p4719
I0
I1
tp4720
Rp4721
(I3
S'|'
p4722
NNNI3
I1
I0
tp4723
bS'HWH'
p4724
tp4725
Rp4726
(F22.5834126
F88.3429024
tp4727
sg1
(g2
(S'S4'
p4728
I0
I1
tp4729
Rp4730
(I3
S'|'
p4731
NNNI4
I1
I0
tp4732
bS'DBRG'
p4733
tp4734
Rp4735
(F27.4643753
F94.9365535
tp4736
sg1
(g2
(S'S4'
p4737
I0
I1
tp4738
Rp4739
(I3
S'|'
p4740
NNNI4
I1
I0
tp4741
bS'TORI'
p4742
tp4743
Rp4744
(F23.681574
F84.7399617
tp4745
sg1
(g2
(S'S4'
p4746
I0
I1
tp4747
Rp4748
(I3
S'|'
p4749
NNNI4
I1
I0
tp4750
bS'KKDE'
p4751
tp4752
Rp4753
(F29.969467
F76.8519728
tp4754
sg1
(g2
(S'S3'
p4755
I0
I1
tp4756
Rp4757
(I3
S'|'
p4758
NNNI3
I1
I0
tp4759
bS'NJP'
p4760
tp4761
Rp4762
(F26.6842567
F88.4428015
tp4763
sg1
(g2
(S'S2'
p4764
I0
I1
tp4765
Rp4766
(I3
S'|'
p4767
NNNI2
I1
I0
tp4768
bS'DG'
p4769
tp4770
Rp4771
(F10.353943
F77.98608399999999
tp4772
sg1
(g2
(S'S4'
p4773
I0
I1
tp4774
Rp4775
(I3
S'|'
p4776
NNNI4
I1
I0
tp4777
bS'DBRT'
p4778
tp4779
Rp4780
(F27.4643753
F94.9365535
tp4781
sg1
(g2
(S'S3'
p4782
I0
I1
tp4783
Rp4784
(I3
S'|'
p4785
NNNI3
I1
I0
tp4786
bS'VRI'
p4787
tp4788
Rp4789
(F11.5350915
F79.3160998
tp4790
sg1
(g2
(S'S2'
p4791
I0
I1
tp4792
Rp4793
(I3
S'|'
p4794
NNNI2
I1
I0
tp4795
bS'CH'
p4796
tp4797
Rp4798
(F18.9916151
F73.1220504
tp4799
sg1
(g2
(S'S3'
p4800
I0
I1
tp4801
Rp4802
(I3
S'|'
p4803
NNNI3
I1
I0
tp4804
bS'SRE'
p4805
tp4806
Rp4807
(F29.9615391
F77.54044490000001
tp4808
sg1
(g2
(S'S3'
p4809
I0
I1
tp4810
Rp4811
(I3
S'|'
p4812
NNNI3
I1
I0
tp4813
bS'SRJ'
p4814
tp4815
Rp4816
(F21.1490922
F72.8802595
tp4817
sg1
(g2
(S'S3'
p4818
I0
I1
tp4819
Rp4820
(I3
S'|'
p4821
NNNI3
I1
I0
tp4822
bS'FZR'
p4823
tp4824
Rp4825
(F30.941816
F74.6175556
tp4826
sg1
(g2
(S'S3'
p4827
I0
I1
tp4828
Rp4829
(I3
S'|'
p4830
NNNI3
I1
I0
tp4831
bS'SRI'
p4832
tp4833
Rp4834
(F28.0735075
F74.0065213
tp4835
sg1
(g2
(S'S3'
p4836
I0
I1
tp4837
Rp4838
(I3
S'|'
p4839
NNNI3
I1
I0
tp4840
bS'SRO'
p4841
tp4842
Rp4843
(F25.6488573
F81.3201122
tp4844
sg1
(g2
(S'S2'
p4845
I0
I1
tp4846
Rp4847
(I3
S'|'
p4848
NNNI2
I1
I0
tp4849
bS'CD'
p4850
tp4851
Rp4852
(F19.9603051
F79.3001115
tp4853
sg1
(g2
(S'S3'
p4854
I0
I1
tp4855
Rp4856
(I3
S'|'
p4857
NNNI3
I1
I0
tp4858
bS'KRJ'
p4859
tp4860
Rp4861
(F28.2063803
F77.81931139999999
tp4862
sg1
(g2
(S'S3'
p4863
I0
I1
tp4864
Rp4865
(I3
S'|'
p4866
NNNI3
I1
I0
tp4867
bS'MYA'
p4868
tp4869
Rp4870
(F22.7162543
F75.8689565
tp4871
sg1
(g2
(S'S3'
p4872
I0
I1
tp4873
Rp4874
(I3
S'|'
p4875
NNNI3
I1
I0
tp4876
bS'SRP'
p4877
tp4878
Rp4879
(F22.7540321
F88.3385552
tp4880
sg1
(g2
(S'S3'
p4881
I0
I1
tp4882
Rp4883
(I3
S'|'
p4884
NNNI3
I1
I0
tp4885
bS'SRT'
p4886
tp4887
Rp4888
(F9.3584526
F77.9218008
tp4889
sg1
(g2
(S'S3'
p4890
I0
I1
tp4891
Rp4892
(I3
S'|'
p4893
NNNI3
I1
I0
tp4894
bS'UDL'
p4895
tp4896
Rp4897
(F23.5789648
F87.18158799999999
tp4898
sg1
(g2
(S'S3'
p4899
I0
I1
tp4900
Rp4901
(I3
S'|'
p4902
NNNI3
I1
I0
tp4903
bS'KRE'
p4904
tp4905
Rp4906
(F12.9968765
F77.7625915
tp4907
sg1
(g2
(S'S4'
p4908
I0
I1
tp4909
Rp4910
(I3
S'|'
p4911
NNNI4
I1
I0
tp4912
bS'BDME'
p4913
tp4914
Rp4915
(F24.4892223
F86.6920301
tp4916
sg1
(g2
(S'S3'
p4917
I0
I1
tp4918
Rp4919
(I3
S'|'
p4920
NNNI3
I1
I0
tp4921
bS'BJF'
p4922
tp4923
Rp4924
(F26.5741594
F88.99381319999999
tp4925
sg1
(g2
(S'S3'
p4926
I0
I1
tp4927
Rp4928
(I3
S'|'
p4929
NNNI3
I1
I0
tp4930
bS'BJE'
p4931
tp4932
Rp4933
(F23.642055
F86.44687929999999
tp4934
sg1
(g2
(S'S3'
p4935
I0
I1
tp4936
Rp4937
(I3
S'|'
p4938
NNNI3
I1
I0
tp4939
bS'CDG'
p4940
tp4941
Rp4942
(F30.7022191
F76.82247009999999
tp4943
sg1
(g2
(S'S3'
p4944
I0
I1
tp4945
Rp4946
(I3
S'|'
p4947
NNNI3
I1
I0
tp4948
bS'TDO'
p4949
tp4950
Rp4951
(F31.6726244
F75.6376089
tp4952
sg1
(g2
(S'S3'
p4953
I0
I1
tp4954
Rp4955
(I3
S'|'
p4956
NNNI3
I1
I0
tp4957
bS'TDL'
p4958
tp4959
Rp4960
(F27.2079996
F78.2332144
tp4961
sg1
(g2
(S'S3'
p4962
I0
I1
tp4963
Rp4964
(I3
S'|'
p4965
NNNI3
I1
I0
tp4966
bS'RUB'
p4967
tp4968
Rp4969
(F25.8267992
F80.9769979
tp4970
sg1
(g2
(S'S3'
p4971
I0
I1
tp4972
Rp4973
(I3
S'|'
p4974
NNNI3
I1
I0
tp4975
bS'NOK'
p4976
tp4977
Rp4978
(F27.5546178
F73.4761683
tp4979
sg1
(g2
(S'S3'
p4980
I0
I1
tp4981
Rp4982
(I3
S'|'
p4983
NNNI3
I1
I0
tp4984
bS'NMZ'
p4985
tp4986
Rp4987
(F26.8739565
F88.7256797
tp4988
sg1
(g2
(S'S3'
p4989
I0
I1
tp4990
Rp4991
(I3
S'|'
p4992
NNNI3
I1
I0
tp4993
bS'PKU'
p4994
tp4995
Rp4996
(F22.3931723
F87.7426534
tp4997
sg1
(g2
(S'S3'
p4998
I0
I1
tp4999
Rp5000
(I3
S'|'
p5001
NNNI3
I1
I0
tp5002
bS'RNC'
p5003
tp5004
Rp5005
(F23.349473
F85.335656
tp5006
sg1
(g2
(S'S3'
p5007
I0
I1
tp5008
Rp5009
(I3
S'|'
p5010
NNNI3
I1
I0
tp5011
bS'BJU'
p5012
tp5013
Rp5014
(F25.4595668
F85.991275
tp5015
sg1
(g2
(S'S4'
p5016
I0
I1
tp5017
Rp5018
(I3
S'|'
p5019
NNNI4
I1
I0
tp5020
bS'RURA'
p5021
tp5022
Rp5023
(F26.0200167
F76.35598300000001
tp5024
sg1
(g2
(S'S2'
p5025
I0
I1
tp5026
Rp5027
(I3
S'|'
p5028
NNNI2
I1
I0
tp5029
bS'RK'
p5030
tp5031
Rp5032
(F22.718808
F75.8695207
tp5033
sg1
(g2
(S'S3'
p5034
I0
I1
tp5035
Rp5036
(I3
S'|'
p5037
NNNI3
I1
I0
tp5038
bS'MKB'
p5039
tp5040
Rp5041
(F25.2072321
F86.0565895
tp5042
sg1
(g2
(S'S3'
p5043
I0
I1
tp5044
Rp5045
(I3
S'|'
p5046
NNNI3
I1
I0
tp5047
bS'MKA'
p5048
tp5049
Rp5050
(F25.3921849
F85.91416339999999
tp5051
sg1
(g2
(S'S3'
p5052
I0
I1
tp5053
Rp5054
(I3
S'|'
p5055
NNNI3
I1
I0
tp5056
bS'GNU'
p5057
tp5058
Rp5059
(F29.1315615
F77.0110151
tp5060
sg1
(g2
(S'S3'
p5061
I0
I1
tp5062
Rp5063
(I3
S'|'
p5064
NNNI3
I1
I0
tp5065
bS'MKN'
p5066
tp5067
Rp5068
(F26.0200167
F76.35598300000001
tp5069
sg1
(g2
(S'S3'
p5070
I0
I1
tp5071
Rp5072
(I3
S'|'
p5073
NNNI3
I1
I0
tp5074
bS'BXR'
p5075
tp5076
Rp5077
(F25.5612101
F83.9810882
tp5078
sg1
(g2
(S'S3'
p5079
I0
I1
tp5080
Rp5081
(I3
S'|'
p5082
NNNI3
I1
I0
tp5083
bS'JHL'
p5084
tp5085
Rp5086
(F29.803548
F75.820931
tp5087
sg1
(g2
(S'S3'
p5088
I0
I1
tp5089
Rp5090
(I3
S'|'
p5091
NNNI3
I1
I0
tp5092
bS'CVP'
p5093
tp5094
Rp5095
(F28.5889188
F77.2534726
tp5096
sg1
(g2
(S'S4'
p5097
I0
I1
tp5098
Rp5099
(I3
S'|'
p5100
NNNI4
I1
I0
tp5101
bS'RPAR'
p5102
tp5103
Rp5104
(F30.9791349
F76.5307591
tp5105
sg1
(g2
(S'S3'
p5106
I0
I1
tp5107
Rp5108
(I3
S'|'
p5109
NNNI3
I1
I0
tp5110
bS'JHS'
p5111
tp5112
Rp5113
(F25.4452399
F78.5526603
tp5114
sg1
(g2
(S'S3'
p5115
I0
I1
tp5116
Rp5117
(I3
S'|'
p5118
NNNI3
I1
I0
tp5119
bS'BXJ'
p5120
tp5121
Rp5122
(F26.0193965
F93.7779715
tp5123
sg1
(g2
(S'S3'
p5124
I0
I1
tp5125
Rp5126
(I3
S'|'
p5127
NNNI3
I1
I0
tp5128
bS'AII'
p5129
tp5130
Rp5131
(F16.5049621
F80.6345254
tp5132
sg1
(g2
(S'S3'
p5133
I0
I1
tp5134
Rp5135
(I3
S'|'
p5136
NNNI3
I1
I0
tp5137
bS'GNG'
p5138
tp5139
Rp5140
(F13.1139737
F80.1534319
tp5141
sg1
(g2
(S'S3'
p5142
I0
I1
tp5143
Rp5144
(I3
S'|'
p5145
NNNI3
I1
I0
tp5146
bS'MKP'
p5147
tp5148
Rp5149
(F25.0638119
F81.0940878
tp5150
sg1
(g2
(S'S4'
p5151
I0
I1
tp5152
Rp5153
(I3
S'|'
p5154
NNNI4
I1
I0
tp5155
bS'SDGH'
p5156
tp5157
Rp5158
(F19.0355427
F73.0673329
tp5159
sg1
(g2
(S'S3'
p5160
I0
I1
tp5161
Rp5162
(I3
S'|'
p5163
NNNI3
I1
I0
tp5164
bS'MBM'
p5165
tp5166
Rp5167
(F13.0386757
F80.22791240000001
tp5168
sg1
(g2
(S'S4'
p5169
I0
I1
tp5170
Rp5171
(I3
S'|'
p5172
NNNI4
I1
I0
tp5173
bS'KMNC'
p5174
tp5175
Rp5176
(F27.0534527
F74.85127779999999
tp5177
sg1
(g2
(S'S3'
p5178
I0
I1
tp5179
Rp5180
(I3
S'|'
p5181
NNNI3
I1
I0
tp5182
bS'MBI'
p5183
tp5184
Rp5185
(F26.3488811
F86.07734649999999
tp5186
sg1
(g2
(S'S3'
p5187
I0
I1
tp5188
Rp5189
(I3
S'|'
p5190
NNNI3
I1
I0
tp5191
bS'PPI'
p5192
tp5193
Rp5194
(F22.7541312
F78.3546661
tp5195
sg1
(g2
(S'S3'
p5196
I0
I1
tp5197
Rp5198
(I3
S'|'
p5199
NNNI3
I1
I0
tp5200
bS'SOM'
p5201
tp5202
Rp5203
(F28.6415494
F77.22081229999999
tp5204
sg1
(g2
(S'S3'
p5205
I0
I1
tp5206
Rp5207
(I3
S'|'
p5208
NNNI3
I1
I0
tp5209
bS'MBA'
p5210
tp5211
Rp5212
(F25.3065764
F79.8481992
tp5213
sg1
(g2
(S'S3'
p5214
I0
I1
tp5215
Rp5216
(I3
S'|'
p5217
NNNI3
I1
I0
tp5218
bS'GAP'
p5219
tp5220
Rp5221
(F28.5789801
F77.2276287
tp5222
sg1
(g2
(S'S3'
p5223
I0
I1
tp5224
Rp5225
(I3
S'|'
p5226
NNNI3
I1
I0
tp5227
bS'SOP'
p5228
tp5229
Rp5230
(F26.182289
F91.75023399999999
tp5231
sg1
(g2
(S'S3'
p5232
I0
I1
tp5233
Rp5234
(I3
S'|'
p5235
NNNI3
I1
I0
tp5236
bS'PPT'
p5237
tp5238
Rp5239
(F22.5673321
F88.3708625
tp5240
sg1
(g2
(S'S3'
p5241
I0
I1
tp5242
Rp5243
(I3
S'|'
p5244
NNNI3
I1
I0
tp5245
bS'GAE'
p5246
tp5247
Rp5248
(F12.6847553
F74.9002735
tp5249
sg1
(g2
(S'S3'
p5250
I0
I1
tp5251
Rp5252
(I3
S'|'
p5253
NNNI3
I1
I0
tp5254
bS'JAT'
p5255
tp5256
Rp5257
(F32.7055231
F74.8806613
tp5258
sg1
(g2
(S'S3'
p5259
I0
I1
tp5260
Rp5261
(I3
S'|'
p5262
NNNI3
I1
I0
tp5263
bS'MXH'
p5264
tp5265
Rp5266
(F31.45580189999999
F74.9322943
tp5267
sg1
(g2
(S'S2'
p5268
I0
I1
tp5269
Rp5270
(I3
S'|'
p5271
NNNI2
I1
I0
tp5272
bS'VG'
p5273
tp5274
Rp5275
(F23.1378676
F72.0424503
tp5276
sg1
(g2
(S'S3'
p5277
I0
I1
tp5278
Rp5279
(I3
S'|'
p5280
NNNI3
I1
I0
tp5281
bS'HPP'
p5282
tp5283
Rp5284
(F28.6173883
F77.230002
tp5285
sg1
(g2
(S'S2'
p5286
I0
I1
tp5287
Rp5288
(I3
S'|'
p5289
NNNI2
I1
I0
tp5290
bS'VM'
p5291
tp5292
Rp5293
(F11.9426809
F79.4994348
tp5294
sg1
(g2
(S'S3'
p5295
I0
I1
tp5296
Rp5297
(I3
S'|'
p5298
NNNI3
I1
I0
tp5299
bS'SHG'
p5300
tp5301
Rp5302
(F26.061245
F82.67989
tp5303
sg1
(g2
(S'S4'
p5304
I0
I1
tp5305
Rp5306
(I3
S'|'
p5307
NNNI4
I1
I0
tp5308
bS'ADRA'
p5309
tp5310
Rp5311
(F23.4956723
F86.6744866
tp5312
sg1
(g2
(S'S3'
p5313
I0
I1
tp5314
Rp5315
(I3
S'|'
p5316
NNNI3
I1
I0
tp5317
bS'BFM'
p5318
tp5319
Rp5320
(F25.0356989
F86.1993997
tp5321
sg1
(g2
(S'S3'
p5322
I0
I1
tp5323
Rp5324
(I3
S'|'
p5325
NNNI3
I1
I0
tp5326
bS'MTC'
p5327
tp5328
Rp5329
(F28.9788255
F77.6749497
tp5330
sg1
(g2
(S'S3'
p5331
I0
I1
tp5332
Rp5333
(I3
S'|'
p5334
NNNI3
I1
I0
tp5335
bS'MTD'
p5336
tp5337
Rp5338
(F26.7277544
F73.9179036
tp5339
sg1
(g2
(S'S3'
p5340
I0
I1
tp5341
Rp5342
(I3
S'|'
p5343
NNNI3
I1
I0
tp5344
bS'RJT'
p5345
tp5346
Rp5347
(F22.3117482
F70.8027354
tp5348
sg1
(g2
(S'S3'
p5349
I0
I1
tp5350
Rp5351
(I3
S'|'
p5352
NNNI3
I1
I0
tp5353
bS'RJR'
p5354
tp5355
Rp5356
(F28.6628569
F77.18549399999999
tp5357
sg1
(g2
(S'S3'
p5358
I0
I1
tp5359
Rp5360
(I3
S'|'
p5361
NNNI3
I1
I0
tp5362
bS'ARW'
p5363
tp5364
Rp5365
(F25.2253307
F75.88950659999999
tp5366
sg1
(g2
(S'S3'
p5367
I0
I1
tp5368
Rp5369
(I3
S'|'
p5370
NNNI3
I1
I0
tp5371
bS'RJG'
p5372
tp5373
Rp5374
(F24.544924
F87.867656
tp5375
sg1
(g2
(S'S3'
p5376
I0
I1
tp5377
Rp5378
(I3
S'|'
p5379
NNNI3
I1
I0
tp5380
bS'SDE'
p5381
tp5382
Rp5383
(F25.5664165
F84.91723600000002
tp5384
sg1
(g2
(S'S4'
p5385
I0
I1
tp5386
Rp5387
(I3
S'|'
p5388
NNNI4
I1
I0
tp5389
bS'PNBE'
p5390
tp5391
Rp5392
(F25.6033028
F85.137137
tp5393
sg1
(g2
(S'S3'
p5394
I0
I1
tp5395
Rp5396
(I3
S'|'
p5397
NNNI3
I1
I0
tp5398
bS'JAJ'
p5399
tp5400
Rp5401
(F24.772899
F86.38613459999999
tp5402
sg1
(g2
(S'S4'
p5403
I0
I1
tp5404
Rp5405
(I3
S'|'
p5406
NNNI4
I1
I0
tp5407
bS'PURI'
p5408
tp5409
Rp5410
(F19.808768
F85.83934560000002
tp5411
sg1
(g2
(S'S3'
p5412
I0
I1
tp5413
Rp5414
(I3
S'|'
p5415
NNNI3
I1
I0
tp5416
bS'RJK'
p5417
tp5418
Rp5419
(F28.627699
F78.7797731
tp5420
sg1
(g2
(S'S3'
p5421
I0
I1
tp5422
Rp5423
(I3
S'|'
p5424
NNNI3
I1
I0
tp5425
bS'KQR'
p5426
tp5427
Rp5428
(F24.4348782
F85.52917839999999
tp5429
sg1
(g2
(S'S3'
p5430
I0
I1
tp5431
Rp5432
(I3
S'|'
p5433
NNNI3
I1
I0
tp5434
bS'POU'
p5435
tp5436
Rp5437
(F26.8976748
F83.98228
tp5438
sg1
(g2
(S'S3'
p5439
I0
I1
tp5440
Rp5441
(I3
S'|'
p5442
NNNI3
I1
I0
tp5443
bS'NAD'
p5444
tp5445
Rp5446
(F28.6415494
F77.22081229999999
tp5447
sg1
(g2
(S'S3'
p5448
I0
I1
tp5449
Rp5450
(I3
S'|'
p5451
NNNI3
I1
I0
tp5452
bS'HBJ'
p5453
tp5454
Rp5455
(F23.2219306
F77.4393863
tp5456
sg1
(g2
(S'S2'
p5457
I0
I1
tp5458
Rp5459
(I3
S'|'
p5460
NNNI2
I1
I0
tp5461
bS'BH'
p5462
tp5463
Rp5464
(F23.2677604
F77.4140013
tp5465
sg1
(g2
(S'S4'
p5466
I0
I1
tp5467
Rp5468
(I3
S'|'
p5469
NNNI4
I1
I0
tp5470
bS'YJUD'
p5471
tp5472
Rp5473
(F30.1173215
F77.28770159999999
tp5474
sg1
(g2
(S'S3'
p5475
I0
I1
tp5476
Rp5477
(I3
S'|'
p5478
NNNI3
I1
I0
tp5479
bS'DRH'
p5480
tp5481
Rp5482
(F22.5673321
F88.3708625
tp5483
sg1
(g2
(S'S3'
p5484
I0
I1
tp5485
Rp5486
(I3
S'|'
p5487
NNNI3
I1
I0
tp5488
bS'BOJ'
p5489
tp5490
Rp5491
(F27.0635627
F95.0322712
tp5492
sg1
(g2
(S'S3'
p5493
I0
I1
tp5494
Rp5495
(I3
S'|'
p5496
NNNI3
I1
I0
tp5497
bS'NAT'
p5498
tp5499
Rp5500
(F28.0821728
F80.4759655
tp5501
sg1
(g2
(S'S3'
p5502
I0
I1
tp5503
Rp5504
(I3
S'|'
p5505
NNNI3
I1
I0
tp5506
bS'VYN'
p5507
tp5508
Rp5509
(F26.0200167
F76.35598300000001
tp5510
sg1
(g2
(S'S3'
p5511
I0
I1
tp5512
Rp5513
(I3
S'|'
p5514
NNNI3
I1
I0
tp5515
bS'BOE'
p5516
tp5517
Rp5518
(F25.6511814
F87.9236743
tp5519
sg1
(g2
(S'S4'
p5520
I0
I1
tp5521
Rp5522
(I3
S'|'
p5523
NNNI4
I1
I0
tp5524
bS'NDLS'
p5525
tp5526
Rp5527
(F28.6415494
F77.22081229999999
tp5528
sg1
(g2
(S'S3'
p5529
I0
I1
tp5530
Rp5531
(I3
S'|'
p5532
NNNI3
I1
I0
tp5533
bS'NNO'
p5534
tp5535
Rp5536
(F29.9671582
F74.7024278
tp5537
sg1
(g2
(S'S3'
p5538
I0
I1
tp5539
Rp5540
(I3
S'|'
p5541
NNNI3
I1
I0
tp5542
bS'UHP'
p5543
tp5544
Rp5545
(F32.9262035
F75.1542645
tp5546
sg1
(g2
(S'S4'
p5547
I0
I1
tp5548
Rp5549
(I3
S'|'
p5550
NNNI4
I1
I0
tp5551
bS'PUNE'
p5552
tp5553
Rp5554
(F18.522066
F73.8658469
tp5555
sg1
(g2
(S'S3'
p5556
I0
I1
tp5557
Rp5558
(I3
S'|'
p5559
NNNI3
I1
I0
tp5560
bS'NXN'
p5561
tp5562
Rp5563
(F28.5713761
F77.1843244
tp5564
sg1
(g2
(S'S4'
p5565
I0
I1
tp5566
Rp5567
(I3
S'|'
p5568
NNNI4
I1
I0
tp5569
bS'HRPG'
p5570
tp5571
Rp5572
(F25.9472305
F82.4049792
tp5573
sg1
(g2
(S'S3'
p5574
I0
I1
tp5575
Rp5576
(I3
S'|'
p5577
NNNI3
I1
I0
tp5578
bS'MYS'
p5579
tp5580
Rp5581
(F12.3156938
F76.6454069
tp5582
sg1
(g2
(S'S3'
p5583
I0
I1
tp5584
Rp5585
(I3
S'|'
p5586
NNNI3
I1
I0
tp5587
bS'MYR'
p5588
tp5589
Rp5590
(F24.256258
F80.763775
tp5591
sg1
(g2
(S'S3'
p5592
I0
I1
tp5593
Rp5594
(I3
S'|'
p5595
NNNI3
I1
I0
tp5596
bS'NNA'
p5597
tp5598
Rp5599
(F13.0212099
F80.22588549999999
tp5600
sg1
(g2
(S'S3'
p5601
I0
I1
tp5602
Rp5603
(I3
S'|'
p5604
NNNI3
I1
I0
tp5605
bS'NNW'
p5606
tp5607
Rp5608
(F28.6415494
F77.22081229999999
tp5609
sg1
(g2
(S'S3'
p5610
I0
I1
tp5611
Rp5612
(I3
S'|'
p5613
NNNI3
I1
I0
tp5614
bS'NNR'
p5615
tp5616
Rp5617
(F18.9919002
F73.1227684
tp5618
sg1
(g2
(S'S4'
p5619
I0
I1
tp5620
Rp5621
(I3
S'|'
p5622
NNNI4
I1
I0
tp5623
bS'CAER'
p5624
tp5625
Rp5626
(F22.0528136
F76.54728779999999
tp5627
sg1
(g2
(S'S3'
p5628
I0
I1
tp5629
Rp5630
(I3
S'|'
p5631
NNNI3
I1
I0
tp5632
bS'SGO'
p5633
tp5634
Rp5635
(F23.8476118
F78.7428384
tp5636
sg1
(g2
(S'S3'
p5637
I0
I1
tp5638
Rp5639
(I3
S'|'
p5640
NNNI3
I1
I0
tp5641
bS'BQA'
p5642
tp5643
Rp5644
(F24.4435675
F82.9867503
tp5645
sg1
(g2
(S'S3'
p5646
I0
I1
tp5647
Rp5648
(I3
S'|'
p5649
NNNI3
I1
I0
tp5650
bS'NPS'
p5651
tp5652
Rp5653
(F29.9482998
F78.15555239999999
tp5654
sg1
(g2
(S'S3'
p5655
I0
I1
tp5656
Rp5657
(I3
S'|'
p5658
NNNI3
I1
I0
tp5659
bS'SMR'
p5660
tp5661
Rp5662
(F12.9585476
F80.25548739999999
tp5663
sg1
(g2
(S'S3'
p5664
I0
I1
tp5665
Rp5666
(I3
S'|'
p5667
NNNI3
I1
I0
tp5668
bS'MTJ'
p5669
tp5670
Rp5671
(F27.4794821
F77.673651
tp5672
sg1
(g2
(S'S3'
p5673
I0
I1
tp5674
Rp5675
(I3
S'|'
p5676
NNNI3
I1
I0
tp5677
bS'JVN'
p5678
tp5679
Rp5680
(F12.9763025
F80.206075
tp5681
sg1
(g2
(S'S4'
p5682
I0
I1
tp5683
Rp5684
(I3
S'|'
p5685
NNNI4
I1
I0
tp5686
bS'PPTA'
p5687
tp5688
Rp5689
(F25.6215315
F85.06861909999999
tp5690
sg1
(g2
(S'S4'
p5691
I0
I1
tp5692
Rp5693
(I3
S'|'
p5694
NNNI4
I1
I0
tp5695
bS'SIOB'
p5696
tp5697
Rp5698
(F19.0465879
F72.8632167
tp5699
sg1
(g2
(S'S3'
p5700
I0
I1
tp5701
Rp5702
(I3
S'|'
p5703
NNNI3
I1
I0
tp5704
bS'SMO'
p5705
tp5706
Rp5707
(F22.5673321
F88.3708625
tp5708
sg1
(g2
(S'S3'
p5709
I0
I1
tp5710
Rp5711
(I3
S'|'
p5712
NNNI3
I1
I0
tp5713
bS'RPJ'
p5714
tp5715
Rp5716
(F30.4864676
F76.5937897
tp5717
sg1
(g2
(S'S3'
p5718
I0
I1
tp5719
Rp5720
(I3
S'|'
p5721
NNNI3
I1
I0
tp5722
bS'AKJ'
p5723
tp5724
Rp5725
(F11.9178503
F79.57486949999999
tp5726
sg1
(g2
(S'S4'
p5727
I0
I1
tp5728
Rp5729
(I3
S'|'
p5730
NNNI4
I1
I0
tp5731
bS'PHLG'
p5732
tp5733
Rp5734
(F25.6999436
F85.13509379999999
tp5735
sg1
(g2
(S'S3'
p5736
I0
I1
tp5737
Rp5738
(I3
S'|'
p5739
NNNI3
I1
I0
tp5740
bS'BVC'
p5741
tp5742
Rp5743
(F21.7819741
F72.141243
tp5744
sg1
(g2
(S'S3'
p5745
I0
I1
tp5746
Rp5747
(I3
S'|'
p5748
NNNI3
I1
I0
tp5749
bS'UBC'
p5750
tp5751
Rp5752
(F30.3780848
F76.7644305
tp5753
sg1
(g2
(S'S4'
p5754
I0
I1
tp5755
Rp5756
(I3
S'|'
p5757
NNNI4
I1
I0
tp5758
bS'BRPT'
p5759
tp5760
Rp5761
(F25.406083
F82.91267169999999
tp5762
sg1
(g2
(S'S3'
p5763
I0
I1
tp5764
Rp5765
(I3
S'|'
p5766
NNNI3
I1
I0
tp5767
bS'BVI'
p5768
tp5769
Rp5770
(F19.2294251
F72.85698959999999
tp5771
sg1
(g2
(S'S3'
p5772
I0
I1
tp5773
Rp5774
(I3
S'|'
p5775
NNNI3
I1
I0
tp5776
bS'BVH'
p5777
tp5778
Rp5779
(F28.410739
F77.30737979999999
tp5780
sg1
(g2
(S'S3'
p5781
I0
I1
tp5782
Rp5783
(I3
S'|'
p5784
NNNI3
I1
I0
tp5785
bS'RSI'
p5786
tp5787
Rp5788
(F29.6932418
F78.06685209999999
tp5789
sg1
(g2
(S'S3'
p5790
I0
I1
tp5791
Rp5792
(I3
S'|'
p5793
NNNI3
I1
I0
tp5794
bS'LKN'
p5795
tp5796
Rp5797
(F26.8316998
F80.9191505
tp5798
sg1
(g2
(S'S3'
p5799
I0
I1
tp5800
Rp5801
(I3
S'|'
p5802
NNNI3
I1
I0
tp5803
bS'LKO'
p5804
tp5805
Rp5806
(F26.8316998
F80.9191505
tp5807
sg1
(g2
(S'S3'
p5808
I0
I1
tp5809
Rp5810
(I3
S'|'
p5811
NNNI3
I1
I0
tp5812
bS'VDS'
p5813
tp5814
Rp5815
(F28.6415494
F77.22081229999999
tp5816
sg1
(g2
(S'S4'
p5817
I0
I1
tp5818
Rp5819
(I3
S'|'
p5820
NNNI4
I1
I0
tp5821
bS'KANJ'
p5822
tp5823
Rp5824
(F17.9116661
F77.30536219999999
tp5825
sg1
(g2
(S'S4'
p5826
I0
I1
tp5827
Rp5828
(I3
S'|'
p5829
NNNI4
I1
I0
tp5830
bS'PAIL'
p5831
tp5832
Rp5833
(F25.790989
F73.3274227
tp5834
sg1
(g2
(S'S4'
p5835
I0
I1
tp5836
Rp5837
(I3
S'|'
p5838
NNNI4
I1
I0
tp5839
bS'RDRA'
p5840
tp5841
Rp5842
(F23.4956723
F86.6744866
tp5843
sg1
(g2
(S'S3'
p5844
I0
I1
tp5845
Rp5846
(I3
S'|'
p5847
NNNI3
I1
I0
tp5848
bS'DER'
p5849
tp5850
Rp5851
(F19.0631696
F72.9986016
tp5852
sg1
(g2
(S'S3'
p5853
I0
I1
tp5854
Rp5855
(I3
S'|'
p5856
NNNI3
I1
I0
tp5857
bS'MWX'
p5858
tp5859
Rp5860
(F31.9418664
F75.6121526
tp5861
sg1
(g2
(S'S2'
p5862
I0
I1
tp5863
Rp5864
(I3
S'|'
p5865
NNNI2
I1
I0
tp5866
bS'HW'
p5867
tp5868
Rp5869
(F29.9482998
F78.15555239999999
tp5870
sg1
(g2
(S'S3'
p5871
I0
I1
tp5872
Rp5873
(I3
S'|'
p5874
NNNI3
I1
I0
tp5875
bS'LKA'
p5876
tp5877
Rp5878
(F26.8316998
F80.9191505
tp5879
sg1
(g2
(S'S3'
p5880
I0
I1
tp5881
Rp5882
(I3
S'|'
p5883
NNNI3
I1
I0
tp5884
bS'BCT'
p5885
tp5886
Rp5887
(F18.9707308
F72.8194424
tp5888
sg1
(g2
(S'S3'
p5889
I0
I1
tp5890
Rp5891
(I3
S'|'
p5892
NNNI3
I1
I0
tp5893
bS'FLK'
p5894
tp5895
Rp5896
(F26.5391413
F89.1911897
tp5897
sg1
(g2
(S'S4'
p5898
I0
I1
tp5899
Rp5900
(I3
S'|'
p5901
NNNI4
I1
I0
tp5902
bS'SMBJ'
p5903
tp5904
Rp5905
(F26.684635
F76.968214
tp5906
sg1
(g2
(S'S3'
p5907
I0
I1
tp5908
Rp5909
(I3
S'|'
p5910
NNNI3
I1
I0
tp5911
bS'GJD'
p5912
tp5913
Rp5914
(F24.4978114
F85.4626343
tp5915
sg1
(g2
(S'S3'
p5916
I0
I1
tp5917
Rp5918
(I3
S'|'
p5919
NNNI3
I1
I0
tp5920
bS'DEC'
p5921
tp5922
Rp5923
(F28.6119222
F77.1156424
tp5924
sg1
(g2
(S'S3'
p5925
I0
I1
tp5926
Rp5927
(I3
S'|'
p5928
NNNI3
I1
I0
tp5929
bS'LKR'
p5930
tp5931
Rp5932
(F25.1719001
F86.09404940000002
tp5933
sg1
(g2
(S'S2'
p5934
I0
I1
tp5935
Rp5936
(I3
S'|'
p5937
NNNI2
I1
I0
tp5938
bS'HD'
p5939
tp5940
Rp5941
(F28.6415494
F77.22081229999999
tp5942
sg1
(g2
(S'S3'
p5943
I0
I1
tp5944
Rp5945
(I3
S'|'
p5946
NNNI3
I1
I0
tp5947
bS'CNS'
p5948
tp5949
Rp5950
(F22.8910685
F88.37055959999999
tp5951
sg1
(g2
(S'S3'
p5952
I0
I1
tp5953
Rp5954
(I3
S'|'
p5955
NNNI3
I1
I0
tp5956
bS'ROK'
p5957
tp5958
Rp5959
(F28.8906738
F76.5801218
tp5960
sg1
(g2
(S'S3'
p5961
I0
I1
tp5962
Rp5963
(I3
S'|'
p5964
NNNI3
I1
I0
tp5965
bS'PTH'
p5966
tp5967
Rp5968
(F25.4764057
F80.3372389
tp5969
sg1
(g2
(S'S3'
p5970
I0
I1
tp5971
Rp5972
(I3
S'|'
p5973
NNNI3
I1
I0
tp5974
bS'MNP'
p5975
tp5976
Rp5977
(F22.6834164
F88.3822474
tp5978
sg1
(g2
(S'S4'
p5979
I0
I1
tp5980
Rp5981
(I3
S'|'
p5982
NNNI4
I1
I0
tp5983
bS'SHNG'
p5984
tp5985
Rp5986
(F30.7605968
F74.4451216
tp5987
sg1
(g2
(S'S3'
p5988
I0
I1
tp5989
Rp5990
(I3
S'|'
p5991
NNNI3
I1
I0
tp5992
bS'AME'
p5993
tp5994
Rp5995
(F26.1529502
F81.80612440000002
tp5996
sg1
(g2
(S'S3'
p5997
I0
I1
tp5998
Rp5999
(I3
S'|'
p6000
NNNI3
I1
I0
tp6001
bS'JMT'
p6002
tp6003
Rp6004
(F19.0630606
F72.99890479999999
tp6005
sg1
(g2
(S'S3'
p6006
I0
I1
tp6007
Rp6008
(I3
S'|'
p6009
NNNI3
I1
I0
tp6010
bS'JMU'
p6011
tp6012
Rp6013
(F32.7055231
F74.8806613
tp6014
sg1
(g2
(S'S3'
p6015
I0
I1
tp6016
Rp6017
(I3
S'|'
p6018
NNNI3
I1
I0
tp6019
bS'JMK'
p6020
tp6021
Rp6022
(F26.1825487
F91.7497434
tp6023
sg1
(g2
(S'S3'
p6024
I0
I1
tp6025
Rp6026
(I3
S'|'
p6027
NNNI3
I1
I0
tp6028
bS'MNJ'
p6029
tp6030
Rp6031
(F25.5242734
F81.5585286
tp6032
sg1
(g2
(S'S3'
p6033
I0
I1
tp6034
Rp6035
(I3
S'|'
p6036
NNNI3
I1
I0
tp6037
bS'SCY'
p6038
tp6039
Rp6040
(F25.5959033
F85.1171136
tp6041
sg1
(g2
(S'S3'
p6042
I0
I1
tp6043
Rp6044
(I3
S'|'
p6045
NNNI3
I1
I0
tp6046
bS'AMP'
p6047
tp6048
Rp6049
(F28.6415494
F77.22081229999999
tp6050
sg1
(g2
(S'S3'
p6051
I0
I1
tp6052
Rp6053
(I3
S'|'
p6054
NNNI3
I1
I0
tp6055
bS'ROU'
p6056
tp6057
Rp6058
(F22.2275861
F84.86307029999999
tp6059
sg1
(g2
(S'S3'
p6060
I0
I1
tp6061
Rp6062
(I3
S'|'
p6063
NNNI3
I1
I0
tp6064
bS'MNF'
p6065
tp6066
Rp6067
(F25.163429
F82.2375153
tp6068
sg1
(g2
(S'S3'
p6069
I0
I1
tp6070
Rp6071
(I3
S'|'
p6072
NNNI3
I1
I0
tp6073
bS'SIQ'
p6074
tp6075
Rp6076
(F25.6596599
F82.74023509999999
tp6077
sg1
(g2
(S'S3'
p6078
I0
I1
tp6079
Rp6080
(I3
S'|'
p6081
NNNI3
I1
I0
tp6082
bS'SLW'
p6083
tp6084
Rp6085
(F23.2219306
F77.4393863
tp6086
sg1
(g2
(S'S3'
p6087
I0
I1
tp6088
Rp6089
(I3
S'|'
p6090
NNNI3
I1
I0
tp6091
bS'BDC'
p6092
tp6093
Rp6094
(F22.9227893
F88.3776967
tp6095
sg1
(g2
(S'S3'
p6096
I0
I1
tp6097
Rp6098
(I3
S'|'
p6099
NNNI3
I1
I0
tp6100
bS'BDL'
p6101
tp6102
Rp6103
(F25.1607415
F82.5020273
tp6104
sg1
(g2
(S'S3'
p6105
I0
I1
tp6106
Rp6107
(I3
S'|'
p6108
NNNI3
I1
I0
tp6109
bS'BDN'
p6110
tp6111
Rp6112
(F26.9794518
F78.7375546
tp6113
sg1
(g2
(S'S4'
p6114
I0
I1
tp6115
Rp6116
(I3
S'|'
p6117
NNNI4
I1
I0
tp6118
bS'SUNR'
p6119
tp6120
Rp6121
(F19.0817893
F72.8410506
tp6122
sg1
(g2
(S'S2'
p6123
I0
I1
tp6124
Rp6125
(I3
S'|'
p6126
NNNI2
I1
I0
tp6127
bS'AO'
p6128
tp6129
Rp6130
(F25.9064667
F93.72896999999999
tp6131
sg1
(g2
(S'S4'
p6132
I0
I1
tp6133
Rp6134
(I3
S'|'
p6135
NNNI4
I1
I0
tp6136
bS'KOAA'
p6137
tp6138
Rp6139
(F22.6015439
F88.3829775
tp6140
sg1
(g2
(S'S4'
p6141
I0
I1
tp6142
Rp6143
(I3
S'|'
p6144
NNNI4
I1
I0
tp6145
bS'BEAS'
p6146
tp6147
Rp6148
(F31.5198538
F75.2912885
tp6149
sg1
(g2
(S'S3'
p6150
I0
I1
tp6151
Rp6152
(I3
S'|'
p6153
NNNI3
I1
I0
tp6154
bS'PBH'
p6155
tp6156
Rp6157
(F25.9130282
F82.0013417
tp6158
sg1
(g2
(S'S4'
p6159
I0
I1
tp6160
Rp6161
(I3
S'|'
p6162
NNNI4
I1
I0
tp6163
bS'MLDT'
p6164
tp6165
Rp6166
(F25.0161199
F88.1305043
tp6167
sg1
(g2
(S'S3'
p6168
I0
I1
tp6169
Rp6170
(I3
S'|'
p6171
NNNI3
I1
I0
tp6172
bS'HTE'
p6173
tp6174
Rp6175
(F23.3094514
F85.3088192
tp6176
sg1
(g2
(S'S3'
p6177
I0
I1
tp6178
Rp6179
(I3
S'|'
p6180
NNNI3
I1
I0
tp6181
bS'KCA'
p6182
tp6183
Rp6184
(F25.3192739
F83.2143703
tp6185
sg1
(g2
(S'S4'
p6186
I0
I1
tp6187
Rp6188
(I3
S'|'
p6189
NNNI4
I1
I0
tp6190
bS'SDLP'
p6191
tp6192
Rp6193
(F28.6309906
F75.3862132
tp6194
sg1
(g2
(S'S4'
p6195
I0
I1
tp6196
Rp6197
(I3
S'|'
p6198
NNNI4
I1
I0
tp6199
bS'KTHU'
p6200
tp6201
Rp6202
(F32.3978021
F75.55114209999999
tp6203
sg1
(g2
(S'S4'
p6204
I0
I1
tp6205
Rp6206
(I3
S'|'
p6207
NNNI4
I1
I0
tp6208
bS'CDMR'
p6209
tp6210
Rp6211
(F25.2612938
F83.2679129
tp6212
sg1
(g2
(S'S3'
p6213
I0
I1
tp6214
Rp6215
(I3
S'|'
p6216
NNNI3
I1
I0
tp6217
bS'LRJ'
p6218
tp6219
Rp6220
(F29.752626
F78.0196927
tp6221
sg1
(g2
(S'S3'
p6222
I0
I1
tp6223
Rp6224
(I3
S'|'
p6225
NNNI3
I1
I0
tp6226
bS'SLN'
p6227
tp6228
Rp6229
(F26.0200167
F76.35598300000001
tp6230
sg1
(g2
(S'S4'
p6231
I0
I1
tp6232
Rp6233
(I3
S'|'
p6234
NNNI4
I1
I0
tp6235
bS'MNAE'
p6236
tp6237
Rp6238
(F17.4337397
F78.5015956
tp6239
sg1
(g2
(S'S4'
p6240
I0
I1
tp6241
Rp6242
(I3
S'|'
p6243
NNNI4
I1
I0
tp6244
bS'BPRD'
p6245
tp6246
Rp6247
(F26.5020363
F90.9647221
tp6248
sg1
(g2
(S'S4'
p6249
I0
I1
tp6250
Rp6251
(I3
S'|'
p6252
NNNI4
I1
I0
tp6253
bS'BRYC'
p6254
tp6255
Rp6256
(F28.3105598
F79.4274074
tp6257
sg1
(g2
(S'S3'
p6258
I0
I1
tp6259
Rp6260
(I3
S'|'
p6261
NNNI3
I1
I0
tp6262
bS'SMK'
p6263
tp6264
Rp6265
(F28.6415494
F77.22081229999999
tp6266
sg1
(g2
(S'S3'
p6267
I0
I1
tp6268
Rp6269
(I3
S'|'
p6270
NNNI3
I1
I0
tp6271
bS'KLP'
p6272
tp6273
Rp6274
(F24.7402506
F87.8238971
tp6275
sg1
(g2
(S'S4'
p6276
I0
I1
tp6277
Rp6278
(I3
S'|'
p6279
NNNI4
I1
I0
tp6280
bS'BRYA'
p6281
tp6282
Rp6283
(F25.2825224
F86.0156677
tp6284
sg1
(g2
(S'S4'
p6285
I0
I1
tp6286
Rp6287
(I3
S'|'
p6288
NNNI4
I1
I0
tp6289
bS'KLRE'
p6290
tp6291
Rp6292
(F23.6504975
F85.0017627
tp6293
sg1
(g2
(S'S3'
p6294
I0
I1
tp6295
Rp6296
(I3
S'|'
p6297
NNNI3
I1
I0
tp6298
bS'MPY'
p6299
tp6300
Rp6301
(F23.2219306
F77.4393863
tp6302
sg1
(g2
(S'S3'
p6303
I0
I1
tp6304
Rp6305
(I3
S'|'
p6306
NNNI3
I1
I0
tp6307
bS'NEO'
p6308
tp6309
Rp6310
(F26.8154012
F82.7691451
tp6311
sg1
(g2
(S'S4'
p6312
I0
I1
tp6313
Rp6314
(I3
S'|'
p6315
NNNI4
I1
I0
tp6316
bS'OKHA'
p6317
tp6318
Rp6319
(F22.4718166
F69.0759005
tp6320
sg1
(g2
(S'S3'
p6321
I0
I1
tp6322
Rp6323
(I3
S'|'
p6324
NNNI3
I1
I0
tp6325
bS'KUR'
p6326
tp6327
Rp6328
(F20.1533246
F85.70864
tp6329
sg1
(g2
(S'S3'
p6330
I0
I1
tp6331
Rp6332
(I3
S'|'
p6333
NNNI3
I1
I0
tp6334
bS'KUN'
p6335
tp6336
Rp6337
(F29.694786
F76.96967529999999
tp6338
sg1
(g2
(S'S3'
p6339
I0
I1
tp6340
Rp6341
(I3
S'|'
p6342
NNNI3
I1
I0
tp6343
bS'NGG'
p6344
tp6345
Rp6346
(F29.4384284
F78.42387070000001
tp6347
sg1
(g2
(S'S3'
p6348
I0
I1
tp6349
Rp6350
(I3
S'|'
p6351
NNNI3
I1
I0
tp6352
bS'IDH'
p6353
tp6354
Rp6355
(F26.0200167
F76.35598300000001
tp6356
sg1
(g2
(S'S3'
p6357
I0
I1
tp6358
Rp6359
(I3
S'|'
p6360
NNNI3
I1
I0
tp6361
bS'NEW'
p6362
tp6363
Rp6364
(F28.4383238
F76.9307034
tp6365
sg1
(g2
(S'S3'
p6366
I0
I1
tp6367
Rp6368
(I3
S'|'
p6369
NNNI3
I1
I0
tp6370
bS'KUE'
p6371
tp6372
Rp6373
(F22.5673321
F88.3708625
tp6374
sg1
(g2
(S'S3'
p6375
I0
I1
tp6376
Rp6377
(I3
S'|'
p6378
NNNI3
I1
I0
tp6379
bS'KUA'
p6380
tp6381
Rp6382
(F22.5673321
F88.3708625
tp6383
sg1
(g2
(S'S4'
p6384
I0
I1
tp6385
Rp6386
(I3
S'|'
p6387
NNNI4
I1
I0
tp6388
bS'SILO'
p6389
tp6390
Rp6391
(F25.0842258
F85.4371947
tp6392
sg1
(g2
(S'S2'
p6393
I0
I1
tp6394
Rp6395
(I3
S'|'
p6396
NNNI2
I1
I0
tp6397
bS'NH'
p6398
tp6399
Rp6400
(F22.8870634
F88.4175159
tp6401
sg1
(g2
(S'S2'
p6402
I0
I1
tp6403
Rp6404
(I3
S'|'
p6405
NNNI2
I1
I0
tp6406
bS'NK'
p6407
tp6408
Rp6409
(F19.9474782
F73.842182
tp6410
sg1
(g2
(S'S4'
p6411
I0
I1
tp6412
Rp6413
(I3
S'|'
p6414
NNNI4
I1
I0
tp6415
bS'SMBX'
p6416
tp6417
Rp6418
(F32.5283867
F75.1200581
tp6419
sg1
(g2
(S'S3'
p6420
I0
I1
tp6421
Rp6422
(I3
S'|'
p6423
NNNI3
I1
I0
tp6424
bS'TEN'
p6425
tp6426
Rp6427
(F26.0200167
F76.35598300000001
tp6428
sg1
(g2
(S'S3'
p6429
I0
I1
tp6430
Rp6431
(I3
S'|'
p6432
NNNI3
I1
I0
tp6433
bS'NBQ'
p6434
tp6435
Rp6436
(F13.102604
F80.27131299999999
tp6437
sg1
(g2
(S'S3'
p6438
I0
I1
tp6439
Rp6440
(I3
S'|'
p6441
NNNI3
I1
I0
tp6442
bS'BKO'
p6443
tp6444
Rp6445
(F26.116722
F80.581009
tp6446
sg1
(g2
(S'S2'
p6447
I0
I1
tp6448
Rp6449
(I3
S'|'
p6450
NNNI2
I1
I0
tp6451
bS'ND'
p6452
tp6453
Rp6454
(F28.6415494
F77.22081229999999
tp6455
sg1
(g2
(S'S3'
p6456
I0
I1
tp6457
Rp6458
(I3
S'|'
p6459
NNNI3
I1
I0
tp6460
bS'PMY'
p6461
tp6462
Rp6463
(F25.790989
F73.3274227
tp6464
sg1
(g2
(S'S3'
p6465
I0
I1
tp6466
Rp6467
(I3
S'|'
p6468
NNNI3
I1
I0
tp6469
bS'DWO'
p6470
tp6471
Rp6472
(F13.0850613
F80.27515629999999
tp6473
sg1
(g2
(S'S3'
p6474
I0
I1
tp6475
Rp6476
(I3
S'|'
p6477
NNNI3
I1
I0
tp6478
bS'BKP'
p6479
tp6480
Rp6481
(F25.4558729
F85.532603
tp6482
sg1
(g2
(S'S2'
p6483
I0
I1
tp6484
Rp6485
(I3
S'|'
p6486
NNNI2
I1
I0
tp6487
bS'NR'
p6488
tp6489
Rp6490
(F26.2623829
F82.0675792
tp6491
sg1
(g2
(S'S3'
p6492
I0
I1
tp6493
Rp6494
(I3
S'|'
p6495
NNNI3
I1
I0
tp6496
bS'CGR'
p6497
tp6498
Rp6499
(F22.5834126
F88.3429024
tp6500
sg1
(g2
(S'S3'
p6501
I0
I1
tp6502
Rp6503
(I3
S'|'
p6504
NNNI3
I1
I0
tp6505
bS'TET'
p6506
tp6507
Rp6508
(F23.814569
F86.343201
tp6509
sg1
(g2
(S'S2'
p6510
I0
I1
tp6511
Rp6512
(I3
S'|'
p6513
NNNI2
I1
I0
tp6514
bS'NU'
p6515
tp6516
Rp6517
(F26.0200167
F76.35598300000001
tp6518
sg1
(g2
(S'S3'
p6519
I0
I1
tp6520
Rp6521
(I3
S'|'
p6522
NNNI3
I1
I0
tp6523
bS'NBD'
p6524
tp6525
Rp6526
(F29.603456
F78.33638499999999
tp6527
sg1
(g2
(S'S4'
p6528
I0
I1
tp6529
Rp6530
(I3
S'|'
p6531
NNNI4
I1
I0
tp6532
bS'BRWD'
p6533
tp6534
Rp6535
(F23.8437071
F84.1164241
tp6536
sg1
(g2
(S'S3'
p6537
I0
I1
tp6538
Rp6539
(I3
S'|'
p6540
NNNI3
I1
I0
tp6541
bS'DNA'
p6542
tp6543
Rp6544
(F26.8970826
F74.3165877
tp6545
sg1
(g2
(S'S3'
p6546
I0
I1
tp6547
Rp6548
(I3
S'|'
p6549
NNNI3
I1
I0
tp6550
bS'RDP'
p6551
tp6552
Rp6553
(F25.6432771
F88.447908
tp6554
sg1
(g2
(S'S4'
p6555
I0
I1
tp6556
Rp6557
(I3
S'|'
p6558
NNNI4
I1
I0
tp6559
bS'BCOB'
p6560
tp6561
Rp6562
(F23.3041158
F70.3505442
tp6563
sg1
(g2
(S'S3'
p6564
I0
I1
tp6565
Rp6566
(I3
S'|'
p6567
NNNI3
I1
I0
tp6568
bS'SJP'
p6569
tp6570
Rp6571
(F23.3809667
F76.72331439999999
tp6572
sg1
(g2
(S'S3'
p6573
I0
I1
tp6574
Rp6575
(I3
S'|'
p6576
NNNI3
I1
I0
tp6577
bS'SJT'
p6578
tp6579
Rp6580
(F22.5807422
F88.3530904
tp6581
sg1
(g2
(S'S3'
p6582
I0
I1
tp6583
Rp6584
(I3
S'|'
p6585
NNNI3
I1
I0
tp6586
bS'DNR'
p6587
tp6588
Rp6589
(F25.5822775
F85.04362789999999
tp6590
sg1
(g2
(S'S3'
p6591
I0
I1
tp6592
Rp6593
(I3
S'|'
p6594
NNNI3
I1
I0
tp6595
bS'RDM'
p6596
tp6597
Rp6598
(F18.763759
F79.43489679999999
tp6599
sg1
(g2
(S'S3'
p6600
I0
I1
tp6601
Rp6602
(I3
S'|'
p6603
NNNI3
I1
I0
tp6604
bS'RDL'
p6605
tp6606
Rp6607
(F30.3134362
F78.0335611
tp6608
sg1
(g2
(S'S3'
p6609
I0
I1
tp6610
Rp6611
(I3
S'|'
p6612
NNNI3
I1
I0
tp6613
bS'ADI'
p6614
tp6615
Rp6616
(F22.9544863
F88.3792576
tp6617
sg1
(g2
(S'S3'
p6618
I0
I1
tp6619
Rp6620
(I3
S'|'
p6621
NNNI3
I1
I0
tp6622
bS'PNC'
p6623
tp6624
Rp6625
(F25.585818
F85.2312576
tp6626
sg1
(g2
(S'S3'
p6627
I0
I1
tp6628
Rp6629
(I3
S'|'
p6630
NNNI3
I1
I0
tp6631
bS'GDR'
p6632
tp6633
Rp6634
(F14.1485453
F79.8455743
tp6635
sg1
(g2
(S'S3'
p6636
I0
I1
tp6637
Rp6638
(I3
S'|'
p6639
NNNI3
I1
I0
tp6640
bS'JRC'
p6641
tp6642
Rp6643
(F31.3074097
F75.6312045
tp6644
sg1
(g2
(S'S4'
p6645
I0
I1
tp6646
Rp6647
(I3
S'|'
p6648
NNNI4
I1
I0
tp6649
bS'TATA'
p6650
tp6651
Rp6652
(F22.7679095
F86.20106299999999
tp6653
sg1
(g2
(S'S3'
p6654
I0
I1
tp6655
Rp6656
(I3
S'|'
p6657
NNNI3
I1
I0
tp6658
bS'KSG'
p6659
tp6660
Rp6661
(F28.6417459
F77.1854839
tp6662
sg1
(g2
(S'S3'
p6663
I0
I1
tp6664
Rp6665
(I3
S'|'
p6666
NNNI3
I1
I0
tp6667
bS'GDA'
p6668
tp6669
Rp6670
(F22.7767597
F73.60615419999999
tp6671
sg1
(g2
(S'S3'
p6672
I0
I1
tp6673
Rp6674
(I3
S'|'
p6675
NNNI3
I1
I0
tp6676
bS'GDB'
p6677
tp6678
Rp6679
(F30.2012566
F74.6629608
tp6680
sg1
(g2
(S'S3'
p6681
I0
I1
tp6682
Rp6683
(I3
S'|'
p6684
NNNI3
I1
I0
tp6685
bS'FBD'
p6686
tp6687
Rp6688
(F27.3821694
F79.5714452
tp6689
sg1
(g2
(S'S4'
p6690
I0
I1
tp6691
Rp6692
(I3
S'|'
p6693
NNNI4
I1
I0
tp6694
bS'SCKR'
p6695
tp6696
Rp6697
(F22.8342841
F78.67709099999999
tp6698
sg1
(g2
(S'S3'
p6699
I0
I1
tp6700
Rp6701
(I3
S'|'
p6702
NNNI3
I1
I0
tp6703
bS'BRE'
p6704
tp6705
Rp6706
(F28.6415494
F77.22081229999999
tp6707
sg1
(g2
(S'S3'
p6708
I0
I1
tp6709
Rp6710
(I3
S'|'
p6711
NNNI3
I1
I0
tp6712
bS'MDU'
p6713
tp6714
Rp6715
(F9.9203545
F78.1102932
tp6716
sg1
(g2
(S'S3'
p6717
I0
I1
tp6718
Rp6719
(I3
S'|'
p6720
NNNI3
I1
I0
tp6721
bS'BRC'
p6722
tp6723
Rp6724
(F22.3107749
F73.18093
tp6725
sg1
(g2
(S'S3'
p6726
I0
I1
tp6727
Rp6728
(I3
S'|'
p6729
NNNI3
I1
I0
tp6730
bS'MEX'
p6731
tp6732
Rp6733
(F31.9418664
F75.6121526
tp6734
sg1
(g2
(S'S4'
p6735
I0
I1
tp6736
Rp6737
(I3
S'|'
p6738
NNNI4
I1
I0
tp6739
bS'PTRU'
p6740
tp6741
Rp6742
(F23.349473
F85.335656
tp6743
sg1
(g2
(S'S3'
p6744
I0
I1
tp6745
Rp6746
(I3
S'|'
p6747
NNNI3
I1
I0
tp6748
bS'TWG'
p6749
tp6750
Rp6751
(F25.568919
F84.218085
tp6752
sg1
(g2
(S'S4'
p6753
I0
I1
tp6754
Rp6755
(I3
S'|'
p6756
NNNI4
I1
I0
tp6757
bS'SEGM'
p6758
tp6759
Rp6760
(F20.7391683
F78.6185275
tp6761
sg1
(g2
(S'S4'
p6762
I0
I1
tp6763
Rp6764
(I3
S'|'
p6765
NNNI4
I1
I0
tp6766
bS'ANVT'
p6767
tp6768
Rp6769
(F28.6489284
F77.3151845
tp6770
sg1
(g2
(S'S3'
p6771
I0
I1
tp6772
Rp6773
(I3
S'|'
p6774
NNNI3
I1
I0
tp6775
bS'MSK'
p6776
tp6777
Rp6778
(F9.3577008
F78.8384417
tp6779
sg1
(g2
(S'S3'
p6780
I0
I1
tp6781
Rp6782
(I3
S'|'
p6783
NNNI3
I1
I0
tp6784
bS'RNG'
p6785
tp6786
Rp6787
(F23.603675
F87.11750909999999
tp6788
sg1
(g2
(S'S3'
p6789
I0
I1
tp6790
Rp6791
(I3
S'|'
p6792
NNNI3
I1
I0
tp6793
bS'MSH'
p6794
tp6795
Rp6796
(F23.6024932
F72.3889221
tp6797
sg1
(g2
(S'S3'
p6798
I0
I1
tp6799
Rp6800
(I3
S'|'
p6801
NNNI3
I1
I0
tp6802
bS'AZR'
p6803
tp6804
Rp6805
(F25.5560894
F87.8524572
tp6806
sg1
(g2
(S'S3'
p6807
I0
I1
tp6808
Rp6809
(I3
S'|'
p6810
NNNI3
I1
I0
tp6811
bS'NCB'
p6812
tp6813
Rp6814
(F26.352816
F89.4689401
tp6815
sg1
(g2
(S'S3'
p6816
I0
I1
tp6817
Rp6818
(I3
S'|'
p6819
NNNI3
I1
I0
tp6820
bS'LKU'
p6821
tp6822
Rp6823
(F26.8316998
F80.9191505
tp6824
sg1
(g2
(S'S3'
p6825
I0
I1
tp6826
Rp6827
(I3
S'|'
p6828
NNNI3
I1
I0
tp6829
bS'DAA'
p6830
tp6831
Rp6832
(F25.6409886
F78.4561895
tp6833
sg1
(g2
(S'S3'
p6834
I0
I1
tp6835
Rp6836
(I3
S'|'
p6837
NNNI3
I1
I0
tp6838
bS'SGP'
p6839
tp6840
Rp6841
(F28.6415494
F77.22081229999999
tp6842
sg1
(g2
(S'S3'
p6843
I0
I1
tp6844
Rp6845
(I3
S'|'
p6846
NNNI3
I1
I0
tp6847
bS'GMR'
p6848
tp6849
Rp6850
(F28.5634822
F77.0750785
tp6851
sg1
(g2
(S'S3'
p6852
I0
I1
tp6853
Rp6854
(I3
S'|'
p6855
NNNI3
I1
I0
tp6856
bS'RGL'
p6857
tp6858
Rp6859
(F28.5713761
F77.1843244
tp6860
sg1
(g2
(S'S3'
p6861
I0
I1
tp6862
Rp6863
(I3
S'|'
p6864
NNNI3
I1
I0
tp6865
bS'SGJ'
p6866
tp6867
Rp6868
(F28.7109365
F77.0870685
tp6869
sg1
(g2
(S'S3'
p6870
I0
I1
tp6871
Rp6872
(I3
S'|'
p6873
NNNI3
I1
I0
tp6874
bS'DAP'
p6875
tp6876
Rp6877
(F25.098424
F82.80062900000001
tp6878
sg1
(g2
(S'S3'
p6879
I0
I1
tp6880
Rp6881
(I3
S'|'
p6882
NNNI3
I1
I0
tp6883
bS'DAQ'
p6884
tp6885
Rp6886
(F27.8299444
F78.0989474
tp6887
sg1
(g2
(S'S3'
p6888
I0
I1
tp6889
Rp6890
(I3
S'|'
p6891
NNNI3
I1
I0
tp6892
bS'RKB'
p6893
tp6894
Rp6895
(F26.2914
F73.040015
tp6896
sg1
(g2
(S'S3'
p6897
I0
I1
tp6898
Rp6899
(I3
S'|'
p6900
NNNI3
I1
I0
tp6901
bS'KRS'
p6902
tp6903
Rp6904
(F25.5495321
F84.5633125
tp6905
sg1
(g2
(S'S3'
p6906
I0
I1
tp6907
Rp6908
(I3
S'|'
p6909
NNNI3
I1
I0
tp6910
bS'RKL'
p6911
tp6912
Rp6913
(F22.2275861
F84.86307029999999
tp6914
sg1
(g2
(S'S3'
p6915
I0
I1
tp6916
Rp6917
(I3
S'|'
p6918
NNNI3
I1
I0
tp6919
bS'RKM'
p6920
tp6921
Rp6922
(F27.1940705
F77.9968827
tp6923
sg1
(g2
(S'S3'
p6924
I0
I1
tp6925
Rp6926
(I3
S'|'
p6927
NNNI3
I1
I0
tp6928
bS'SGD'
p6929
tp6930
Rp6931
(F28.5889188
F77.2534726
tp6932
sg1
(g2
(S'S3'
p6933
I0
I1
tp6934
Rp6935
(I3
S'|'
p6936
NNNI3
I1
I0
tp6937
bS'SGG'
p6938
tp6939
Rp6940
(F25.2416518
F86.7354506
tp6941
sg1
(g2
(S'S3'
p6942
I0
I1
tp6943
Rp6944
(I3
S'|'
p6945
NNNI3
I1
I0
tp6946
bS'PWL'
p6947
tp6948
Rp6949
(F28.1512643
F77.34142729999999
tp6950
sg1
(g2
(S'S3'
p6951
I0
I1
tp6952
Rp6953
(I3
S'|'
p6954
NNNI3
I1
I0
tp6955
bS'KLA'
p6956
tp6957
Rp6958
(F27.9794487
F78.0101059
tp6959
sg1
(g2
(S'S2'
p6960
I0
I1
tp6961
Rp6962
(I3
S'|'
p6963
NNNI2
I1
I0
tp6964
bS'AF'
p6965
tp6966
Rp6967
(F24.5708205
F73.6996276
tp6968
sg1
(g2
(S'S2'
p6969
I0
I1
tp6970
Rp6971
(I3
S'|'
p6972
NNNI2
I1
I0
tp6973
bS'AH'
p6974
tp6975
Rp6976
(F26.0200167
F76.35598300000001
tp6977
sg1
(g2
(S'S3'
p6978
I0
I1
tp6979
Rp6980
(I3
S'|'
p6981
NNNI3
I1
I0
tp6982
bS'DWX'
p6983
tp6984
Rp6985
(F23.1782623
F75.77929449999999
tp6986
sg1
(g2
(S'S4'
p6987
I0
I1
tp6988
Rp6989
(I3
S'|'
p6990
NNNI4
I1
I0
tp6991
bS'INDB'
p6992
tp6993
Rp6994
(F22.7170909
F75.8684423
tp6995
sg1
(g2
(S'S3'
p6996
I0
I1
tp6997
Rp6998
(I3
S'|'
p6999
NNNI3
I1
I0
tp7000
bS'GVG'
p7001
tp7002
Rp7003
(F28.6415494
F77.22081229999999
tp7004
sg1
(g2
(S'S3'
p7005
I0
I1
tp7006
Rp7007
(I3
S'|'
p7008
NNNI3
I1
I0
tp7009
bS'ULT'
p7010
tp7011
Rp7012
(F23.349473
F85.335656
tp7013
sg1
(g2
(S'S3'
p7014
I0
I1
tp7015
Rp7016
(I3
S'|'
p7017
NNNI3
I1
I0
tp7018
bS'KLK'
p7019
tp7020
Rp7021
(F30.8392232
F76.9316316
tp7022
sg1
(g2
(S'S3'
p7023
I0
I1
tp7024
Rp7025
(I3
S'|'
p7026
NNNI3
I1
I0
tp7027
bS'TNA'
p7028
tp7029
Rp7030
(F19.1864587
F72.9754684
tp7031
sg1
(g2
(S'S4'
p7032
I0
I1
tp7033
Rp7034
(I3
S'|'
p7035
NNNI4
I1
I0
tp7036
bS'GOGH'
p7037
tp7038
Rp7039
(F26.4295301
F89.97536699999999
tp7040
sg1
(g2
(S'S4'
p7041
I0
I1
tp7042
Rp7043
(I3
S'|'
p7044
NNNI4
I1
I0
tp7045
bS'SLGR'
p7046
tp7047
Rp7048
(F26.9175626
F94.7558888
tp7049
sg1
(g2
(S'S3'
p7050
I0
I1
tp7051
Rp7052
(I3
S'|'
p7053
NNNI3
I1
I0
tp7054
bS'DWK'
p7055
tp7056
Rp7057
(F22.2508861
F68.9803961
tp7058
sg1
(g2
(S'S3'
p7059
I0
I1
tp7060
Rp7061
(I3
S'|'
p7062
NNNI3
I1
I0
tp7063
bS'CNK'
p7064
tp7065
Rp7066
(F29.5771057
F78.1529693
tp7067
sg1
(g2
(S'S3'
p7068
I0
I1
tp7069
Rp7070
(I3
S'|'
p7071
NNNI3
I1
I0
tp7072
bS'ULD'
p7073
tp7074
Rp7075
(F26.7021155
F79.4042411
tp7076
sg1
(g2
(S'S3'
p7077
I0
I1
tp7078
Rp7079
(I3
S'|'
p7080
NNNI3
I1
I0
tp7081
bS'CNI'
p7082
tp7083
Rp7084
(F22.9558089
F86.0715415
tp7085
sg1
(g2
(S'S3'
p7086
I0
I1
tp7087
Rp7088
(I3
S'|'
p7089
NNNI3
I1
I0
tp7090
bS'KGP'
p7091
tp7092
Rp7093
(F22.3408782
F87.3258378
tp7094
sg1
(g2
(S'S3'
p7095
I0
I1
tp7096
Rp7097
(I3
S'|'
p7098
NNNI3
I1
I0
tp7099
bS'MWH'
p7100
tp7101
Rp7102
(F21.181077
F72.819158
tp7103
sg1
(g2
(S'S3'
p7104
I0
I1
tp7105
Rp7106
(I3
S'|'
p7107
NNNI3
I1
I0
tp7108
bS'VSU'
p7109
tp7110
Rp7111
(F23.0650177
F87.30130249999999
tp7112
sg1
(g2
(S'S3'
p7113
I0
I1
tp7114
Rp7115
(I3
S'|'
p7116
NNNI3
I1
I0
tp7117
bS'NAC'
p7118
tp7119
Rp7120
(F27.0292117
F75.001132
tp7121
sg1
(g2
(S'S3'
p7122
I0
I1
tp7123
Rp7124
(I3
S'|'
p7125
NNNI3
I1
I0
tp7126
bS'SZM'
p7127
tp7128
Rp7129
(F28.6685564
F77.20041619999999
tp7130
sg1
(g2
(S'S3'
p7131
I0
I1
tp7132
Rp7133
(I3
S'|'
p7134
NNNI3
I1
I0
tp7135
bS'KGA'
p7136
tp7137
Rp7138
(F19.0274138
F72.8501632
tp7139
sg1
(g2
(S'S3'
p7140
I0
I1
tp7141
Rp7142
(I3
S'|'
p7143
NNNI3
I1
I0
tp7144
bS'TKN'
p7145
tp7146
Rp7147
(F26.0200167
F76.35598300000001
tp7148
sg1
(g2
(S'S3'
p7149
I0
I1
tp7150
Rp7151
(I3
S'|'
p7152
NNNI3
I1
I0
tp7153
bS'RWL'
p7154
tp7155
Rp7156
(F30.031773
F78.2094759
tp7157
sg1
(g2
(S'S3'
p7158
I0
I1
tp7159
Rp7160
(I3
S'|'
p7161
NNNI3
I1
I0
tp7162
bS'KGG'
p7163
tp7164
Rp7165
(F25.5061504
F86.46703579999999
tp7166
sg1
(g2
(S'S3'
p7167
I0
I1
tp7168
Rp7169
(I3
S'|'
p7170
NNNI3
I1
I0
tp7171
bS'VSG'
p7172
tp7173
Rp7174
(F15.3963801
F73.81226869999999
tp7175
sg1
(g2
(S'S3'
p7176
I0
I1
tp7177
Rp7178
(I3
S'|'
p7179
NNNI3
I1
I0
tp7180
bS'KGI'
p7181
tp7182
Rp7183
(F12.9177955
F77.4841235
tp7184
sg1
(g2
(S'S3'
p7185
I0
I1
tp7186
Rp7187
(I3
S'|'
p7188
NNNI3
I1
I0
tp7189
bS'JMP'
p7190
tp7191
Rp7192
(F25.3148743
F86.49287679999999
tp7193
s.